(lp1
(lp2
(lp3
F2.8948
aF5.8238000000000003
aF1.2253000000000001
aa(lp4
F2.9100999999999999
aF5.8139000000000003
aF1.2250000000000001
aa(lp5
F2.9289999999999998
aF5.8110999999999997
aF1.2261
aa(lp6
F2.9443000000000001
aF5.8010999999999999
aF1.2257
aa(lp7
F2.9643000000000002
aF5.7953000000000001
aF1.2263999999999999
aa(lp8
F2.9786999999999999
aF5.7835000000000001
aF1.2257
aa(lp9
F2.9958999999999998
aF5.7747000000000002
aF1.2257
aa(lp10
F3.0156999999999998
aF5.7709999999999999
aF1.2267999999999999
aa(lp11
F3.028
aF5.7601000000000004
aF1.2261
aa(lp12
F3.0461
aF5.7506000000000004
aF1.2261
aa(lp13
F3.0657999999999999
aF5.7489999999999997
aF1.2276
aa(lp14
F3.0809000000000002
aF5.7386999999999997
aF1.2272000000000001
aaa(lp15
(lp16
F2.8997000000000002
aF5.8337000000000003
aF1.0703
aa(lp17
F2.9133
aF5.8202999999999996
aF1.0692999999999999
aa(lp18
F2.9296000000000002
aF5.8121999999999998
aF1.0692999999999999
aa(lp19
F2.9466999999999999
aF5.8056999999999999
aF1.0697000000000001
aa(lp20
F2.964
aF5.7946999999999997
aF1.0692999999999999
aa(lp21
F2.9828999999999999
aF5.7915999999999999
aF1.0703
aa(lp22
F2.9973000000000001
aF5.7774999999999999
aF1.0692999999999999
aa(lp23
F3.02
aF5.7790999999999997
aF1.0712999999999999
aa(lp24
F3.0341
aF5.7717000000000001
aF1.0712999999999999
aa(lp25
F3.0522
aF5.7621000000000002
aF1.0712999999999999
aa(lp26
F3.0691999999999999
aF5.7553000000000001
aF1.0716000000000001
aa(lp27
F3.0880000000000001
aF5.7519999999999998
aF1.0726
aaa(lp28
(lp29
F2.8984999999999999
aF5.8314000000000004
aF0.91520000000000001
aa(lp30
F2.9148000000000001
aF5.8231999999999999
aF0.91520000000000001
aa(lp31
F2.9302000000000001
aF5.8132999999999999
aF0.91491999999999996
aa(lp32
F2.9500000000000002
aF5.8121999999999998
aF0.91603999999999997
aa(lp33
F2.9681999999999999
aF5.8029000000000002
aF0.91603999999999997
aa(lp34
F2.9834999999999998
aF5.7927999999999997
aF0.91576000000000002
aa(lp35
F3.0015999999999998
aF5.7857000000000003
aF0.91603999999999997
aa(lp36
F3.0177999999999998
aF5.7750000000000004
aF0.91576000000000002
aa(lp37
F3.0337999999999998
aF5.7710999999999997
aF0.91632000000000002
aa(lp38
F3.0547
aF5.7667999999999999
aF0.91715000000000002
aa(lp39
F3.0680000000000001
aF5.7530000000000001
aF0.91632000000000002
aa(lp40
F3.0868000000000002
aF5.7496999999999998
aF0.91715000000000002
aaa(lp41
(lp42
F2.9045000000000001
aF5.8434999999999997
aF0.76310999999999996
aa(lp43
F2.9199999999999999
aF5.8335999999999997
aF0.76288
aa(lp44
F2.9352999999999998
aF5.8235999999999999
aF0.76265000000000005
aa(lp45
F2.9533999999999998
aF5.8189000000000002
aF0.76310999999999996
aa(lp46
F2.9708000000000001
aF5.8079000000000001
aF0.76288
aa(lp47
F2.9870000000000001
aF5.7995000000000001
aF0.76288
aa(lp48
F3.0059999999999998
aF5.7942
aF0.76334000000000002
aa(lp49
F3.0222000000000002
aF5.7835000000000001
aF0.76310999999999996
aa(lp50
F3.0373000000000001
aF5.7778
aF0.76334000000000002
aa(lp51
F3.0564
aF5.7699999999999996
aF0.76356999999999997
aa(lp52
F3.0724999999999998
aF5.7614999999999998
aF0.76356999999999997
aa(lp53
F3.0876000000000001
aF5.7511000000000001
aF0.76334000000000002
aaa(lp54
(lp55
F2.8975
aF5.8292999999999999
aF0.60733000000000004
aa(lp56
F2.9119999999999999
aF5.8177000000000003
aF0.60696000000000006
aa(lp57
F2.9281999999999999
aF5.8094999999999999
aF0.60696000000000006
aa(lp58
F2.9453
aF5.8030999999999997
aF0.60714000000000001
aa(lp59
F2.9636
aF5.7938000000000001
aF0.60714000000000001
aa(lp60
F2.9796999999999998
aF5.7854999999999999
aF0.60714000000000001
aa(lp61
F2.9986999999999999
aF5.7801999999999998
aF0.60750999999999999
aa(lp62
F3.0167999999999999
aF5.7729999999999997
aF0.60770000000000002
aa(lp63
F3.0318000000000001
aF5.7674000000000003
aF0.60787999999999998
aa(lp64
F3.048
aF5.7542999999999997
aF0.60750999999999999
aa(lp65
F3.0640999999999998
aF5.7458
aF0.60750999999999999
aa(lp66
F3.0829
aF5.7424999999999997
aF0.60807
aaa(lp67
(lp68
F2.8923000000000001
aF5.8189000000000002
aF0.45439000000000002
aa(lp69
F2.9095
aF5.8125999999999998
aF0.45452999999999999
aa(lp70
F2.9257
aF5.8045
aF0.45452999999999999
aa(lp71
F2.9409999999999998
aF5.7945000000000002
aF0.45439000000000002
aa(lp72
F2.9601000000000002
aF5.7869999999999999
aF0.45452999999999999
aa(lp73
F2.9762
aF5.7786999999999997
aF0.45452999999999999
aa(lp74
F2.9952000000000001
aF5.7733999999999996
aF0.45480999999999999
aa(lp75
F3.0142000000000002
aF5.7679999999999998
aF0.45508999999999999
aa(lp76
F3.0301
aF5.7641999999999998
aF0.45537
aa(lp77
F3.0482
aF5.7545999999999999
aF0.45537
aa(lp78
F3.0651999999999999
aF5.7478999999999996
aF0.45551000000000003
aa(lp79
F3.0811999999999999
aF5.7393000000000001
aF0.45551000000000003
aaa(lp80
(lp81
F2.8944999999999999
aF5.8231999999999999
aF0.30325999999999997
aa(lp82
F2.9079999999999999
aF5.8098000000000001
aF0.30298000000000003
aa(lp83
F2.9243000000000001
aF5.8015999999999996
aF0.30298000000000003
aa(lp84
F2.9413999999999998
aF5.7952000000000004
aF0.30307000000000001
aa(lp85
F2.9594999999999998
aF5.7859999999999996
aF0.30307000000000001
aa(lp86
F2.9748000000000001
aF5.7759
aF0.30298000000000003
aa(lp87
F2.9927999999999999
aF5.7687999999999997
aF0.30307000000000001
aa(lp88
F3.0099
aF5.7599
aF0.30307000000000001
aa(lp89
F3.0268000000000002
aF5.7577999999999996
aF0.30335000000000001
aa(lp90
F3.0449000000000002
aF5.7483000000000004
aF0.30335000000000001
aa(lp91
F3.0628000000000002
aF5.7432999999999996
aF0.30353999999999998
aa(lp92
F3.0796999999999999
aF5.7365000000000004
aF0.30363000000000001
aaa(lp93
(lp94
F2.9003999999999999
aF5.8352000000000004
aF0.15129000000000001
aa(lp95
F2.9140000000000001
aF5.8216999999999999
aF0.15115000000000001
aa(lp96
F2.9348000000000001
aF5.8224
aF0.15137999999999999
aa(lp97
F2.9510000000000001
aF5.8141999999999996
aF0.15137999999999999
aa(lp98
F2.9655999999999998
aF5.7977999999999996
aF0.1512
aa(lp99
F2.9845000000000002
aF5.7948000000000004
aF0.15132999999999999
aa(lp100
F3.0017
aF5.7858999999999998
aF0.15132999999999999
aa(lp101
F3.0207000000000002
aF5.7805999999999997
aF0.15143000000000001
aa(lp102
F3.0348000000000002
aF5.7732000000000001
aF0.15143000000000001
aa(lp103
F3.0539000000000001
aF5.7653999999999996
aF0.15146999999999999
aa(lp104
F3.0718999999999999
aF5.7603
aF0.15157000000000001
aa(lp105
F3.0878999999999999
aF5.7516999999999996
aF0.15157000000000001
aaa(lp106
(lp107
F2.8940999999999999
aF5.8224
aF0
aa(lp108
F2.9121000000000001
aF5.8178999999999998
aF0
aa(lp109
F2.9247000000000001
aF5.8026
aF0
aa(lp110
F2.9426999999999999
aF5.798
aF0
aa(lp111
F2.96
aF5.7869000000000002
aF0
aa(lp112
F2.9807999999999999
aF5.7874999999999996
aF0
aa(lp113
F2.9979
aF5.7786
aF0
aa(lp114
F3.0141
aF5.7679
aF0
aa(lp115
F3.0318999999999998
aF5.7675999999999998
aF0
aa(lp116
F3.0491000000000001
aF5.7563000000000004
aF0
aa(lp117
F3.0632999999999999
aF5.7443
aF0
aa(lp118
F3.0792999999999999
aF5.7356999999999996
aF0
aaa(lp119
(lp120
F2.8923999999999999
aF5.819
aF-0.15087
aa(lp121
F2.9085999999999999
aF5.8109000000000002
aF-0.15087
aa(lp122
F2.9239999999999999
aF5.8010000000000002
aF-0.15082000000000001
aa(lp123
F2.9409999999999998
aF5.7946
aF-0.15087
aa(lp124
F2.9592000000000001
aF5.7853000000000003
aF-0.15087
aa(lp125
F2.9809000000000001
aF5.7877000000000001
aF-0.15115000000000001
aa(lp126
F2.9933999999999998
aF5.7699999999999996
aF-0.15092
aa(lp127
F3.0133000000000001
aF5.7664
aF-0.15106
aa(lp128
F3.0283000000000002
aF5.7607999999999997
aF-0.15110000000000001
aa(lp129
F3.0417000000000001
aF5.7423999999999999
aF-0.15087
aa(lp130
F3.0587
aF5.7355999999999998
aF-0.15092
aa(lp131
F3.0756000000000001
aF5.7287999999999997
aF-0.15096000000000001
aaa(lp132
(lp133
F2.8883000000000001
aF5.8106999999999998
aF-0.30260999999999999
aa(lp134
F2.9045000000000001
aF5.8026
aF-0.30260999999999999
aa(lp135
F2.9207000000000001
aF5.7945000000000002
aF-0.30260999999999999
aa(lp136
F2.9367999999999999
aF5.7862999999999998
aF-0.30260999999999999
aa(lp137
F2.9559000000000002
aF5.7788000000000004
aF-0.30270000000000002
aa(lp138
F2.9729000000000001
aF5.7723000000000004
aF-0.30279
aa(lp139
F2.9891000000000001
aF5.7617000000000003
aF-0.30270000000000002
aa(lp140
F3.0044
aF5.7492999999999999
aF-0.30251
aa(lp141
F3.0230999999999999
aF5.7507999999999999
aF-0.30298000000000003
aa(lp142
F3.0411000000000001
aF5.7412000000000001
aF-0.30298000000000003
aa(lp143
F3.0571000000000002
aF5.7327000000000004
aF-0.30298000000000003
aa(lp144
F3.0741000000000001
aF5.7259000000000002
aF-0.30307000000000001
aaa(lp145
(lp146
F2.8915000000000002
aF5.8171999999999997
aF-0.45424999999999999
aa(lp147
F2.9049999999999998
aF5.8037000000000001
aF-0.45384000000000002
aa(lp148
F2.923
aF5.7991000000000001
aF-0.45411000000000001
aa(lp149
F2.9392
aF5.7908999999999997
aF-0.45411000000000001
aa(lp150
F2.9573999999999998
aF5.7816999999999998
aF-0.45411000000000001
aa(lp151
F2.9762
aF5.7786999999999997
aF-0.45452999999999999
aa(lp152
F2.9925000000000002
aF5.7680999999999996
aF-0.45439000000000002
aa(lp153
F3.0114000000000001
aF5.7626999999999997
aF-0.45467000000000002
aa(lp154
F3.0272999999999999
aF5.7588999999999997
aF-0.45495000000000002
aa(lp155
F3.0463
aF5.7511000000000001
aF-0.45508999999999999
aa(lp156
F3.0605000000000002
aF5.7390999999999996
aF-0.45480999999999999
aa(lp157
F3.0794000000000001
aF5.7358000000000002
aF-0.45523000000000002
aaa(lp158
(lp159
F2.8957000000000002
aF5.8258000000000001
aF-0.60696000000000006
aa(lp160
F2.9110999999999998
aF5.8159000000000001
aF-0.60677000000000003
aa(lp161
F2.9264000000000001
aF5.8059000000000003
aF-0.60658000000000001
aa(lp162
F2.9443999999999999
aF5.8013000000000003
aF-0.60696000000000006
aa(lp163
F2.9636
aF5.7938000000000001
aF-0.60714000000000001
aa(lp164
F2.9796999999999998
aF5.7854999999999999
aF-0.60714000000000001
aa(lp165
F2.9950000000000001
aF5.7731000000000003
aF-0.60677000000000003
aa(lp166
F3.0139999999999998
aF5.7676999999999996
aF-0.60714000000000001
aa(lp167
F3.0308999999999999
aF5.7656000000000001
aF-0.60770000000000002
aa(lp168
F3.0470999999999999
aF5.7525000000000004
aF-0.60733000000000004
aa(lp169
F3.0649999999999999
aF5.7474999999999996
aF-0.60770000000000002
aa(lp170
F3.0819999999999999
aF5.7407000000000004
aF-0.60787999999999998
aaa(lp171
(lp172
F2.8929999999999998
aF5.8204000000000002
aF-0.76009000000000004
aa(lp173
F2.9093
aF5.8121999999999998
aF-0.76009000000000004
aa(lp174
F2.9281999999999999
aF5.8094000000000001
aF-0.76078999999999997
aa(lp175
F2.9443999999999999
aF5.8011999999999997
aF-0.76078999999999997
aa(lp176
F2.9626000000000001
aF5.7919
aF-0.76078999999999997
aa(lp177
F2.9805999999999999
aF5.7872000000000003
aF-0.76124999999999998
aa(lp178
F2.9986999999999999
aF5.7801
aF-0.76148000000000005
aa(lp179
F3.0148999999999999
aF5.7694000000000001
aF-0.76124999999999998
aa(lp180
F3.0335999999999999
aF5.7708000000000004
aF-0.76241000000000003
aa(lp181
F3.0508000000000002
aF5.7595000000000001
aF-0.76217999999999997
aa(lp182
F3.0659000000000001
aF5.7492000000000001
aF-0.76195000000000002
aa(lp183
F3.0867
aF5.7493999999999996
aF-0.76310999999999996
aaa(lp184
(lp185
F2.8896999999999999
aF5.8136000000000001
aF-0.91242000000000001
aa(lp186
F2.9049999999999998
aF5.8037999999999998
aF-0.91213999999999995
aa(lp187
F2.923
aF5.7991999999999999
aF-0.91269999999999996
aa(lp188
F2.9392
aF5.7910000000000004
aF-0.91269999999999996
aa(lp189
F2.9565000000000001
aF5.7800000000000002
aF-0.91242000000000001
aa(lp190
F2.9752999999999998
aF5.7770000000000001
aF-0.91325000000000001
aa(lp191
F2.9925000000000002
aF5.7680999999999996
aF-0.91325000000000001
aa(lp192
F3.0105
aF5.7610000000000001
aF-0.91352999999999995
aa(lp193
F3.0236000000000001
aF5.7518000000000002
aF-0.91325000000000001
aa(lp194
F3.0426000000000002
aF5.7441000000000004
aF-0.91352999999999995
aa(lp195
F3.0596000000000001
aF5.7373000000000003
aF-0.91381000000000001
aa(lp196
F3.0783999999999998
aF5.7339000000000002
aF-0.91464999999999996
aaa(lp197
(lp198
F2.8953000000000002
aF5.8249000000000004
aF-1.0687
aa(lp199
F2.9054000000000002
aF5.8044000000000002
aF-1.0664
aa(lp200
F2.9241999999999999
aF5.8015999999999996
aF-1.0673999999999999
aa(lp201
F2.9386000000000001
aF5.7899000000000003
aF-1.0668
aa(lp202
F2.9577
aF5.7824
aF-1.0670999999999999
aa(lp203
F2.9765999999999999
aF5.7793999999999999
aF-1.0680000000000001
aa(lp204
F2.9946000000000002
aF5.7723000000000004
aF-1.0684
aa(lp205
F3.0099
aF5.7599
aF-1.0677000000000001
aa(lp206
F3.0266999999999999
aF5.7576999999999998
aF-1.0687
aa(lp207
F3.0428999999999999
aF5.7446999999999999
aF-1.0680000000000001
aa(lp208
F3.0598999999999998
aF5.7378999999999998
aF-1.0684
aa(lp209
F3.0758999999999999
aF5.7293000000000003
aF-1.0684
aaa(lp210
(lp211
F2.8730000000000002
aF5.8258000000000001
aF-1.2239
aa(lp212
F2.8904000000000001
aF5.8150000000000004
aF-1.2235
aa(lp213
F2.9100999999999999
aF5.8139000000000003
aF-1.2250000000000001
aa(lp214
F2.9272
aF5.8075999999999999
aF-1.2253000000000001
aa(lp215
F2.9434999999999998
aF5.7994000000000003
aF-1.2253000000000001
aa(lp216
F2.9626000000000001
aF5.7918000000000003
aF-1.2257
aa(lp217
F2.9786999999999999
aF5.7835000000000001
aF-1.2257
aa(lp218
F2.9950000000000001
aF5.7728999999999999
aF-1.2253000000000001
aa(lp219
F3.0112000000000001
aF5.7622999999999998
aF-1.2250000000000001
aa(lp220
F3.0297999999999998
aF5.7636000000000003
aF-1.2267999999999999
aa(lp221
F3.0478999999999998
aF5.7541000000000002
aF-1.2267999999999999
aa(lp222
F3.0611999999999999
aF5.7403000000000004
aF-1.2257
aaa.