(lp1
(lp2
(lp3
F19.556000000000001
aF-18.617000000000001
aF3.7947000000000002
aa(lp4
F19.361000000000001
aF-18.521000000000001
aF3.7654999999999998
aa(lp5
F19.164000000000001
aF-18.448
aF3.7385000000000002
aa(lp6
F18.954000000000001
aF-18.349
aF3.7075999999999998
aa(lp7
F18.765999999999998
aF-18.274999999999999
aF3.6814
aa(lp8
F18.559999999999999
aF-18.175000000000001
aF3.6507999999999998
aa(lp9
F18.379000000000001
aF-18.105
aF3.6257000000000001
aa(lp10
F18.193000000000001
aF-18.027999999999999
aF3.5996000000000001
aa(lp11
F18.023
aF-17.960000000000001
aF3.5758999999999999
aa(lp12
F17.838000000000001
aF-17.888000000000002
aF3.5503
aaa(lp13
(lp14
F19.603000000000002
aF-18.661999999999999
aF3.1650999999999998
aa(lp15
F19.381
aF-18.539999999999999
aF3.1364999999999998
aa(lp16
F19.170999999999999
aF-18.454999999999998
aF3.1118999999999999
aa(lp17
F18.975000000000001
aF-18.369
aF3.0884
aa(lp18
F18.766999999999999
aF-18.276
aF3.0634000000000001
aa(lp19
F18.564
aF-18.178999999999998
aF3.0385
aa(lp20
F18.381
aF-18.106999999999999
aF3.0173999999999999
aa(lp21
F18.196000000000002
aF-18.032
aF2.9958
aa(lp22
F18.018000000000001
aF-17.954999999999998
aF2.9746000000000001
aa(lp23
F17.832000000000001
aF-17.882000000000001
aF2.9531999999999998
aaa(lp24
(lp25
F19.373000000000001
aF-18.532
aF2.5011999999999999
aa(lp26
F19.173999999999999
aF-18.457999999999998
aF2.4830000000000001
aa(lp27
F18.972000000000001
aF-18.366
aF2.4634999999999998
aa(lp28
F18.774999999999999
aF-18.283000000000001
aF2.4449000000000001
aa(lp29
F18.585999999999999
aF-18.199999999999999
aF2.4268999999999998
aa(lp30
F18.405000000000001
aF-18.131
aF2.4104000000000001
aa(lp31
F18.213999999999999
aF-18.050000000000001
aF2.3923000000000001
aa(lp32
F18.035
aF-17.972000000000001
aF2.3754
aa(lp33
F17.853999999999999
aF-17.904
aF2.3589000000000002
aaa(lp34
(lp35
F19.405000000000001
aF-18.562999999999999
aF1.8777999999999999
aa(lp36
F19.193000000000001
aF-18.475999999999999
aF1.8629
aa(lp37
F19.001999999999999
aF-18.395
aF1.8493999999999999
aa(lp38
F18.802
aF-18.309000000000001
aF1.8351999999999999
aa(lp39
F18.609000000000002
aF-18.224
aF1.8212999999999999
aa(lp40
F18.419
aF-18.143999999999998
aF1.8079000000000001
aa(lp41
F18.245999999999999
aF-18.081
aF1.7962
aa(lp42
F18.068000000000001
aF-18.004999999999999
aF1.7837000000000001
aa(lp43
F17.882999999999999
aF-17.933
aF1.7709999999999999
aa(lp44
F17.733000000000001
aF-17.882999999999999
aF1.7611000000000001
aaa(lp45
(lp46
F19.391999999999999
aF-18.550999999999998
aF1.2515000000000001
aa(lp47
F19.196000000000002
aF-18.478999999999999
aF1.2425999999999999
aa(lp48
F18.991
aF-18.384
aF1.2325999999999999
aa(lp49
F18.803999999999998
aF-18.312000000000001
aF1.224
aa(lp50
F18.605
aF-18.219000000000001
aF1.2142999999999999
aa(lp51
F18.411999999999999
aF-18.138000000000002
aF1.2053
aa(lp52
F18.234000000000002
aF-18.068999999999999
aF1.1971000000000001
aa(lp53
F18.053000000000001
aF-17.989999999999998
aF1.1884999999999999
aa(lp54
F17.872
aF-17.922000000000001
aF1.1802999999999999
aa(lp55
F17.728000000000002
aF-17.876999999999999
aF1.1740999999999999
aaa(lp56
(lp57
F19.411000000000001
aF-18.568999999999999
aF0.62366999999999995
aa(lp58
F19.204000000000001
aF-18.486999999999998
aF0.61889000000000005
aa(lp59
F19.010000000000002
aF-18.402999999999999
aF0.61429999999999996
aa(lp60
F18.805
aF-18.312999999999999
aF0.60941999999999996
aa(lp61
F18.616
aF-18.23
aF0.60492000000000001
aa(lp62
F18.425000000000001
aF-18.149999999999999
aF0.60045999999999999
aa(lp63
F18.239999999999998
aF-18.074999999999999
aF0.59619
aa(lp64
F18.065000000000001
aF-18.001999999999999
aF0.59211000000000003
aa(lp65
F17.890999999999998
aF-17.940999999999999
aF0.58825000000000005
aa(lp66
F17.731000000000002
aF-17.879999999999999
aF0.58462999999999998
aaa(lp67
(lp68
F19.434000000000001
aF-18.591000000000001
aF-0.62441999999999998
aa(lp69
F19.236000000000001
aF-18.518000000000001
aF-0.61990999999999996
aa(lp70
F19.042999999999999
aF-18.434999999999999
aF-0.61536000000000002
aa(lp71
F18.84
aF-18.346
aF-0.61053999999999997
aa(lp72
F18.643000000000001
aF-18.256
aF-0.60580000000000001
aa(lp73
F18.456
aF-18.181000000000001
aF-0.60148000000000001
aa(lp74
F18.273
aF-18.108000000000001
aF-0.59726000000000001
aa(lp75
F18.099
aF-18.036000000000001
aF-0.59321999999999997
aaa(lp76
(lp77
F19.449000000000002
aF-18.605
aF-1.2551000000000001
aa(lp78
F19.236000000000001
aF-18.518000000000001
aF-1.2452000000000001
aa(lp79
F19.033999999999999
aF-18.425999999999998
aF-1.2354000000000001
aa(lp80
F18.846
aF-18.352
aF-1.2266999999999999
aa(lp81
F18.635000000000002
aF-18.248000000000001
aF-1.2162999999999999
aa(lp82
F18.454999999999998
aF-18.18
aF-1.2081
aa(lp83
F18.274999999999999
aF-18.109999999999999
aF-1.1998
aa(lp84
F18.093
aF-18.030000000000001
aF-1.1911
aaa.