(lp1
(lp2
(lp3
F4.1513
aF-1.891
aF0.85948000000000002
aa(lp4
F4.1439000000000004
aF-1.9025000000000001
aF0.85911000000000004
aa(lp5
F4.1346999999999996
aF-1.9131
aF0.85836999999999997
aa(lp6
F4.1276000000000002
aF-1.9238
aF0.85799000000000003
aa(lp7
F4.1288999999999998
aF-1.9394
aF0.85948000000000002
aa(lp8
F4.1323999999999996
aF-1.9551000000000001
aF0.86133000000000004
aa(lp9
F4.1375999999999999
aF-1.9717
aF0.86355000000000004
aa(lp10
F4.0785
aF-1.9584999999999999
aF0.85243999999999998
aa(lp11
F4.0815999999999999
aF-1.9749000000000001
aF0.85428999999999999
aa(lp12
F4.0880000000000001
aF-1.9930000000000001
aF0.85687999999999998
aa(lp13
F4.0961999999999996
aF-2.012
aF0.85985
aaa(lp14
(lp15
F4.1631
aF-1.8964000000000001
aF0.75158999999999998
aa(lp16
F4.1288
aF-1.8955
aF0.74639999999999995
aa(lp17
F4.141
aF-1.9160999999999999
aF0.74965000000000004
aa(lp18
F4.1284999999999998
aF-1.9242999999999999
aF0.74834999999999996
aa(lp19
F4.1264000000000003
aF-1.9381999999999999
aF0.749
aa(lp20
F4.1155999999999997
aF-1.9472
aF0.74802000000000002
aa(lp21
F4.1440000000000001
aF-1.9748000000000001
aF0.75417999999999996
aa(lp22
F4.1025
aF-1.97
aF0.74770000000000003
aa(lp23
F4.0789
aF-1.9736
aF0.74446000000000001
aa(lp24
F4.0677000000000003
aF-1.9831000000000001
aF0.74348000000000003
aa(lp25
F4.0830000000000002
aF-2.0055999999999998
aF0.74738000000000004
aaa(lp26
(lp27
F4.1614000000000004
aF-1.9105000000000001
aF0.64354
aa(lp28
F4.1574999999999998
aF-1.9237
aF0.64380999999999999
aa(lp29
F4.1502999999999997
aF-1.9343999999999999
aF0.64354
aa(lp30
F4.141
aF-1.9451000000000001
aF0.64298
aa(lp31
F4.1337000000000002
aF-1.9558
aF0.64270000000000005
aa(lp32
F4.1497000000000002
aF-1.9775
aF0.64603999999999995
aa(lp33
F4.1098999999999997
aF-1.9736
aF0.64075000000000004
aa(lp34
F4.0898000000000003
aF-1.9787999999999999
aF0.63853000000000004
aa(lp35
F4.0910000000000002
aF-1.9944
aF0.63963999999999999
aa(lp36
F4.0922000000000001
aF-2.0101
aF0.64075000000000004
aaa(lp37
(lp38
F4.1505999999999998
aF-1.8907
aF0.53335999999999995
aa(lp39
F4.1432000000000002
aF-1.9020999999999999
aF0.53312999999999999
aa(lp40
F4.1429
aF-1.9169
aF0.53383000000000003
aa(lp41
F4.1375000000000002
aF-1.9285000000000001
aF0.53383000000000003
aa(lp42
F4.1390000000000002
aF-1.9440999999999999
aF0.53476000000000001
aa(lp43
F4.1515000000000004
aF-1.9641999999999999
aF0.53708
aa(lp44
F4.1334
aF-1.9698
aF0.53544999999999998
aa(lp45
F4.1132999999999997
aF-1.9752000000000001
aF0.53359999999999996
aa(lp46
F4.0788000000000002
aF-1.9735
aF0.52988000000000002
aa(lp47
F4.0853999999999999
aF-1.9917
aF0.53151000000000004
aa(lp48
F4.0937000000000001
aF-2.0108000000000001
aF0.53335999999999995
aaa(lp49
(lp50
F4.1498999999999997
aF-1.8904000000000001
aF0.42544999999999999
aa(lp51
F4.1551999999999998
aF-1.9076
aF0.42655999999999999
aa(lp52
F4.1403999999999996
aF-1.9157999999999999
aF0.42563000000000001
aa(lp53
F4.1351000000000004
aF-1.9273
aF0.42563000000000001
aa(lp54
F4.133
aF-1.9413
aF0.42599999999999999
aa(lp55
F4.1346999999999996
aF-1.9561999999999999
aF0.42675000000000002
aa(lp56
F4.1292
aF-1.9678
aF0.42675000000000002
aa(lp57
F4.1036000000000001
aF-1.9704999999999999
aF0.42470000000000002
aa(lp58
F4.0923999999999996
aF-1.9801
aF0.42414000000000002
aa(lp59
F4.0865
aF-1.9922
aF0.42414000000000002
aa(lp60
F4.0930999999999997
aF-2.0105
aF0.42544999999999999
aaa(lp61
(lp62
F4.1559999999999997
aF-1.8931
aF0.31935000000000002
aa(lp63
F4.1448999999999998
aF-1.9029
aF0.31892999999999999
aa(lp64
F4.1447000000000003
aF-1.9177
aF0.31935000000000002
aa(lp65
F4.1410999999999998
aF-1.9301999999999999
aF0.31947999999999999
aa(lp66
F4.1353999999999997
aF-1.9423999999999999
aF0.31947999999999999
aa(lp67
F4.1317000000000004
aF-1.9548000000000001
aF0.31962000000000002
aa(lp68
F4.1280999999999999
aF-1.9672000000000001
aF0.31975999999999999
aa(lp69
F4.1059999999999999
aF-1.9717
aF0.31851000000000002
aa(lp70
F4.0822000000000003
aF-1.9752000000000001
aF0.31711
aa(lp71
F4.0834999999999999
aF-1.9907999999999999
aF0.31767000000000001
aa(lp72
F4.0811000000000002
aF-2.0045999999999999
aF0.31795000000000001
aa(lp73
F4.1134000000000004
aF-2.0339
aF0.32088
aaa(lp74
(lp75
F4.1543000000000001
aF-1.8924000000000001
aF0.21289
aa(lp76
F4.1360000000000001
aF-1.8988
aF0.21223
aa(lp77
F4.1340000000000003
aF-1.9128000000000001
aF0.21242
aa(lp78
F4.1285999999999996
aF-1.9242999999999999
aF0.21242
aa(lp79
F4.1193
aF-1.9349000000000001
aF0.21223
aa(lp80
F4.1228999999999996
aF-1.9505999999999999
aF0.2127
aa(lp81
F4.1173999999999999
aF-1.9621
aF0.2127
aa(lp82
F4.1007999999999996
aF-1.9692000000000001
aF0.21214
aa(lp83
F4.0876999999999999
aF-1.9778
aF0.21177000000000001
aa(lp84
F4.0763999999999996
aF-1.9873000000000001
aF0.21149000000000001
aa(lp85
F4.0723000000000003
aF-2.0003000000000002
aF0.21157999999999999
aaa(lp86
(lp87
F4.1687000000000003
aF-1.8989
aF0.10635
aa(lp88
F4.1665999999999999
aF-1.9129
aF0.10644000000000001
aa(lp89
F4.1608999999999998
aF-1.9253
aF0.10644000000000001
aa(lp90
F4.1574
aF-1.9377
aF0.10649
aa(lp91
F4.1551999999999998
aF-1.9518
aF0.10657999999999999
aa(lp92
F4.1425000000000001
aF-1.9599
aF0.10639999999999999
aa(lp93
F4.1387999999999998
aF-1.9722999999999999
aF0.10644000000000001
aa(lp94
F4.1113
aF-1.9742
aF0.10589
aa(lp95
F4.1127000000000002
aF-1.9899
aF0.10607
aa(lp96
F4.1085000000000003
aF-2.0030000000000001
aF0.10612000000000001
aa(lp97
F4.1062000000000003
aF-2.0169000000000001
aF0.10621
aaa(lp98
(lp99
F4.1698000000000004
aF-1.8994
aF0
aa(lp100
F4.1623000000000001
aF-1.9109
aF0
aa(lp101
F4.1566000000000001
aF-1.9233
aF0
aa(lp102
F4.1548999999999996
aF-1.9366000000000001
aF0
aa(lp103
F4.1509
aF-1.9497
aF0
aa(lp104
F4.1417999999999999
aF-1.9596
aF0
aa(lp105
F4.1326999999999998
aF-1.9694
aF0
aa(lp106
F4.1196000000000002
aF-1.9782
aF0
aa(lp107
F4.1066000000000003
aF-1.9870000000000001
aF0
aa(lp108
F4.1024000000000003
aF-2
aF0
aa(lp109
F4.0964999999999998
aF-2.0122
aF0
aa(lp110
F4.0589000000000004
aF-2.0068999999999999
aF0
aaa(lp111
(lp112
F4.1596000000000002
aF-1.8947000000000001
aF-0.10612000000000001
aa(lp113
F4.1412000000000004
aF-1.9012
aF-0.10579
aa(lp114
F4.1391999999999998
aF-1.9152
aF-0.10589
aa(lp115
F4.1356000000000002
aF-1.9276
aF-0.10593
aa(lp116
F4.1334999999999997
aF-1.9416
aF-0.10603
aa(lp117
F4.1226000000000003
aF-1.9504999999999999
aF-0.10589
aa(lp118
F4.1208
aF-1.9637
aF-0.10598
aa(lp119
F4.1077000000000004
aF-1.9724999999999999
aF-0.10579
aa(lp120
F4.0946999999999996
aF-1.9812000000000001
aF-0.10561
aa(lp121
F4.0888
aF-1.9933000000000001
aF-0.10561
aa(lp122
F4.0827999999999998
aF-2.0055000000000001
aF-0.10561
aa(lp123
F4.0704000000000002
aF-2.0125999999999999
aF-0.10542
aaa(lp124
(lp125
F4.1543000000000001
aF-1.8924000000000001
aF-0.21289
aa(lp126
F4.1468999999999996
aF-1.9037999999999999
aF-0.21279000000000001
aa(lp127
F4.1357999999999997
aF-1.9136
aF-0.21251
aa(lp128
F4.1285999999999996
aF-1.9242999999999999
aF-0.21242
aa(lp129
F4.1283000000000003
aF-1.9391
aF-0.2127
aa(lp130
F4.1265000000000001
aF-1.9522999999999999
aF-0.21289
aa(lp131
F4.1227999999999998
aF-1.9646999999999999
aF-0.21298
aa(lp132
F4.1062000000000003
aF-1.9718
aF-0.21242
aa(lp133
F4.0913000000000004
aF-1.9796
aF-0.21195
aa(lp134
F4.0835999999999997
aF-1.9907999999999999
aF-0.21185999999999999
aa(lp135
F4.0777000000000001
aF-2.0028999999999999
aF-0.21185999999999999
aa(lp136
F4.0777999999999999
aF-2.0163000000000002
aF-0.21214
aaa(lp137
(lp138
F4.1704999999999997
aF-1.8996999999999999
aF-0.32046000000000002
aa(lp139
F4.1485000000000003
aF-1.9046000000000001
aF-0.31920999999999999
aa(lp140
F4.1447000000000003
aF-1.9177
aF-0.31935000000000002
aa(lp141
F4.1410999999999998
aF-1.9301999999999999
aF-0.31947999999999999
aa(lp142
F4.1372
aF-1.9433
aF-0.31962000000000002
aa(lp143
F4.1334999999999997
aF-1.9557
aF-0.31975999999999999
aa(lp144
F4.1262999999999996
aF-1.9663999999999999
aF-0.31962000000000002
aa(lp145
F4.1185999999999998
aF-1.9777
aF-0.31947999999999999
aa(lp146
F4.0911999999999997
aF-1.9795
aF-0.31780999999999998
aa(lp147
F4.0888999999999998
aF-1.9934000000000001
aF-0.31808999999999998
aa(lp148
F4.0846999999999998
aF-2.0064000000000002
aF-0.31823000000000001
aa(lp149
F4.0919999999999996
aF-2.0232999999999999
aF-0.31920999999999999
aa(lp150
F4.1002000000000001
aF-2.0425
aF-0.32031999999999999
aaa(lp151
(lp152
F4.1788999999999996
aF-1.9036
aF-0.42842000000000002
aa(lp153
F4.157
aF-1.9085000000000001
aF-0.42675000000000002
aa(lp154
F4.1494999999999997
aF-1.9199999999999999
aF-0.42655999999999999
aa(lp155
F4.1531000000000002
aF-1.9358
aF-0.42748999999999998
aa(lp156
F4.1420000000000003
aF-1.9455
aF-0.42692999999999998
aa(lp157
F4.1401000000000003
aF-1.9588000000000001
aF-0.42730000000000001
aa(lp158
F4.1292
aF-1.9678
aF-0.42675000000000002
aa(lp159
F4.1288
aF-1.9825999999999999
aF-0.42730000000000001
aa(lp160
F4.1102999999999996
aF-1.9887999999999999
aF-0.42599999999999999
aa(lp161
F4.1062000000000003
aF-2.0017999999999998
aF-0.42619000000000001
aa(lp162
F4.0983999999999998
aF-2.0131000000000001
aF-0.42599999999999999
aa(lp163
F4.1234999999999999
aF-2.0388999999999999
aF-0.42915999999999999
aaa(lp164
(lp165
F4.1848999999999998
aF-1.9063000000000001
aF-0.53778000000000004
aa(lp166
F4.1539999999999999
aF-1.9071
aF-0.53452999999999995
aa(lp167
F4.1555
aF-1.9228000000000001
aF-0.53544999999999998
aa(lp168
F4.1536999999999997
aF-1.9359999999999999
aF-0.53591999999999995
aa(lp169
F4.1444000000000001
aF-1.9467000000000001
aF-0.53544999999999998
aa(lp170
F4.1334999999999997
aF-1.9557
aF-0.53476000000000001
aa(lp171
F4.1299000000000001
aF-1.9681
aF-0.53498999999999997
aa(lp172
F4.1418999999999997
aF-1.9888999999999999
aF-0.53730999999999995
aa(lp173
F4.1092000000000004
aF-1.9882
aF-0.53383000000000003
aa(lp174
F4.0942999999999996
aF-1.996
aF-0.53266999999999998
aa(lp175
F4.0955000000000004
aF-2.0116999999999998
aF-0.53359999999999996
aa(lp176
F4.1026999999999996
aF-2.0286
aF-0.53522000000000003
aaa(lp177
(lp178
F4.1688000000000001
aF-1.899
aF-0.64380999999999999
aa(lp179
F4.1596000000000002
aF-1.9097
aF-0.64326000000000005
aa(lp180
F4.1502999999999997
aF-1.9204000000000001
aF-0.64270000000000005
aa(lp181
F4.1430999999999996
aF-1.9311
aF-0.64241999999999999
aa(lp182
F4.1428000000000003
aF-1.9459
aF-0.64326000000000005
aa(lp183
F4.1355000000000004
aF-1.9565999999999999
aF-0.64298
aa(lp184
F4.1318000000000001
aF-1.9690000000000001
aF-0.64326000000000005
aa(lp185
F4.1223999999999998
aF-1.9796
aF-0.64270000000000005
aa(lp186
F4.1112000000000002
aF-1.9892000000000001
aF-0.64187000000000005
aa(lp187
F4.0945999999999998
aF-1.9962
aF-0.64019999999999999
aa(lp188
F4.0815000000000001
aF-2.0047999999999999
aF-0.63907999999999998
aa(lp189
F4.0655999999999999
aF-2.0102000000000002
aF-0.63741000000000003
aaa(lp190
(lp191
F4.1775000000000002
aF-1.9029
aF-0.75417999999999996
aa(lp192
F4.1448999999999998
aF-1.9029
aF-0.74931999999999999
aa(lp193
F4.141
aF-1.9160999999999999
aF-0.74965000000000004
aa(lp194
F4.1375000000000002
aF-1.9283999999999999
aF-0.74997000000000003
aa(lp195
F4.1299000000000001
aF-1.9399
aF-0.74965000000000004
aa(lp196
F4.1369999999999996
aF-1.9573
aF-0.75190999999999997
aa(lp197
F4.1189999999999998
aF-1.9629000000000001
aF-0.74965000000000004
aa(lp198
F4.1345000000000001
aF-1.9854000000000001
aF-0.75353999999999999
aa(lp199
F4.0949
aF-1.9813000000000001
aF-0.74738000000000004
aa(lp200
F4.0819000000000001
aF-1.99
aF-0.74607999999999997
aa(lp201
F4.0777000000000001
aF-2.0030000000000001
aF-0.74639999999999995
aa(lp202
F4.0884
aF-2.0215000000000001
aF-0.74931999999999999
aaa(lp203
(lp204
F4.1802000000000001
aF-1.8892
aF-0.86429
aa(lp205
F4.1548999999999996
aF-1.8926000000000001
aF-0.86021999999999998
aa(lp206
F4.1581999999999999
aF-1.909
aF-0.86207
aa(lp207
F4.1543000000000001
aF-1.9221999999999999
aF-0.86243999999999998
aa(lp208
F4.1436000000000002
aF-1.9313
aF-0.86133000000000004
aa(lp209
F4.1360999999999999
aF-1.9428000000000001
aF-0.86095999999999995
aa(lp210
F4.1395
aF-1.9584999999999999
aF-0.86280999999999997
aa(lp211
F4.1197999999999997
aF-1.9633
aF-0.85985
aa(lp212
F4.0820999999999996
aF-1.9601999999999999
aF-0.85318000000000005
aa(lp213
F4.0744999999999996
aF-1.9714
aF-0.85280999999999996
aa(lp214
F4.0686
aF-1.9835
aF-0.85280999999999996
aa(lp215
F4.0909000000000004
aF-2.0093999999999999
aF-0.85873999999999995
aaa(lp216
(lp217
F4.157
aF-1.8935999999999999
aF-0.97094999999999998
aa(lp218
F4.1601999999999997
aF-1.9099999999999999
aF-0.97302999999999995
aa(lp219
F4.1562999999999999
aF-1.9231
aF-0.97343999999999997
aa(lp220
F4.1439000000000004
aF-1.9314
aF-0.97177999999999998
aa(lp221
F4.1452
aF-1.9470000000000001
aF-0.97343999999999997
aa(lp222
F4.1291000000000002
aF-1.9536
aF-0.97094999999999998
aa(lp223
F4.1307
aF-1.9684999999999999
aF-0.97260999999999997
aa(lp224
F4.1002000000000001
aF-1.9689000000000001
aF-0.96679000000000004
aa(lp225
F4.0872999999999999
aF-1.9776
aF-0.96513000000000004
aa(lp226
F4.0690999999999997
aF-1.9837
aF-0.96221999999999996
aa(lp227
F4.0824999999999996
aF-2.0053000000000001
aF-0.96679000000000004
aaa(lp228
(lp229
F4.1462000000000003
aF-1.8737999999999999
aF-1.0781000000000001
aa(lp230
F4.1403999999999996
aF-1.9009
aF-1.0794999999999999
aa(lp231
F4.1311999999999998
aF-1.9115
aF-1.0786
aa(lp232
F4.1329000000000002
aF-1.9262999999999999
aF-1.0804
aa(lp233
F4.1254
aF-1.9377
aF-1.0799000000000001
aa(lp234
F4.1269999999999998
aF-1.9525999999999999
aF-1.0818000000000001
aa(lp235
F4.1092000000000004
aF-1.9581999999999999
aF-1.0786
aa(lp236
F4.0876000000000001
aF-1.9628000000000001
aF-1.0744
aa(lp237
F4.0677000000000003
aF-1.9681999999999999
aF-1.0707
aa(lp238
F4.0705999999999998
aF-1.9844999999999999
aF-1.073
aa(lp239
F4.0647000000000002
aF-1.9965999999999999
aF-1.073
aaa(lp240
(lp241
F4.1395
aF-1.8855999999999999
aF-1.1908000000000001
aa(lp242
F4.1409000000000002
aF-1.9011
aF-1.1928000000000001
aa(lp243
F4.1369999999999996
aF-1.9141999999999999
aF-1.1933
aa(lp244
F4.1351000000000004
aF-1.9274
aF-1.1942999999999999
aa(lp245
F4.1223999999999998
aF-1.9362999999999999
aF-1.1922999999999999
aa(lp246
F4.1239999999999997
aF-1.9512
aF-1.1942999999999999
aa(lp247
F4.1132999999999997
aF-1.9601999999999999
aF-1.1928000000000001
aa(lp248
F4.0970000000000004
aF-1.9673
aF-1.1898
aa(lp249
F4.0789
aF-1.9736
aF-1.1861999999999999
aa(lp250
F4.0731000000000002
aF-1.9857
aF-1.1861999999999999
aa(lp251
F4.0670999999999999
aF-1.9978
aF-1.1861999999999999
aaa.