(lp1
(lp2
(lp3
F0.95865999999999996
aF-2.3132999999999999
aF-1.3313999999999999
aa(lp4
F0.95782999999999996
aF-2.3308
aF-1.3399000000000001
aa(lp5
F0.94984000000000002
aF-2.3321999999999998
aF-1.3389
aa(lp6
F0.94438999999999995
aF-2.3363
aF-1.3399000000000001
aa(lp7
F0.93942999999999999
aF-2.3439999999999999
aF-1.3427
aa(lp8
F0.93288000000000004
aF-2.3466
aF-1.3427
aa(lp9
F0.92566999999999999
aF-2.3475999999999999
aF-1.3416999999999999
aa(lp10
F0.91485000000000005
aF-2.3403999999999998
aF-1.3361000000000001
aa(lp11
F0.90981000000000001
aF-2.3481000000000001
aF-1.3389
aa(lp12
F0.90642
aF-2.3588
aF-1.3435999999999999
aa(lp13
F0.89753000000000005
aF-2.3565999999999998
aF-1.3408
aa(lp14
F0.89239999999999997
aF-2.3641999999999999
aF-1.3435999999999999
aa(lp15
F0.88393999999999995
aF-2.3616999999999999
aF-1.3408
aa(lp16
F0.87468000000000001
aF-2.3595000000000002
aF-1.3380000000000001
aa(lp17
F0.87173999999999996
aF-2.3719000000000001
aF-1.3435999999999999
aa(lp18
F0.86228000000000005
aF-2.3677999999999999
aF-1.3399000000000001
aa(lp19
F0.85524999999999995
aF-2.3704000000000001
aF-1.3399000000000001
aa(lp20
F0.84845000000000004
aF-2.3708999999999998
aF-1.3389
aa(lp21
F0.84158999999999995
aF-2.3752
aF-1.3399000000000001
aa(lp22
F0.83494999999999997
aF-2.3776000000000002
aF-1.3399000000000001
aa(lp23
F0.83484999999999998
aF-2.4001000000000001
aF-1.3511
aa(lp24
F0.82255
aF-2.3875000000000002
aF-1.3427
aa(lp25
F0.81344000000000005
aF-2.3813
aF-1.3380000000000001
aa(lp26
F0.80508999999999997
aF-2.3784999999999998
aF-1.3351999999999999
aa(lp27
F0.79971999999999999
aF-2.3858999999999999
aF-1.3380000000000001
aa(lp28
F0.79693999999999998
aF-2.3999000000000001
aF-1.3446
aa(lp29
F0.79229000000000005
aF-2.4125999999999999
aF-1.3502000000000001
aa(lp30
F0.78761000000000003
aF-2.4197000000000002
aF-1.353
aa(lp31
F0.77597000000000005
aF-2.4068000000000001
aF-1.3446
aaa(lp32
(lp33
F1
aF-2.4738000000000002
aF-1.3403
aa(lp34
F0.98933000000000004
aF-2.4685000000000001
aF-1.3358000000000001
aa(lp35
F0.98077000000000003
aF-2.4872999999999998
aF-1.343
aa(lp36
F0.97274000000000005
aF-2.4885000000000002
aF-1.3421000000000001
aa(lp37
F0.96664000000000005
aF-2.4946999999999999
aF-1.3439000000000001
aa(lp38
F0.95774999999999999
aF-2.4923999999999999
aF-1.3411999999999999
aa(lp39
F0.95226
aF-2.5003000000000002
aF-1.3439000000000001
aa(lp40
F0.94357000000000002
aF-2.4996999999999998
aF-1.3421000000000001
aa(lp41
F0.93532999999999999
aF-2.4990000000000001
aF-1.3403
aa(lp42
F0.92996000000000001
aF-2.5085999999999999
aF-1.3439000000000001
aa(lp43
F0.92049000000000003
aF-2.5045000000000002
aF-1.3403
aa(lp44
F0.91427999999999998
aF-2.5106000000000002
aF-1.3421000000000001
aa(lp45
F0.90925
aF-2.52
aF-1.3456999999999999
aa(lp46
F0.90144000000000002
aF-2.5190000000000001
aF-1.3439000000000001
aa(lp47
F0.89353000000000005
aF-2.5217999999999998
aF-1.3439000000000001
aa(lp48
F0.88410999999999995
aF-2.5175999999999998
aF-1.3403
aa(lp49
F0.87546000000000002
aF-2.5167999999999999
aF-1.3385
aa(lp50
F0.86799000000000004
aF-2.5194000000000001
aF-1.3385
aa(lp51
F0.86255000000000004
aF-2.5251000000000001
aF-1.3403
aa(lp52
F0.85607
aF-2.5291000000000001
aF-1.3411999999999999
aa(lp53
F0.84855999999999998
aF-2.5316999999999998
aF-1.3411999999999999
aa(lp54
F0.84204999999999997
aF-2.5356999999999998
aF-1.3421000000000001
aaa(lp55
(lp56
F1.0141
aF-2.6391
aF-1.3383
aa(lp57
F1.0061
aF-2.6654
aF-1.3485
aa(lp58
F1.0005999999999999
aF-2.6732999999999998
aF-1.3511
aa(lp59
F0.98838999999999999
aF-2.6661999999999999
aF-1.3460000000000001
aa(lp60
F0.98094000000000003
aF-2.669
aF-1.3460000000000001
aa(lp61
F0.96867999999999999
aF-2.6600000000000001
aF-1.3400000000000001
aa(lp62
F0.9657
aF-2.6764999999999999
aF-1.3468
aa(lp63
F0.96050999999999997
aF-2.6840999999999999
aF-1.3493999999999999
aa(lp64
F0.95025999999999999
aF-2.6819999999999999
aF-1.3468
aa(lp65
F0.93977999999999995
aF-2.6760999999999999
aF-1.3425
aa(lp66
F0.93598999999999999
aF-2.6907999999999999
aF-1.3485
aa(lp67
F0.92447000000000001
aF-2.6833
aF-1.3433999999999999
aa(lp68
F0.92095000000000005
aF-2.6960000000000002
aF-1.3485
aa(lp69
F0.91052
aF-2.6899999999999999
aF-1.3442000000000001
aaa(lp70
(lp71
F0.94325000000000003
aF-2.1871
aF-1.3382000000000001
aa(lp72
F0.94430000000000003
aF-2.2075
aF-1.349
aa(lp73
F0.93540999999999996
aF-2.2037
aF-1.3451
aa(lp74
F0.93157000000000001
aF-2.2128999999999999
aF-1.349
aa(lp75
F0.92645
aF-2.2168999999999999
aF-1.3500000000000001
aa(lp76
F0.92052999999999996
aF-2.2212999999999998
aF-1.351
aa(lp77
F0.91195000000000004
aF-2.2191999999999998
aF-1.3480000000000001
aa(lp78
F0.90629000000000004
aF-2.2252000000000001
aF-1.3500000000000001
aa(lp79
F0.90176999999999996
aF-2.2307999999999999
aF-1.3520000000000001
aa(lp80
F0.88736000000000004
aF-2.2141000000000002
aF-1.3402000000000001
aa(lp81
F0.88310999999999995
aF-2.2214
aF-1.3431
aa(lp82
F0.88202000000000003
aF-2.2368000000000001
aF-1.351
aa(lp83
F0.87411000000000005
aF-2.2362000000000002
aF-1.349
aa(lp84
F0.86368999999999996
aF-2.2290000000000001
aF-1.3431
aa(lp85
F0.86184000000000005
aF-2.2427999999999999
aF-1.3500000000000001
aa(lp86
F0.85641999999999996
aF-2.2486000000000002
aF-1.3520000000000001
aa(lp87
F0.85343999999999998
aF-2.2610000000000001
aF-1.3577999999999999
aa(lp88
F0.84467999999999999
aF-2.2568000000000001
aF-1.3539000000000001
aa(lp89
F0.83697999999999995
aF-2.2578
aF-1.3529
aa(lp90
F0.82947000000000004
aF-2.2568999999999999
aF-1.351
aa(lp91
F0.82396000000000003
aF-2.2625999999999999
aF-1.3529
aa(lp92
F0.81784000000000001
aF-2.2667000000000002
aF-1.3539000000000001
aa(lp93
F0.80896000000000001
aF-2.2606000000000002
aF-1.349
aa(lp94
F0.80535000000000001
aF-2.2730000000000001
aF-1.3549
aa(lp95
F0.79783999999999999
aF-2.2719
aF-1.3529
aa(lp96
F0.79110000000000003
aF-2.2743000000000002
aF-1.3529
aa(lp97
F0.78208
aF-2.27
aF-1.349
aa(lp98
F0.77668999999999999
aF-2.2736999999999998
aF-1.3500000000000001
aa(lp99
F0.76642999999999994
aF-2.2643
aF-1.3431
aa(lp100
F0.76082000000000005
aF-2.2698999999999998
aF-1.3451
aa(lp101
F0.75336999999999998
aF-2.2686999999999999
aF-1.3431
aa(lp102
F0.74856999999999996
aF-2.2795000000000001
aF-1.3480000000000001
aa(lp103
F0.74097999999999997
aF-2.2764000000000002
aF-1.3451
aa(lp104
F0.73407999999999995
aF-2.2768000000000002
aF-1.3441000000000001
aa(lp105
F0.72692999999999997
aF-2.2791000000000001
aF-1.3441000000000001
aa(lp106
F0.71701000000000004
aF-2.2713000000000001
aF-1.3382000000000001
aaa(lp107
(lp108
F0.92335
aF-2.0895999999999999
aF-1.3548
aa(lp109
F0.91335999999999995
aF-2.0827
aF-1.3487
aa(lp110
F0.90819000000000005
aF-2.0886999999999998
aF-1.3507
aa(lp111
F0.90198999999999996
aF-2.0914000000000001
aF-1.3507
aa(lp112
F0.89712999999999998
aF-2.0972
aF-1.3528
aa(lp113
F0.89127000000000001
aF-2.0996999999999999
aF-1.3528
aa(lp114
F0.88236999999999999
aF-2.0960000000000001
aF-1.3487
aa(lp115
F0.87687999999999999
aF-2.0983000000000001
aF-1.3487
aa(lp116
F0.87394000000000005
aF-2.1088
aF-1.3537999999999999
aa(lp117
F0.86572000000000005
aF-2.1067
aF-1.3507
aa(lp118
F0.85780000000000001
aF-2.1061999999999999
aF-1.3487
aa(lp119
F0.85357000000000005
aF-2.1116000000000001
aF-1.3507
aa(lp120
F0.84538000000000002
aF-2.1093000000000002
aF-1.3476999999999999
aa(lp121
F0.84011999999999998
aF-2.1133000000000002
aF-1.3487
aa(lp122
F0.83484999999999998
aF-2.1172
aF-1.3496999999999999
aa(lp123
F0.82982
aF-2.1229
aF-1.3516999999999999
aa(lp124
F0.82226999999999995
aF-2.1221000000000001
aF-1.3496999999999999
aa(lp125
F0.81572999999999996
aF-2.1227999999999998
aF-1.3487
aa(lp126
F0.80696999999999997
aF-2.1187999999999998
aF-1.3446
aa(lp127
F0.80432999999999999
aF-2.1307999999999998
aF-1.3507
aa(lp128
F0.80018
aF-2.1379000000000001
aF-1.3537999999999999
aa(lp129
F0.78927999999999998
aF-2.1291000000000002
aF-1.3466
aa(lp130
F0.78095999999999999
aF-2.1248999999999998
aF-1.3426
aa(lp131
F0.77817999999999998
aF-2.1368999999999998
aF-1.3487
aa(lp132
F0.77300000000000002
aF-2.1423999999999999
aF-1.3507
aa(lp133
F0.76680999999999999
aF-2.1427999999999998
aF-1.3496999999999999
aa(lp134
F0.75949999999999995
aF-2.1436000000000002
aF-1.3487
aa(lp135
F0.75522
aF-2.1505999999999998
aF-1.3516999999999999
aa(lp136
F0.74826999999999999
aF-2.1511999999999998
aF-1.3507
aa(lp137
F0.73965000000000003
aF-2.1469
aF-1.3466
aa(lp138
F0.73568999999999996
aF-2.1537000000000002
aF-1.3496999999999999
aa(lp139
F0.72911999999999999
aF-2.1541000000000001
aF-1.3487
aa(lp140
F0.72492000000000001
aF-2.1627999999999998
aF-1.3528
aa(lp141
F0.71562000000000003
aF-2.1549999999999998
aF-1.3466
aa(lp142
F0.70953999999999995
aF-2.1606000000000001
aF-1.3487
aa(lp143
F0.70548
aF-2.1674000000000002
aF-1.3516999999999999
aa(lp144
F0.69732000000000005
aF-2.1627999999999998
aF-1.3476999999999999
aa(lp145
F0.69155999999999995
aF-2.1682999999999999
aF-1.3496999999999999
aa(lp146
F0.68254000000000004
aF-2.1621000000000001
aF-1.3446
aaa.