(lp1
(lp2
(lp3
F5.7301000000000002
aF-5.8188000000000004
aF1.3416999999999999
aa(lp4
F5.6734
aF-5.7915000000000001
aF1.3320000000000001
aa(lp5
F5.6176000000000004
aF-5.7686999999999999
aF1.3229
aa(lp6
F5.5671999999999997
aF-5.7488999999999999
aF1.3148
aa(lp7
F5.5087000000000002
aF-5.7203999999999997
aF1.3047
aa(lp8
F5.4561999999999999
aF-5.6996000000000002
aF1.2963
aa(lp9
F5.3997999999999999
aF-5.6742999999999997
aF1.2868999999999999
aa(lp10
F5.3445999999999998
aF-5.6478000000000002
aF1.2775000000000001
aa(lp11
F5.2980999999999998
aF-5.6319999999999997
aF1.2704
aa(lp12
F5.2503000000000002
aF-5.6146000000000003
aF1.2628999999999999
aa(lp13
F5.1982999999999997
aF-5.5902000000000003
aF1.2542
aa(lp14
F5.1445999999999996
aF-5.5673000000000004
aF1.2454000000000001
aa(lp15
F5.0956000000000001
aF-5.5453999999999999
aF1.2373000000000001
aa(lp16
F5.0507999999999997
aF-5.5274999999999999
aF1.2302
aa(lp17
F5.0015999999999998
aF-5.5083000000000002
aF1.2223999999999999
aa(lp18
F4.9527999999999999
aF-5.4832999999999998
aF1.214
aa(lp19
F4.9092000000000002
aF-5.4694000000000003
aF1.2075
aa(lp20
F4.8676000000000004
aF-5.4537000000000004
aF1.2010000000000001
aa(lp21
F4.8159999999999998
aF-5.4282000000000004
aF1.1921999999999999
aa(lp22
F4.7737999999999996
aF-5.4128999999999996
aF1.1857
aa(lp23
F4.7274000000000003
aF-5.3906000000000001
aF1.1779999999999999
aa(lp24
F4.6825000000000001
aF-5.3696000000000002
aF1.1705000000000001
aa(lp25
F4.6359000000000004
aF-5.3498999999999999
aF1.1631
aa(lp26
F4.5960999999999999
aF-5.3322000000000003
aF1.1566000000000001
aa(lp27
F4.5537000000000001
aF-5.3166000000000002
aF1.1500999999999999
aa(lp28
F4.5033000000000003
aF-5.2895000000000003
aF1.1413
aa(lp29
F4.4713000000000003
aF-5.2778999999999998
aF1.1365000000000001
aa(lp30
F4.4291999999999998
aF-5.2617000000000003
aF1.1299999999999999
aa(lp31
F4.3879000000000001
aF-5.2423000000000002
aF1.1232
aa(lp32
F4.3509000000000002
aF-5.2294999999999998
aF1.1176999999999999
aa(lp33
F4.3124000000000002
aF-5.2127999999999997
aF1.1114999999999999
aa(lp34
F4.2706
aF-5.1935000000000002
aF1.1047
aa(lp35
F4.2260999999999997
aF-5.1688000000000001
aF1.0969
aa(lp36
F4.1894999999999998
aF-5.1551999999999998
aF1.0913999999999999
aa(lp37
F4.1531000000000002
aF-5.1414999999999997
aF1.0859000000000001
aa(lp38
F4.1153000000000004
aF-5.1238999999999999
aF1.0797000000000001
aa(lp39
F4.0807000000000002
aF-5.1135999999999999
aF1.0749
aa(lp40
F4.0419
aF-5.0941000000000001
aF1.0684
aa(lp41
F4.0044000000000004
aF-5.0758999999999999
aF1.0622
aa(lp42
F3.9662000000000002
aF-5.0583
aF1.0561
aa(lp43
F3.9350999999999998
aF-5.0475000000000003
aF1.0515000000000001
aa(lp44
F3.8986000000000001
aF-5.0334000000000003
aF1.046
aa(lp45
F3.8653
aF-5.0191999999999997
aF1.0407999999999999
aa(lp46
F3.8296999999999999
aF-5.0018000000000002
aF1.0349999999999999
aa(lp47
F3.7978000000000001
aF-4.9889000000000001
aF1.0301
aa(lp48
F3.7627000000000002
aF-4.9733999999999998
aF1.0246
aa(lp49
F3.7292999999999998
aF-4.9615
aF1.0197000000000001
aa(lp50
F3.6918000000000002
aF-4.9402999999999997
aF1.0133000000000001
aa(lp51
F3.6602999999999999
aF-4.9268000000000001
aF1.0084
aa(lp52
F3.6295999999999999
aF-4.9177
aF1.0042
aa(lp53
F3.5992000000000002
aF-4.9032999999999998
aF0.99931000000000003
aa(lp54
F3.5691999999999999
aF-4.891
aF0.99477000000000004
aa(lp55
F3.5341
aF-4.875
aF0.98926000000000003
aa(lp56
F3.5051999999999999
aF-4.8617999999999997
aF0.98472000000000004
aa(lp57
F3.4701
aF-4.8433000000000002
aF0.97887999999999997
aa(lp58
F3.4434
aF-4.8380999999999998
aF0.97563999999999995
aa(lp59
F3.4159000000000002
aF-4.8262
aF0.97143000000000002
aa(lp60
F3.3791000000000002
aF-4.8061999999999996
aF0.96526999999999996
aa(lp61
F3.3532999999999999
aF-4.7979000000000003
aF0.9617
aa(lp62
F3.3247
aF-4.7888999999999999
aF0.95781000000000005
aa(lp63
F3.2921999999999998
aF-4.7706
aF0.95230000000000004
aa(lp64
F3.2610000000000001
aF-4.7537000000000003
aF0.94711000000000001
aa(lp65
F3.2366000000000001
aF-4.7465000000000002
aF0.94386999999999999
aa(lp66
F3.2145000000000001
aF-4.7423999999999999
aF0.94127000000000005
aa(lp67
F3.1785999999999999
aF-4.7214
aF0.93511
aa(lp68
F3.1547000000000001
aF-4.7161
aF0.93218999999999996
aa(lp69
F3.1242999999999999
aF-4.7007000000000003
aF0.92732999999999999
aa(lp70
F3.0998000000000001
aF-4.6886000000000001
aF0.92344000000000004
aaa(lp71
(lp72
F5.6837999999999997
aF-5.8021000000000003
aF1.1415
aa(lp73
F5.6279000000000003
aF-5.7792000000000003
aF1.1336999999999999
aa(lp74
F5.5800000000000001
aF-5.7622
aF1.1273
aa(lp75
F5.5171999999999999
aF-5.7291999999999996
aF1.1177999999999999
aa(lp76
F5.4687000000000001
aF-5.7126999999999999
aF1.1113999999999999
aa(lp77
F5.4053000000000004
aF-5.6801000000000004
aF1.1020000000000001
aa(lp78
F5.3540000000000001
aF-5.6577000000000002
aF1.0947
aa(lp79
F5.306
aF-5.6403999999999996
aF1.0883
aa(lp80
F5.2553999999999998
aF-5.6200000000000001
aF1.0813999999999999
aa(lp81
F5.2005999999999997
aF-5.5926
aF1.0732999999999999
aa(lp82
F5.1520999999999999
aF-5.5754000000000001
aF1.0669
aa(lp83
F5.1043000000000003
aF-5.5548000000000002
aF1.0602
aa(lp84
F5.0567000000000002
aF-5.5339
aF1.0535000000000001
aa(lp85
F5.0046999999999997
aF-5.5117000000000003
aF1.0463
aa(lp86
F4.9637000000000002
aF-5.4954000000000001
aF1.0407
aa(lp87
F4.9132999999999996
aF-5.4741
aF1.0338000000000001
aa(lp88
F4.8716999999999997
aF-5.4581999999999997
aF1.0282
aa(lp89
F4.8212999999999999
aF-5.4340999999999999
aF1.0209999999999999
aa(lp90
F4.7789000000000001
aF-5.4187000000000003
aF1.0154000000000001
aa(lp91
F4.7363
aF-5.4008000000000003
aF1.0096000000000001
aa(lp92
F4.6965000000000003
aF-5.3856000000000002
aF1.0043
aa(lp93
F4.6509999999999998
aF-5.3673999999999999
aF0.99814999999999998
aa(lp94
F4.6085000000000003
aF-5.3465999999999996
aF0.99202999999999997
aa(lp95
F4.5633999999999997
aF-5.3278999999999996
aF0.9859
aa(lp96
F4.5141999999999998
aF-5.3022
aF0.97867000000000004
aa(lp97
F4.4729999999999999
aF-5.2800000000000002
aF0.97253999999999996
aa(lp98
F4.4321999999999999
aF-5.2652000000000001
aF0.96725000000000005
aa(lp99
F4.3920000000000003
aF-5.2472000000000003
aF0.96169000000000004
aa(lp100
F4.3536000000000001
aF-5.2328000000000001
aF0.95667999999999997
aa(lp101
F4.3150000000000004
aF-5.2160000000000002
aF0.95138999999999996
aa(lp102
F4.2769000000000004
aF-5.2012
aF0.94638
aa(lp103
F4.2385000000000002
aF-5.1840000000000002
aF0.94108999999999998
aa(lp104
F4.1993999999999998
aF-5.1673999999999998
aF0.93579999999999997
aa(lp105
F4.1604000000000001
aF-5.1505000000000001
aF0.93050999999999995
aa(lp106
F4.1162000000000001
aF-5.1250999999999998
aF0.92383000000000004
aa(lp107
F4.0877999999999997
aF-5.1224999999999996
aF0.92105000000000004
aa(lp108
F4.0499999999999998
aF-5.1044
aF0.91576000000000002
aa(lp109
F4.0076000000000001
aF-5.0799000000000003
aF0.90935999999999995
aa(lp110
F3.9777999999999998
aF-5.0731000000000002
aF0.90602000000000005
aa(lp111
F3.9417
aF-5.0560999999999998
aF0.90100999999999998
aa(lp112
F3.9028
aF-5.0387000000000004
aF0.89571999999999996
aa(lp113
F3.8706
aF-5.0259999999999998
aF0.89154
aa(lp114
F3.8395999999999999
aF-5.0148000000000001
aF0.88765000000000005
aa(lp115
F3.8028
aF-4.9954999999999998
aF0.88236000000000003
aa(lp116
F3.7736999999999998
aF-4.9878999999999998
aF0.87902000000000002
aa(lp117
F3.7317999999999998
aF-4.9649000000000001
aF0.87289000000000005
aa(lp118
F3.6978
aF-4.9482999999999997
aF0.86816000000000004
aa(lp119
F3.6697000000000002
aF-4.9394999999999998
aF0.86482000000000003
aa(lp120
F3.6366000000000001
aF-4.9271000000000003
aF0.86065000000000003
aa(lp121
F3.6013999999999999
aF-4.9062999999999999
aF0.85536000000000001
aa(lp122
F3.5748000000000002
aF-4.8986999999999998
aF0.85229999999999995
aa(lp123
F3.5419999999999998
aF-4.8859000000000004
aF0.84811999999999999
aa(lp124
F3.5106999999999999
aF-4.8693999999999997
aF0.84367000000000003
aa(lp125
F3.4823
aF-4.8605
aF0.84033000000000002
aa(lp126
F3.4510000000000001
aF-4.8487999999999998
aF0.83643000000000001
aa(lp127
F3.4188000000000001
aF-4.8304
aF0.83169999999999999
aa(lp128
F3.3887999999999998
aF-4.8200000000000003
aF0.82808000000000004
aa(lp129
F3.3572000000000002
aF-4.8034999999999997
aF0.82362999999999997
aa(lp130
F3.3273999999999999
aF-4.7929000000000004
aF0.82001000000000002
aa(lp131
F3.2993999999999999
aF-4.7809999999999997
aF0.81638999999999995
aa(lp132
F3.2715000000000001
aF-4.7689000000000004
aF0.81276999999999999
aa(lp133
F3.2458999999999998
aF-4.7599999999999998
aF0.80971000000000004
aa(lp134
F3.2147999999999999
aF-4.7427999999999999
aF0.80525999999999998
aa(lp135
F3.1833
aF-4.7282999999999999
aF0.80108000000000001
aa(lp136
F3.1593
aF-4.7229000000000001
aF0.79857999999999996
aa(lp137
F3.1309999999999998
aF-4.7107999999999999
aF0.79496
aa(lp138
F3.1063999999999998
aF-4.6985999999999999
aF0.79161999999999999
aaa(lp139
(lp140
F5.6814
aF-5.7995999999999999
aF0.94942000000000004
aa(lp141
F5.6238999999999999
aF-5.7751000000000001
aF0.94267999999999996
aa(lp142
F5.5690999999999997
aF-5.7508999999999997
aF0.93616999999999995
aa(lp143
F5.5171999999999999
aF-5.7291999999999996
aF0.93013000000000001
aa(lp144
F5.4617000000000004
aF-5.7054
aF0.92362999999999995
aa(lp145
F5.4090999999999996
aF-5.6840999999999999
aF0.91759000000000002
aa(lp146
F5.3577000000000004
aF-5.6616999999999997
aF0.91154999999999997
aa(lp147
F5.3041999999999998
aF-5.6384999999999996
aF0.90527999999999997
aa(lp148
F5.2493999999999996
aF-5.6135999999999999
aF0.89876999999999996
aa(lp149
F5.2039999999999997
aF-5.5961999999999996
aF0.89366000000000001
aa(lp150
F5.1513
aF-5.5746000000000002
aF0.88761999999999996
aa(lp151
F5.1048
aF-5.5552999999999999
aF0.88227999999999995
aa(lp152
F5.0544000000000002
aF-5.5313999999999997
aF0.87624000000000002
aa(lp153
F5.0076999999999998
aF-5.5148999999999999
aF0.87112999999999996
aa(lp154
F4.9585999999999997
aF-5.4897
aF0.86509000000000003
aa(lp155
F4.9108000000000001
aF-5.4711999999999996
aF0.85975000000000001
aa(lp156
F4.8663999999999996
aF-5.4523000000000001
aF0.85463999999999996
aa(lp157
F4.8250999999999999
aF-5.4385000000000003
aF0.85021999999999998
aa(lp158
F4.7788000000000004
aF-5.4184999999999999
aF0.84487999999999996
aa(lp159
F4.7335000000000003
aF-5.3975
aF0.83953999999999995
aa(lp160
F4.6923000000000004
aF-5.3807999999999998
aF0.83489000000000002
aa(lp161
F4.6440999999999999
aF-5.3594999999999997
aF0.82931999999999995
aa(lp162
F4.6002999999999998
aF-5.3369999999999997
aF0.82396999999999998
aa(lp163
F4.5589000000000004
aF-5.3227000000000002
aF0.81955999999999996
aa(lp164
F4.5160999999999998
aF-5.3045
aF0.81467999999999996
aa(lp165
F4.4786999999999999
aF-5.2866999999999997
aF0.81027000000000005
aa(lp166
F4.4352
aF-5.2687999999999997
aF0.80539000000000005
aa(lp167
F4.3898999999999999
aF-5.2446000000000002
aF0.79981000000000002
aa(lp168
F4.3489000000000004
aF-5.2271000000000001
aF0.79517000000000004
aa(lp169
F4.3114999999999997
aF-5.2117000000000004
aF0.79098999999999997
aa(lp170
F4.2708000000000004
aF-5.1938000000000004
aF0.78634000000000004
aa(lp171
F4.2398999999999996
aF-5.1856999999999998
aF0.78332000000000002
aa(lp172
F4.2019000000000002
aF-5.1704999999999997
aF0.77914000000000005
aa(lp173
F4.1628999999999996
aF-5.1536
aF0.77473000000000003
aa(lp174
F4.1247999999999996
aF-5.1356999999999999
aF0.77031000000000005
aa(lp175
F4.0876000000000001
aF-5.1223000000000001
aF0.76636000000000004
aa(lp176
F4.0510999999999999
aF-5.1056999999999997
aF0.76217999999999997
aa(lp177
F4.0195999999999996
aF-5.0951000000000004
aF0.75892999999999999
aa(lp178
F3.9799000000000002
aF-5.0758000000000001
aF0.75427999999999995
aa(lp179
F3.9424999999999999
aF-5.0571000000000002
aF0.74987000000000004
aa(lp180
F3.9022999999999999
aF-5.0380000000000003
aF0.74521999999999999
aa(lp181
F3.8723999999999998
aF-5.0285000000000002
aF0.74219999999999997
aa(lp182
F3.8378999999999999
aF-5.0124000000000004
aF0.73824999999999996
aa(lp183
F3.8046000000000002
aF-4.9978999999999996
aF0.73453999999999997
aa(lp184
F3.7717999999999998
aF-4.9854000000000003
aF0.73104999999999998
aa(lp185
F3.7370000000000001
aF-4.9718
aF0.72733999999999999
aa(lp186
F3.7004999999999999
aF-4.952
aF0.72292000000000001
aa(lp187
F3.6713
aF-4.9414999999999996
aF0.71989999999999998
aa(lp188
F3.6368
aF-4.9275000000000002
aF0.71618999999999999
aa(lp189
F3.6038999999999999
aF-4.9097999999999997
aF0.71223999999999998
aa(lp190
F3.5737999999999999
aF-4.8973000000000004
aF0.70898000000000005
aa(lp191
F3.5455999999999999
aF-4.8909000000000002
aF0.70643
aa(lp192
F3.5165000000000002
aF-4.8776000000000002
aF0.70318000000000003
aa(lp193
F3.4811999999999999
aF-4.8589000000000002
aF0.69899
aa(lp194
F3.4521000000000002
aF-4.8503999999999996
aF0.69621
aa(lp195
F3.4199000000000002
aF-4.8319000000000001
aF0.69225999999999999
aa(lp196
F3.3898000000000001
aF-4.8213999999999997
aF0.68923999999999996
aa(lp197
F3.3603999999999998
aF-4.8080999999999996
aF0.68598999999999999
aa(lp198
F3.3328000000000002
aF-4.8007
aF0.68342999999999998
aa(lp199
F3.3001999999999998
aF-4.7821999999999996
aF0.67947999999999997
aa(lp200
F3.2711000000000001
aF-4.7683999999999997
aF0.67623
aa(lp201
F3.2454999999999998
aF-4.7595000000000001
aF0.67366999999999999
aa(lp202
F3.2187999999999999
aF-4.7488000000000001
aF0.67088999999999999
aa(lp203
F3.1861000000000002
aF-4.7324999999999999
aF0.66717000000000004
aa(lp204
F3.1587999999999998
aF-4.7222
aF0.66437999999999997
aa(lp205
F3.1349
aF-4.7165999999999997
aF0.66229000000000005
aa(lp206
F3.1069
aF-4.6993999999999998
aF0.65881000000000001
aaa(lp207
(lp208
F5.6828000000000003
aF-5.8010999999999999
aF0.75763000000000003
aa(lp209
F5.6294000000000004
aF-5.7808000000000002
aF0.75280000000000002
aa(lp210
F5.5800000000000001
aF-5.7622
aF0.74834000000000001
aa(lp211
F5.5210999999999997
aF-5.7332999999999998
aF0.74258000000000002
aa(lp212
F5.4710000000000001
aF-5.7150999999999996
aF0.73812
aa(lp213
F5.4115000000000002
aF-5.6866000000000003
aF0.73236000000000001
aa(lp214
F5.3654999999999999
aF-5.6698000000000004
aF0.72826999999999997
aa(lp215
F5.3144999999999998
aF-5.6494999999999997
aF0.72363
aa(lp216
F5.2583000000000002
aF-5.6230000000000002
aF0.71823999999999999
aa(lp217
F5.21
aF-5.6026999999999996
aF0.71377999999999997
aa(lp218
F5.1558999999999999
aF-5.5796000000000001
aF0.70877000000000001
aa(lp219
F5.1132999999999997
aF-5.5646000000000004
aF0.70504999999999995
aa(lp220
F5.0602
aF-5.5377000000000001
aF0.69984999999999997
aa(lp221
F5.0145999999999997
aF-5.5225999999999997
aF0.69594999999999996
aa(lp222
F4.9695
aF-5.5016999999999996
aF0.69167000000000001
aa(lp223
F4.9229000000000003
aF-5.4847000000000001
aF0.68759000000000003
aa(lp224
F4.8743999999999996
aF-5.4612999999999996
aF0.68293999999999999
aa(lp225
F4.8316999999999997
aF-5.4459
aF0.67923
aa(lp226
F4.7826000000000004
aF-5.4229000000000003
aF0.67457999999999996
aa(lp227
F4.7359999999999998
aF-5.4002999999999997
aF0.67012000000000005
aa(lp228
F4.6959999999999997
aF-5.3849999999999998
aF0.66659000000000002
aa(lp229
F4.6490999999999998
aF-5.3651
aF0.66232000000000002
aa(lp230
F4.6077000000000004
aF-5.3456000000000001
aF0.65842000000000001
aa(lp231
F4.5610999999999997
aF-5.3253000000000004
aF0.65415000000000001
aa(lp232
F4.5206999999999997
aF-5.3099999999999996
aF0.65061999999999998
aa(lp233
F4.4806999999999997
aF-5.2891000000000004
aF0.64671000000000001
aa(lp234
F4.4383999999999997
aF-5.2727000000000004
aF0.64300000000000002
aa(lp235
F4.3994
aF-5.2560000000000002
aF0.63946999999999998
aa(lp236
F4.3570000000000002
aF-5.2369000000000003
aF0.63556999999999997
aa(lp237
F4.3234000000000004
aF-5.226
aF0.63278000000000001
aa(lp238
F4.2774999999999999
aF-5.2019000000000002
aF0.62831999999999999
aa(lp239
F4.2415000000000003
aF-5.1875999999999998
aF0.62516000000000005
aa(lp240
F4.2022000000000004
aF-5.1707999999999998
aF0.62163000000000002
aa(lp241
F4.1642999999999999
aF-5.1554000000000002
aF0.61829000000000001
aa(lp242
F4.1275000000000004
aF-5.1391
aF0.61494000000000004
aa(lp243
F4.0865
aF-5.1208999999999998
aF0.61123000000000005
aa(lp244
F4.0523999999999996
aF-5.1073000000000004
aF0.60826000000000002
aa(lp245
F4.0133999999999999
aF-5.0872999999999999
aF0.60453999999999997
aa(lp246
F3.9773999999999998
aF-5.0726000000000004
aF0.60138000000000003
aa(lp247
F3.9424000000000001
aF-5.0570000000000004
aF0.59821999999999997
aa(lp248
F3.9106999999999998
aF-5.0488999999999997
aF0.59580999999999995
aa(lp249
F3.8698000000000001
aF-5.0251000000000001
aF0.59172000000000002
aa(lp250
F3.8363999999999998
aF-5.0106000000000002
aF0.58875
aa(lp251
F3.8090999999999999
aF-5.0038
aF0.58670999999999995
aa(lp252
F3.7713999999999999
aF-4.9848999999999997
aF0.58318000000000003
aa(lp253
F3.7366000000000001
aF-4.9713000000000003
aF0.58020000000000005
aa(lp254
F3.706
aF-4.9593999999999996
aF0.5776
aa(lp255
F3.6707999999999998
aF-4.9409000000000001
aF0.57425999999999999
aa(lp256
F3.6328
aF-4.9219999999999997
aF0.57072999999999996
aa(lp257
F3.6093000000000002
aF-4.9169999999999998
aF0.56906000000000001
aa(lp258
F3.5756000000000001
aF-4.8997000000000002
aF0.56589999999999996
aa(lp259
F3.5415000000000001
aF-4.8852000000000002
aF0.56293000000000004
aa(lp260
F3.5135000000000001
aF-4.8734000000000002
aF0.56050999999999995
aa(lp261
F3.4817
aF-4.8594999999999997
aF0.55771999999999999
aa(lp262
F3.4479000000000002
aF-4.8445
aF0.55474999999999997
aa(lp263
F3.4224999999999999
aF-4.8356000000000003
aF0.55271000000000003
aa(lp264
F3.3913000000000002
aF-4.8235000000000001
aF0.55010999999999999
aa(lp265
F3.3607
aF-4.8085000000000004
aF0.54732000000000003
aa(lp266
F3.3308
aF-4.7977999999999996
aF0.54490000000000005
aa(lp267
F3.3037999999999998
aF-4.7873999999999999
aF0.54266999999999999
aa(lp268
F3.2757999999999998
aF-4.7752999999999997
aF0.54025999999999996
aa(lp269
F3.2467999999999999
aF-4.7613000000000003
aF0.53766000000000003
aa(lp270
F3.2200000000000002
aF-4.7506000000000004
aF0.53542999999999996
aa(lp271
F3.1861999999999999
aF-4.7325999999999997
aF0.53227000000000002
aa(lp272
F3.1633
aF-4.7287999999999997
aF0.53078000000000003
aa(lp273
F3.1282999999999999
aF-4.7066999999999997
aF0.52725
aa(lp274
F3.1057999999999999
aF-4.6977000000000002
aF0.52539999999999998
aaa(lp275
(lp276
F5.6879999999999997
aF-5.8063000000000002
aF0.56838
aa(lp277
F5.6289999999999996
aF-5.7803000000000004
aF0.56418999999999997
aa(lp278
F5.5753000000000004
aF-5.7572999999999999
aF0.56042000000000003
aa(lp279
F5.5190999999999999
aF-5.7312000000000003
aF0.55637999999999999
aa(lp280
F5.4676
aF-5.7115
aF0.55288999999999999
aa(lp281
F5.4066000000000001
aF-5.6814999999999998
aF0.54842999999999997
aa(lp282
F5.3536999999999999
aF-5.6574
aF0.54466000000000003
aa(lp283
F5.3041
aF-5.6383999999999999
aF0.54130999999999996
aa(lp284
F5.2519
aF-5.6162000000000001
aF0.53768000000000005
aa(lp285
F5.2049000000000003
aF-5.5972999999999997
aF0.53447
aa(lp286
F5.1481000000000003
aF-5.5711000000000004
aF0.53042999999999996
aa(lp287
F5.1055000000000001
aF-5.5560999999999998
aF0.52764
aa(lp288
F5.0590000000000002
aF-5.5364000000000004
aF0.52442999999999995
aa(lp289
F5.0094000000000003
aF-5.5167999999999999
aF0.52107999999999999
aa(lp290
F4.9588000000000001
aF-5.4900000000000002
aF0.51731000000000005
aa(lp291
F4.9161999999999999
aF-5.4772999999999996
aF0.51466000000000001
aa(lp292
F4.8704000000000001
aF-5.4568000000000003
aF0.51144999999999996
aa(lp293
F4.8262999999999998
aF-5.4398999999999997
aF0.50851999999999997
aa(lp294
F4.7797999999999998
aF-5.4196999999999997
aF0.50531999999999999
aa(lp295
F4.7397
aF-5.4046000000000003
aF0.50266999999999995
aa(lp296
F4.6931000000000003
aF-5.3817000000000004
aF0.49931999999999999
aa(lp297
F4.6421999999999999
aF-5.3571999999999997
aF0.49569000000000002
aa(lp298
F4.6047000000000002
aF-5.3421000000000003
aF0.49318000000000001
aa(lp299
F4.5579999999999998
aF-5.3216999999999999
aF0.48997000000000002
aa(lp300
F4.5137999999999998
aF-5.3018000000000001
aF0.4869
aa(lp301
F4.4724000000000004
aF-5.2793000000000001
aF0.48382999999999998
aa(lp302
F4.4314
aF-5.2643000000000004
aF0.48118
aa(lp303
F4.3962000000000003
aF-5.2522000000000002
aF0.47894999999999999
aa(lp304
F4.3487
aF-5.2268999999999997
aF0.47545999999999999
aa(lp305
F4.3150000000000004
aF-5.2160000000000002
aF0.47337000000000001
aa(lp306
F4.2728999999999999
aF-5.1963999999999997
aF0.47044000000000002
aa(lp307
F4.2356999999999996
aF-5.1805000000000003
aF0.46793000000000001
aa(lp308
F4.1963999999999997
aF-5.1635999999999997
aF0.46528000000000003
aa(lp309
F4.1585000000000001
aF-5.1481000000000003
aF0.46276
aa(lp310
F4.1203000000000003
aF-5.1300999999999997
aF0.46011000000000002
aa(lp311
F4.0830000000000002
aF-5.1166
aF0.45773999999999998
aa(lp312
F4.0500999999999996
aF-5.1044999999999998
aF0.45565
aa(lp313
F4.0124000000000004
aF-5.0860000000000003
aF0.45300000000000001
aa(lp314
F3.9775999999999998
aF-5.0728
aF0.45077
aa(lp315
F3.9413
aF-5.0556000000000001
aF0.44825999999999999
aa(lp316
F3.9009999999999998
aF-5.0364000000000004
aF0.44546000000000002
aa(lp317
F3.8723000000000001
aF-5.0282999999999998
aF0.44379000000000002
aa(lp318
F3.8399999999999999
aF-5.0152999999999999
aF0.44169999999999998
aa(lp319
F3.8006000000000002
aF-4.9927000000000001
aF0.43876999999999999
aa(lp320
F3.7702
aF-4.9832000000000001
aF0.43695000000000001
aa(lp321
F3.7328999999999999
aF-4.9664000000000001
aF0.43443999999999999
aa(lp322
F3.7010999999999998
aF-4.9527999999999999
aF0.43235000000000001
aa(lp323
F3.6705999999999999
aF-4.9406999999999996
aF0.4304
aa(lp324
F3.6373000000000002
aF-4.9280999999999997
aF0.42830000000000001
aa(lp325
F3.6019999999999999
aF-4.9070999999999998
aF0.42564999999999997
aa(lp326
F3.5718000000000001
aF-4.8944999999999999
aF0.42370000000000002
aa(lp327
F3.54
aF-4.8830999999999998
aF0.42175000000000001
aa(lp328
F3.5097
aF-4.8681000000000001
aF0.41965000000000002
aa(lp329
F3.4801000000000002
aF-4.8574000000000002
aF0.41783999999999999
aa(lp330
F3.4485999999999999
aF-4.8455000000000004
aF0.41588999999999998
aa(lp331
F3.4186999999999999
aF-4.8300999999999998
aF0.4138
aa(lp332
F3.3851
aF-4.8147000000000002
aF0.41155999999999998
aa(lp333
F3.3591000000000002
aF-4.8061999999999996
aF0.41003000000000001
aa(lp334
F3.3269000000000002
aF-4.7920999999999996
aF0.40794000000000002
aa(lp335
F3.2953999999999999
aF-4.7751000000000001
aF0.40570000000000001
aa(lp336
F3.2685
aF-4.7645999999999997
aF0.40403
aa(lp337
F3.2427999999999999
aF-4.7554999999999996
aF0.40249000000000001
aa(lp338
F3.2126999999999999
aF-4.7397999999999998
aF0.40039999999999998
aa(lp339
F3.1833
aF-4.7283999999999997
aF0.39859
aa(lp340
F3.1549
aF-4.7161999999999997
aF0.39677000000000001
aa(lp341
F3.1276000000000002
aF-4.7055999999999996
aF0.39510000000000001
aa(lp342
F3.1017999999999999
aF-4.6916000000000002
aF0.39328999999999997
aaa(lp343
(lp344
F5.6802999999999999
aF-5.7984999999999998
aF0.37853999999999999
aa(lp345
F5.6227
aF-5.7737999999999996
aF0.37584000000000001
aa(lp346
F5.5717999999999996
aF-5.7535999999999996
aF0.37351000000000001
aa(lp347
F5.5155000000000003
aF-5.7274000000000003
aF0.37080000000000002
aa(lp348
F5.4625000000000004
aF-5.7062999999999997
aF0.36837999999999999
aa(lp349
F5.4057000000000004
aF-5.6805000000000003
aF0.36568000000000001
aa(lp350
F5.3540999999999999
aF-5.6577999999999999
aF0.36326000000000003
aa(lp351
F5.3044000000000002
aF-5.6387
aF0.36102000000000001
aa(lp352
F5.2507999999999999
aF-5.6151
aF0.35851
aa(lp353
F5.2038000000000002
aF-5.5960999999999999
aF0.35636000000000001
aa(lp354
F5.1536999999999997
aF-5.5772000000000004
aF0.35413
aa(lp355
F5.1016000000000004
aF-5.5518000000000001
aF0.35160999999999998
aa(lp356
F5.0603999999999996
aF-5.5380000000000003
aF0.34983999999999998
aa(lp357
F5.0026999999999999
aF-5.5095000000000001
aF0.34705000000000003
aa(lp358
F4.9602000000000004
aF-5.4915000000000003
aF0.34509000000000001
aa(lp359
F4.9122000000000003
aF-5.4728000000000003
aF0.34294999999999998
aa(lp360
F4.8689999999999998
aF-5.4551999999999996
aF0.34099000000000002
aa(lp361
F4.8235999999999999
aF-5.4367999999999999
aF0.33894000000000002
aa(lp362
F4.7862999999999998
aF-5.4271000000000003
aF0.33745000000000003
aa(lp363
F4.7355
aF-5.3998999999999997
aF0.33493000000000001
aa(lp364
F4.6928999999999998
aF-5.3814000000000002
aF0.33298
aa(lp365
F4.6471999999999998
aF-5.3628999999999998
aF0.33093
aa(lp366
F4.6044
aF-5.3418000000000001
aF0.32888000000000001
aa(lp367
F4.5576999999999996
aF-5.3212999999999999
aF0.32673999999999997
aa(lp368
F4.5107999999999997
aF-5.2983000000000002
aF0.32450000000000001
aa(lp369
F4.4771999999999998
aF-5.2849000000000004
aF0.32301000000000002
aa(lp370
F4.4297000000000004
aF-5.2622999999999998
aF0.32077
aa(lp371
F4.3932000000000002
aF-5.2485999999999997
aF0.31918999999999997
aa(lp372
F4.3571999999999997
aF-5.2370000000000001
aF0.31769999999999998
aa(lp373
F4.3170000000000002
aF-5.2183999999999999
aF0.31584000000000001
aa(lp374
F4.2800000000000002
aF-5.2050000000000001
aF0.31424999999999997
aa(lp375
F4.2439
aF-5.1905999999999999
aF0.31267
aa(lp376
F4.1994999999999996
aF-5.1675000000000004
aF0.31052999999999997
aa(lp377
F4.1627999999999998
aF-5.1535000000000002
aF0.30893999999999999
aa(lp378
F4.1170999999999998
aF-5.1261999999999999
aF0.30660999999999999
aa(lp379
F4.0835999999999997
aF-5.1172000000000004
aF0.30531000000000003
aa(lp380
F4.0494000000000003
aF-5.1036000000000001
aF0.30381999999999998
aa(lp381
F4.0079000000000002
aF-5.0804
aF0.30176999999999998
aa(lp382
F3.9780000000000002
aF-5.0734000000000004
aF0.30064999999999997
aa(lp383
F3.9430000000000001
aF-5.0576999999999996
aF0.29907
aa(lp384
F3.9026000000000001
aF-5.0384000000000002
aF0.29720000000000002
aa(lp385
F3.8714
aF-5.0271999999999997
aF0.2959
aa(lp386
F3.8403999999999998
aF-5.0156999999999998
aF0.29459000000000002
aa(lp387
F3.8022
aF-4.9946999999999999
aF0.29272999999999999
aa(lp388
F3.7679999999999998
aF-4.9804000000000004
aF0.29124
aa(lp389
F3.7355999999999998
aF-4.9699
aF0.28993999999999998
aa(lp390
F3.6930000000000001
aF-4.9419000000000004
aF0.28770000000000001
aa(lp391
F3.6707999999999998
aF-4.9409999999999998
aF0.28705000000000003
aa(lp392
F3.6375000000000002
aF-4.9283000000000001
aF0.28565000000000002
aa(lp393
F3.5985999999999998
aF-4.9024000000000001
aF0.28360000000000002
aa(lp394
F3.5718999999999999
aF-4.8947000000000003
aF0.28258
aa(lp395
F3.5400999999999998
aF-4.8833000000000002
aF0.28127000000000002
aa(lp396
F3.5133000000000001
aF-4.8731
aF0.28015000000000001
aa(lp397
F3.4777999999999998
aF-4.8541999999999996
aF0.27848000000000001
aa(lp398
F3.4498000000000002
aF-4.8472
aF0.27744999999999997
aa(lp399
F3.4163999999999999
aF-4.8269000000000002
aF0.27577000000000002
aa(lp400
F3.3816000000000002
aF-4.8098000000000001
aF0.27418999999999999
aa(lp401
F3.3578999999999999
aF-4.8045
aF0.27334999999999998
aa(lp402
F3.3313999999999999
aF-4.7986000000000004
aF0.27242
aa(lp403
F3.3020999999999998
aF-4.7849000000000004
aF0.27112000000000003
aa(lp404
F3.2650000000000001
aF-4.7595000000000001
aF0.26916000000000001
aa(lp405
F3.2427000000000001
aF-4.7553999999999998
aF0.26840999999999998
aa(lp406
F3.2170999999999998
aF-4.7462
aF0.26739000000000002
aa(lp407
F3.1865000000000001
aF-4.7331000000000003
aF0.26607999999999998
aa(lp408
F3.1591
aF-4.7225999999999999
aF0.26496999999999998
aa(lp409
F3.1307
aF-4.7103000000000002
aF0.26375999999999999
aa(lp410
F3.1049000000000002
aF-4.6962999999999999
aF0.26254
aa(lp411
F3.0583
aF-4.6576000000000004
aF0.25984000000000002
aa(lp412
F2.9988000000000001
aF-4.6249000000000002
aF0.25705
aa(lp413
F2.9659
aF-4.6341999999999999
aF0.25657999999999997
aa(lp414
F2.9344999999999999
aF-4.6116000000000001
aF0.25490000000000002
aa(lp415
F2.9127999999999998
aF-4.6111000000000004
aF0.25435000000000002
aa(lp416
F2.8858000000000001
aF-4.5951000000000004
aF0.25303999999999999
aa(lp417
F2.8647999999999998
aF-4.5917000000000003
aF0.25239
aa(lp418
F2.8363999999999998
aF-4.5763999999999996
aF0.25108000000000003
aa(lp419
F2.8117999999999999
aF-4.5633999999999997
aF0.24997
aa(lp420
F2.786
aF-4.5534999999999997
aF0.24893999999999999
aa(lp421
F2.7639999999999998
aF-4.5458999999999996
aF0.24809999999999999
aa(lp422
F2.7414000000000001
aF-4.5408999999999997
aF0.24736
aa(lp423
F2.7151000000000001
aF-4.5240999999999998
aF0.24604999999999999
aa(lp424
F2.6894
aF-4.5114999999999998
aF0.24493999999999999
aa(lp425
F2.6640000000000001
aF-4.5010000000000003
aF0.24390999999999999
aa(lp426
F2.6478999999999999
aF-4.4988999999999999
aF0.24343999999999999
aa(lp427
F2.6196999999999999
aF-4.4831000000000003
aF0.24213999999999999
aa(lp428
F2.5960999999999999
aF-4.4714
aF0.24112
aa(lp429
F2.5741000000000001
aF-4.4656000000000002
aF0.24037
aa(lp430
F2.5478999999999998
aF-4.4507000000000003
aF0.23916000000000001
aa(lp431
F2.5286
aF-4.4457000000000004
aF0.23851
aa(lp432
F2.5051000000000001
aF-4.4314
aF0.23738999999999999
aa(lp433
F2.4859
aF-4.4261999999999997
aF0.23674000000000001
aa(lp434
F2.4632000000000001
aF-4.4183000000000003
aF0.2359
aa(lp435
F2.4430999999999998
aF-4.4111000000000002
aF0.23515
aa(lp436
F2.4211999999999998
aF-4.4004000000000003
aF0.23422000000000001
aa(lp437
F2.3997000000000002
aF-4.3940000000000001
aF0.23347999999999999
aa(lp438
F2.375
aF-4.3779000000000003
aF0.23225999999999999
aa(lp439
F2.3544
aF-4.3708
aF0.23152
aa(lp440
F2.3365999999999998
aF-4.3667999999999996
aF0.23096
aa(lp441
F2.3134999999999999
aF-4.3564999999999996
aF0.23003000000000001
aa(lp442
F2.2881999999999998
aF-4.3381999999999996
aF0.22872000000000001
aa(lp443
F2.2696000000000001
aF-4.3322000000000003
aF0.22806999999999999
aa(lp444
F2.2492000000000001
aF-4.3224999999999998
aF0.22722999999999999
aa(lp445
F2.23
aF-4.3167999999999997
aF0.22658
aaa(lp446
(lp447
F5.6383999999999999
aF-5.79
aF0.18764
aa(lp448
F5.5833000000000004
aF-5.7655000000000003
aF0.18634000000000001
aa(lp449
F5.5366
aF-5.7493999999999996
aF0.18531
aa(lp450
F5.4739000000000004
aF-5.7180999999999997
aF0.18378
aa(lp451
F5.4252000000000002
aF-5.7009999999999996
aF0.18271999999999999
aa(lp452
F5.3693999999999997
aF-5.6741000000000001
aF0.18137
aa(lp453
F5.3182999999999998
aF-5.6535000000000002
aF0.18021000000000001
aa(lp454
F5.2714999999999996
aF-5.6372
aF0.17918999999999999
aa(lp455
F5.2161999999999997
aF-5.6093999999999999
aF0.17784
aa(lp456
F5.1646999999999998
aF-5.5891000000000002
aF0.17668
aa(lp457
F5.1219999999999999
aF-5.5739999999999998
aF0.17574999999999999
aa(lp458
F5.0700000000000003
aF-5.5484
aF0.17449999999999999
aa(lp459
F5.0216000000000003
aF-5.5303000000000004
aF0.17343
aa(lp460
F4.9736000000000002
aF-5.5063000000000004
aF0.17227000000000001
aa(lp461
F4.9268999999999998
aF-5.4892000000000003
aF0.17125000000000001
aa(lp462
F4.8808999999999996
aF-5.4686000000000003
aF0.17018
aa(lp463
F4.8354999999999997
aF-5.4501999999999997
aF0.16916
aa(lp464
F4.7901999999999996
aF-5.4314999999999998
aF0.16814000000000001
aa(lp465
F4.7485999999999997
aF-5.4147999999999996
aF0.16721
aa(lp466
F4.6980000000000004
aF-5.3872999999999998
aF0.16596
aa(lp467
F4.6548999999999996
aF-5.3719000000000001
aF0.16503000000000001
aa(lp468
F4.6147
aF-5.3536999999999999
aF0.1641
aa(lp469
F4.5717999999999996
aF-5.3377999999999997
aF0.16317000000000001
aa(lp470
F4.5288000000000004
aF-5.3193999999999999
aF0.16220000000000001
aa(lp471
F4.4885999999999999
aF-5.2984
aF0.16122
aa(lp472
F4.4448999999999996
aF-5.2804000000000002
aF0.16025
aa(lp473
F4.4058000000000002
aF-5.2636000000000003
aF0.15937000000000001
aa(lp474
F4.3696999999999999
aF-5.2521000000000004
aF0.15862000000000001
aa(lp475
F4.3269000000000002
aF-5.2304000000000004
aF0.15759999999999999
aa(lp476
F4.2859999999999996
aF-5.2122999999999999
aF0.15667
aa(lp477
F4.2461000000000002
aF-5.1932999999999998
aF0.15573999999999999
aa(lp478
F4.2066999999999997
aF-5.1764000000000001
aF0.15486
aa(lp479
F4.1675000000000004
aF-5.1593
aF0.15398000000000001
aa(lp480
F4.1342999999999996
aF-5.1475
aF0.15328
aa(lp481
F4.0956000000000001
aF-5.1323999999999996
aF0.15245
aa(lp482
F4.0564
aF-5.1124000000000001
aF0.15151999999999999
aa(lp483
F4.0247999999999999
aF-5.1017999999999999
aF0.15087
aa(lp484
F3.9874000000000001
aF-5.0853999999999999
aF0.15003
aa(lp485
F3.9523000000000001
aF-5.0697000000000001
aF0.14924999999999999
aa(lp486
F3.9119000000000002
aF-5.0505000000000004
aF0.14832000000000001
aa(lp487
F3.8795000000000002
aF-5.0376000000000003
aF0.14762
aa(lp488
F3.8447
aF-5.0213999999999999
aF0.14682999999999999
aa(lp489
F3.8125
aF-5.0083000000000002
aF0.14613999999999999
aa(lp490
F3.7783000000000002
aF-4.9941000000000004
aF0.14538999999999999
aa(lp491
F3.7410000000000001
aF-4.9771000000000001
aF0.14455999999999999
aa(lp492
F3.7103000000000002
aF-4.9650999999999996
aF0.14391000000000001
aa(lp493
F3.6785999999999999
aF-4.9513999999999996
aF0.14321
aa(lp494
F3.6488
aF-4.9436
aF0.14265
aa(lp495
F3.6145
aF-4.9241999999999999
aF0.14182
aa(lp496
F3.5794999999999999
aF-4.9051999999999998
aF0.14097999999999999
aa(lp497
F3.5512000000000001
aF-4.8986000000000001
aF0.14047000000000001
aa(lp498
F3.5185
aF-4.8803000000000001
aF0.13968
aa(lp499
F3.4887999999999999
aF-4.8696000000000002
aF0.13908000000000001
aa(lp500
F3.4561000000000002
aF-4.8560999999999996
aF0.13838
aa(lp501
F3.4295
aF-4.8455000000000004
aF0.13783000000000001
aa(lp502
F3.3936000000000002
aF-4.8268000000000004
aF0.13699
aa(lp503
F3.3687
aF-4.8198999999999996
aF0.13653000000000001
aa(lp504
F3.3386999999999998
aF-4.8090999999999999
aF0.13592000000000001
aa(lp505
F3.3092999999999999
aF-4.7953999999999999
aF0.13527
aa(lp506
F3.2801
aF-4.7815000000000003
aF0.13461999999999999
aa(lp507
F3.2509999999999999
aF-4.7675000000000001
aF0.13397000000000001
aa(lp508
F3.2263999999999999
aF-4.7599999999999998
aF0.13350999999999999
aa(lp509
F3.1924999999999999
aF-4.7419000000000002
aF0.13272
aa(lp510
F3.1661999999999999
aF-4.7331000000000003
aF0.13220999999999999
aa(lp511
F3.1343999999999999
aF-4.7157999999999998
aF0.13147
aa(lp512
F3.1107
aF-4.7050999999999998
aF0.13095999999999999
aa(lp513
F3.0541999999999998
aF-4.6513999999999998
aF0.12919
aa(lp514
F3.0055999999999998
aF-4.6353
aF0.12826000000000001
aa(lp515
F2.9862000000000002
aF-4.6336000000000004
aF0.12798000000000001
aa(lp516
F2.9693999999999998
aF-4.6395999999999997
aF0.12789
aa(lp517
F2.9498000000000002
aF-4.6356000000000002
aF0.12756999999999999
aa(lp518
F2.9205000000000001
aF-4.6234000000000002
aF0.12695999999999999
aa(lp519
F2.8923999999999999
aF-4.6055999999999999
aF0.12626999999999999
aa(lp520
F2.8702999999999999
aF-4.6006
aF0.12590000000000001
aa(lp521
F2.8450000000000002
aF-4.5903999999999998
aF0.12537999999999999
aa(lp522
F2.8214999999999999
aF-4.5791000000000004
aF0.12486999999999999
aa(lp523
F2.7925
aF-4.5640999999999998
aF0.12422
aa(lp524
F2.7704
aF-4.5564999999999998
aF0.12381
aa(lp525
F2.7435999999999998
aF-4.5446
aF0.12325
aa(lp526
F2.7204000000000002
aF-4.5328999999999997
aF0.12274
aa(lp527
F2.6977000000000002
aF-4.5255000000000001
aF0.12232
aa(lp528
F2.6713
aF-4.5133000000000001
aF0.12175999999999999
aa(lp529
F2.6490999999999998
aF-4.5008999999999997
aF0.12125
aa(lp530
F2.6259000000000001
aF-4.4935999999999998
aF0.12084
aa(lp531
F2.6023000000000001
aF-4.4819000000000004
aF0.12032
aa(lp532
F2.5802
aF-4.4762000000000004
aF0.11995
aa(lp533
F2.5550000000000002
aF-4.4630000000000001
aF0.11940000000000001
aa(lp534
F2.5346000000000002
aF-4.4561999999999999
aF0.11902
aa(lp535
F2.5110999999999999
aF-4.4420000000000002
aF0.11847000000000001
aa(lp536
F2.4908999999999999
aF-4.4349999999999996
aF0.1181
aa(lp537
F2.4691000000000001
aF-4.4288999999999996
aF0.11773
aa(lp538
F2.4441000000000002
aF-4.4130000000000003
aF0.11712
aaa(lp539
(lp540
F3.6960999999999999
aF-4.8853999999999997
aF0
aa(lp541
F3.6831
aF-4.9001000000000001
aF0
aa(lp542
F3.6299000000000001
aF-4.8574999999999999
aF0
aa(lp543
F3.5912999999999999
aF-4.8338999999999999
aF0
aa(lp544
F3.5701999999999998
aF-4.8372000000000002
aF0
aa(lp545
F3.4992999999999999
aF-4.827
aF0
aa(lp546
F3.4784999999999999
aF-4.8247999999999998
aF0
aaa(lp547
(lp548
F5.6851000000000003
aF-5.8033999999999999
aF0
aa(lp549
F5.6342999999999996
aF-5.7858000000000001
aF0
aa(lp550
F5.5819999999999999
aF-5.7641999999999998
aF0
aa(lp551
F5.5270000000000001
aF-5.7393999999999998
aF0
aa(lp552
F5.4699
aF-5.7138999999999998
aF0
aa(lp553
F5.4198000000000004
aF-5.6952999999999996
aF0
aa(lp554
F5.3639999999999999
aF-5.6683000000000003
aF0
aa(lp555
F5.3143000000000002
aF-5.6492000000000004
aF0
aa(lp556
F5.2619999999999996
aF-5.6269999999999998
aF0
aa(lp557
F5.2081
aF-5.6006999999999998
aF0
aa(lp558
F5.1578999999999997
aF-5.5818000000000003
aF0
aa(lp559
F5.1112000000000002
aF-5.5622999999999996
aF0
aa(lp560
F5.0606
aF-5.5381
aF0
aa(lp561
F5.0134999999999996
aF-5.5213999999999999
aF0
aa(lp562
F4.9682000000000004
aF-5.5004
aF0
aa(lp563
F4.9215
aF-5.4832000000000001
aF0
aa(lp564
F4.8742999999999999
aF-5.4611000000000001
aF0
aa(lp565
F4.8315000000000001
aF-5.4457000000000004
aF0
aa(lp566
F4.7821999999999996
aF-5.4225000000000003
aF0
aa(lp567
F4.7473000000000001
aF-5.4131999999999998
aF0
aa(lp568
F4.6952999999999996
aF-5.3842999999999996
aF0
aa(lp569
F4.6496000000000004
aF-5.3657000000000004
aF0
aa(lp570
F4.6093999999999999
aF-5.3475999999999999
aF0
aa(lp571
F4.5627000000000004
aF-5.3270999999999997
aF0
aa(lp572
F4.5209000000000001
aF-5.3102
aF0
aa(lp573
F4.4847000000000001
aF-5.2937000000000003
aF0
aa(lp574
F4.4447999999999999
aF-5.2803000000000004
aF0
aa(lp575
F4.4017999999999997
aF-5.2588999999999997
aF0
aa(lp576
F4.3605999999999998
aF-5.2412000000000001
aF0
aa(lp577
F4.3205
aF-5.2225000000000001
aF0
aa(lp578
F4.2794999999999996
aF-5.2043999999999997
aF0
aa(lp579
F4.2435
aF-5.1900000000000004
aF0
aa(lp580
F4.2027999999999999
aF-5.1715999999999998
aF0
aa(lp581
F4.1611000000000002
aF-5.1513
aF0
aa(lp582
F4.1291000000000002
aF-5.1410999999999998
aF0
aa(lp583
F4.0854999999999997
aF-5.1196999999999999
aF0
aa(lp584
F4.0513000000000003
aF-5.1059999999999999
aF0
aa(lp585
F4.0147000000000004
aF-5.0890000000000004
aF0
aa(lp586
F3.9799000000000002
aF-5.0757000000000003
aF0
aa(lp587
F3.9399000000000002
aF-5.0537000000000001
aF0
aa(lp588
F3.9117000000000002
aF-5.0502000000000002
aF0
aa(lp589
F3.8769
aF-5.0342000000000002
aF0
aa(lp590
F3.8384999999999998
aF-5.0133000000000001
aF0
aa(lp591
F3.7905000000000002
aF-4.9794
aF0
aaa(lp592
(lp593
F3.4203000000000001
aF-4.7439999999999998
aF-0.13578000000000001
aa(lp594
F3.3992
aF-4.7443999999999997
aF-0.13550000000000001
aa(lp595
F3.3969999999999998
aF-4.7729999999999997
aF-0.13602
aa(lp596
F3.3845000000000001
aF-4.7819000000000003
aF-0.13602
aa(lp597
F3.3729
aF-4.7973999999999997
aF-0.13614999999999999
aa(lp598
F3.3641000000000001
aF-4.8132999999999999
aF-0.13633999999999999
aa(lp599
F3.3386999999999998
aF-4.8090999999999999
aF-0.13592000000000001
aa(lp600
F3.3025000000000002
aF-4.7854999999999999
aF-0.13499
aa(lp601
F3.2755999999999998
aF-4.7748999999999997
aF-0.13444
aa(lp602
F3.2475999999999998
aF-4.7625999999999999
aF-0.13383
aa(lp603
F3.2242000000000002
aF-4.7567000000000004
aF-0.13342000000000001
aa(lp604
F3.1880000000000002
aF-4.7352999999999996
aF-0.13253000000000001
aa(lp605
F3.165
aF-4.7314999999999996
aF-0.13216
aa(lp606
F3.1366000000000001
aF-4.7191999999999998
aF-0.13156000000000001
aa(lp607
F3.1107
aF-4.7050999999999998
aF-0.13095999999999999
aa(lp608
F3.0750999999999999
aF-4.6830999999999996
aF-0.13006999999999999
aa(lp609
F3.0314000000000001
aF-4.6448
aF-0.12877
aa(lp610
F3.0045000000000002
aF-4.6337000000000002
aF-0.12822
aa(lp611
F2.9828999999999999
aF-4.6285999999999996
aF-0.12784999999999999
aa(lp612
F2.9704999999999999
aF-4.6413000000000002
aF-0.12794
aa(lp613
F2.9466000000000001
aF-4.6304999999999996
aF-0.12742999999999999
aa(lp614
F2.9194
aF-4.6216999999999997
aF-0.12692000000000001
aa(lp615
F2.8923999999999999
aF-4.6055999999999999
aF-0.12626999999999999
aa(lp616
F2.8650000000000002
aF-4.5921000000000003
aF-0.12565999999999999
aa(lp617
F2.8397999999999999
aF-4.5819000000000001
aF-0.12515000000000001
aa(lp618
F2.8182999999999998
aF-4.5739999999999998
aF-0.12472999999999999
aa(lp619
F2.7892999999999999
aF-4.5589000000000004
aF-0.12408
aa(lp620
F2.7683
aF-4.5529999999999999
aF-0.12371
aa(lp621
F2.7416
aF-4.5411999999999999
aF-0.12316000000000001
aa(lp622
F2.7172999999999998
aF-4.5278
aF-0.1226
aa(lp623
F2.6957
aF-4.5221
aF-0.12223000000000001
aa(lp624
F2.6713
aF-4.5133000000000001
aF-0.12175999999999999
aa(lp625
F2.6480999999999999
aF-4.4991000000000003
aF-0.12121
aa(lp626
F2.6217999999999999
aF-4.4866999999999999
aF-0.12064999999999999
aaa(lp627
(lp628
F3.7073999999999998
aF-4.9324000000000003
aF-0.14326
aa(lp629
F3.6600999999999999
aF-4.8978999999999999
aF-0.14196
aa(lp630
F3.6190000000000002
aF-4.8712
aF-0.14088999999999999
aa(lp631
F3.5823
aF-4.8535000000000004
aF-0.14005000000000001
aa(lp632
F3.5222000000000002
aF-4.7984
aF-0.13819999999999999
aa(lp633
F3.4830999999999999
aF-4.8047000000000004
aF-0.13778000000000001
aaa(lp634
(lp635
F5.6905000000000001
aF-5.8090000000000002
aF-0.1888
aa(lp636
F5.6341999999999999
aF-5.7857000000000003
aF-0.1875
aa(lp637
F5.5762999999999998
aF-5.7583000000000002
aF-0.18609999999999999
aa(lp638
F5.5311000000000003
aF-5.7435999999999998
aF-0.18512999999999999
aa(lp639
F5.4698000000000002
aF-5.7138
aF-0.18364
aa(lp640
F5.4156000000000004
aF-5.6909000000000001
aF-0.18239
aa(lp641
F5.3597999999999999
aF-5.6638999999999999
aF-0.18104000000000001
aa(lp642
F5.3114999999999997
aF-5.6463000000000001
aF-0.17998
aa(lp643
F5.2577999999999996
aF-5.6226000000000003
aF-0.17871999999999999
aa(lp644
F5.2122000000000002
aF-5.6050000000000004
aF-0.1777
aa(lp645
F5.1538000000000004
aF-5.5773000000000001
aF-0.17630999999999999
aa(lp646
F5.1112000000000002
aF-5.5621999999999998
aF-0.17538000000000001
aa(lp647
F5.0632000000000001
aF-5.5411000000000001
aF-0.17427000000000001
aa(lp648
F5.0134999999999996
aF-5.5213999999999999
aF-0.17315
aa(lp649
F4.9709000000000003
aF-5.5034000000000001
aF-0.17218
aa(lp650
F4.9256000000000002
aF-5.4877000000000002
aF-0.17119999999999999
aa(lp651
F4.8795999999999999
aF-5.4671000000000003
aF-0.17014000000000001
aa(lp652
F4.8342000000000001
aF-5.4486999999999997
aF-0.16911000000000001
aa(lp653
F4.7862
aF-5.4269999999999996
aF-0.16800000000000001
aa(lp654
F4.7393999999999998
aF-5.4043000000000001
aF-0.16689000000000001
aa(lp655
F4.7007000000000003
aF-5.3903999999999996
aF-0.16605
aa(lp656
F4.6523000000000003
aF-5.3688000000000002
aF-0.16494
aa(lp657
F4.6082000000000001
aF-5.3461999999999996
aF-0.16386999999999999
aa(lp658
F4.5627000000000004
aF-5.3272000000000004
aF-0.16284999999999999
aa(lp659
F4.5223000000000004
aF-5.3117999999999999
aF-0.16195999999999999
aa(lp660
F4.4821999999999997
aF-5.2907999999999999
aF-0.16098999999999999
aa(lp661
F4.4436
aF-5.2788000000000004
aF-0.16020000000000001
aa(lp662
F4.4032
aF-5.2606000000000002
aF-0.15926999999999999
aa(lp663
F4.3632999999999997
aF-5.2443999999999997
aF-0.15839
aa(lp664
F4.3231000000000002
aF-5.2257999999999996
aF-0.15745999999999999
aa(lp665
F4.2821999999999996
aF-5.2077
aF-0.15653
aa(lp666
F4.2423000000000002
aF-5.1886000000000001
aF-0.15561
aa(lp667
F4.2042000000000002
aF-5.1733000000000002
aF-0.15476999999999999
aa(lp668
F4.1687000000000003
aF-5.1608000000000001
aF-0.15403
aa(lp669
F4.1318000000000001
aF-5.1444000000000001
aF-0.15318999999999999
aa(lp670
F4.0930999999999997
aF-5.1292
aF-0.15236
aa(lp671
F4.0526999999999997
aF-5.1078000000000001
aF-0.15137999999999999
aa(lp672
F4.0186000000000002
aF-5.0938999999999997
aF-0.15064
aa(lp673
F3.9836999999999998
aF-5.0807000000000002
aF-0.14990000000000001
aa(lp674
F3.9449999999999998
aF-5.0602
aF-0.14896999999999999
aa(lp675
F3.9106999999999998
aF-5.0488999999999997
aF-0.14827000000000001
aa(lp676
F3.8769999999999998
aF-5.0343999999999998
aF-0.14752999999999999
aa(lp677
F3.8422999999999998
aF-5.0183
aF-0.14674000000000001
aa(lp678
F3.8089
aF-5.0034999999999998
aF-0.14599999999999999
aaa(lp679
(lp680
F5.6886999999999999
aF-5.8071000000000002
aF-0.37909999999999999
aa(lp681
F5.6323999999999996
aF-5.7839
aF-0.37648999999999999
aa(lp682
F5.5800999999999998
aF-5.7622
aF-0.37406
aa(lp683
F5.5279999999999996
aF-5.7404000000000002
aF-0.37164000000000003
aa(lp684
F5.4749999999999996
aF-5.7191999999999998
aF-0.36921999999999999
aa(lp685
F5.4153000000000002
aF-5.6905999999999999
aF-0.36632999999999999
aa(lp686
F5.3663999999999996
aF-5.6708999999999996
aF-0.36409999999999998
aa(lp687
F5.3140000000000001
aF-5.6489000000000003
aF-0.36166999999999999
aa(lp688
F5.2603999999999997
aF-5.6253000000000002
aF-0.35915999999999998
aa(lp689
F5.2161
aF-5.6092000000000004
aF-0.35720000000000002
aa(lp690
F5.1550000000000002
aF-5.5785999999999998
aF-0.35421999999999998
aa(lp691
F5.1151
aF-5.5664999999999996
aF-0.35254000000000002
aa(lp692
F5.0712000000000002
aF-5.5498000000000003
aF-0.35059000000000001
aa(lp693
F5.0175000000000001
aF-5.5258000000000003
aF-0.34806999999999999
aa(lp694
F4.9709000000000003
aF-5.5033000000000003
aF-0.34583999999999998
aa(lp695
F4.9241999999999999
aF-5.4862000000000002
aF-0.34378999999999998
aa(lp696
F4.8783000000000003
aF-5.4656000000000002
aF-0.34164
aa(lp697
F4.8354999999999997
aF-5.4501999999999997
aF-0.33978000000000003
aa(lp698
F4.7823000000000002
aF-5.4226000000000001
aF-0.33717000000000003
aa(lp699
F4.7435
aF-5.4089
aF-0.33549000000000001
aa(lp700
F4.6981000000000002
aF-5.3875000000000002
aF-0.33334999999999998
aa(lp701
F4.6510999999999996
aF-5.3674999999999997
aF-0.33121
aa(lp702
F4.6121999999999996
aF-5.3509000000000002
aF-0.32944000000000001
aa(lp703
F4.5590000000000002
aF-5.3228999999999997
aF-0.32683000000000001
aa(lp704
F4.5277000000000003
aF-5.3181000000000003
aF-0.32571
aa(lp705
F4.4862000000000002
aF-5.2956000000000003
aF-0.32366
aa(lp706
F4.4439000000000002
aF-5.2790999999999997
aF-0.32179999999999997
aa(lp707
F4.3982999999999999
aF-5.2546999999999997
aF-0.31956000000000001
aa(lp708
F4.3583999999999996
aF-5.2385999999999999
aF-0.31779000000000002
aa(lp709
F4.3220999999999998
aF-5.2245999999999997
aF-0.31620999999999999
aa(lp710
F4.2838000000000003
aF-5.2096
aF-0.31452999999999998
aa(lp711
F4.2389000000000001
aF-5.1844000000000001
aF-0.31230000000000002
aa(lp712
F4.2058
aF-5.1753
aF-0.31098999999999999
aa(lp713
F4.1665999999999999
aF-5.1581999999999999
aF-0.30921999999999999
aa(lp714
F4.1308999999999996
aF-5.1433
aF-0.30764000000000002
aa(lp715
F4.0898000000000003
aF-5.125
aF-0.30576999999999999
aa(lp716
F4.0494000000000003
aF-5.1036000000000001
aF-0.30381999999999998
aa(lp717
F4.0166000000000004
aF-5.0913000000000004
aF-0.30242000000000002
aa(lp718
F3.9817
aF-5.0781000000000001
aF-0.30092999999999998
aa(lp719
F3.9466000000000001
aF-5.0624000000000002
aF-0.29935
aa(lp720
F3.9123999999999999
aF-5.0510999999999999
aF-0.29794999999999999
aa(lp721
F3.8714
aF-5.0271999999999997
aF-0.2959
aa(lp722
F3.8391999999999999
aF-5.0141999999999998
aF-0.29449999999999998
aa(lp723
F3.8033999999999999
aF-4.9962
aF-0.29282000000000002
aa(lp724
F3.7704
aF-4.9836
aF-0.29143000000000002
aa(lp725
F3.7355999999999998
aF-4.9699
aF-0.28993999999999998
aa(lp726
F3.7037
aF-4.9562999999999997
aF-0.28854000000000002
aa(lp727
F3.6696
aF-4.9393000000000002
aF-0.28694999999999998
aa(lp728
F3.6398000000000001
aF-4.9316000000000004
aF-0.28583999999999998
aa(lp729
F3.6067999999999998
aF-4.9137000000000004
aF-0.28425
aa(lp730
F3.5790000000000002
aF-4.9043999999999999
aF-0.28312999999999999
aa(lp731
F3.5436000000000001
aF-4.8880999999999997
aF-0.28155000000000002
aa(lp732
F3.5121000000000002
aF-4.8714000000000004
aF-0.28005999999999998
aa(lp733
F3.4847999999999999
aF-4.8639999999999999
aF-0.27903
aa(lp734
F3.4300999999999999
aF-4.8196000000000003
aF-0.27587
aa(lp735
F3.4083000000000001
aF-4.8155000000000001
aF-0.27511999999999998
aa(lp736
F3.3828
aF-4.8113999999999999
aF-0.27428000000000002
aa(lp737
F3.3647999999999998
aF-4.8143000000000002
aF-0.27390999999999999
aa(lp738
F3.3302999999999998
aF-4.7969999999999997
aF-0.27233000000000002
aa(lp739
F3.2997999999999998
aF-4.7816000000000001
aF-0.27093
aa(lp740
F3.274
aF-4.7727000000000004
aF-0.26989999999999997
aa(lp741
F3.2461000000000002
aF-4.7603
aF-0.26868999999999998
aa(lp742
F3.2147999999999999
aF-4.7428999999999997
aF-0.26719999999999999
aa(lp743
F3.1842999999999999
aF-4.7298
aF-0.26590000000000003
aa(lp744
F3.1591
aF-4.7225999999999999
aF-0.26496999999999998
aa(lp745
F3.1307
aF-4.7103000000000002
aF-0.26375999999999999
aa(lp746
F3.1059999999999999
aF-4.6980000000000004
aF-0.26263999999999998
aa(lp747
F3.077
aF-4.6859999999999999
aF-0.26143
aa(lp748
F3.0245000000000002
aF-4.6342999999999996
aF-0.25807000000000002
aa(lp749
F3.0043000000000002
aF-4.6332000000000004
aF-0.25751000000000002
aa(lp750
F2.9771999999999998
aF-4.6197999999999997
aF-0.25629999999999997
aa(lp751
F2.9409000000000001
aF-4.6216999999999997
aF-0.25546000000000002
aa(lp752
F2.9138999999999999
aF-4.6128
aF-0.25444
aa(lp753
F2.8858000000000001
aF-4.5951000000000004
aF-0.25303999999999999
aa(lp754
F2.8595000000000002
aF-4.5833000000000004
aF-0.25191999999999998
aa(lp755
F2.8374999999999999
aF-4.5781000000000001
aF-0.25118000000000001
aa(lp756
F2.8170999999999999
aF-4.5719000000000003
aF-0.25042999999999999
aa(lp757
F2.7871000000000001
aF-4.5552000000000001
aF-0.24904000000000001
aa(lp758
F2.766
aF-4.5492999999999997
aF-0.24829000000000001
aaa(lp759
(lp760
F3.4127999999999998
aF-4.7952000000000004
aF-0.41155999999999998
aa(lp761
F3.4198
aF-4.8318000000000003
aF-0.41393000000000002
aa(lp762
F3.3681999999999999
aF-4.8193000000000001
aF-0.41114000000000001
aa(lp763
F3.3393999999999999
aF-4.8102
aF-0.40947
aa(lp764
F3.3090000000000002
aF-4.7948000000000004
aF-0.40738000000000002
aa(lp765
F3.2774999999999999
aF-4.7777000000000003
aF-0.40515000000000001
aa(lp766
F3.2551999999999999
aF-4.7736999999999998
aF-0.40403
aa(lp767
F3.2273000000000001
aF-4.7613000000000003
aF-0.40222000000000002
aa(lp768
F3.1945000000000001
aF-4.7449000000000003
aF-0.39998
aa(lp769
F3.1671
aF-4.7344999999999997
aF-0.39831
aa(lp770
F3.1419999999999999
aF-4.7271999999999998
aF-0.39690999999999999
aa(lp771
F3.1128
aF-4.7083000000000004
aF-0.39467999999999998
aa(lp772
F3.0783
aF-4.6879999999999997
aF-0.39217000000000002
aa(lp773
F3.0379
aF-4.6547999999999998
aF-0.38868000000000003
aa(lp774
F3.0066999999999999
aF-4.6369999999999996
aF-0.38645000000000002
aa(lp775
F2.9807999999999999
aF-4.6253000000000002
aF-0.38478000000000001
aaa(lp776
(lp777
F5.7019000000000002
aF-5.8205999999999998
aF-0.56977
aa(lp778
F5.6471
aF-5.7988999999999997
aF-0.56599999999999995
aa(lp779
F5.5919999999999996
aF-5.7744999999999997
aF-0.56210000000000004
aa(lp780
F5.5316000000000001
aF-5.7441000000000004
aF-0.55762999999999996
aa(lp781
F5.4828000000000001
aF-5.7274000000000003
aF-0.55442000000000002
aa(lp782
F5.4272
aF-5.7031000000000001
aF-0.55052000000000001
aa(lp783
F5.3769999999999998
aF-5.6820000000000004
aF-0.54703000000000002
aa(lp784
F5.3190999999999997
aF-5.6543999999999999
aF-0.54283999999999999
aa(lp785
F5.2668999999999997
aF-5.6322000000000001
aF-0.53922000000000003
aa(lp786
F5.2172000000000001
aF-5.6104000000000003
aF-0.53573000000000004
aa(lp787
F5.1696999999999997
aF-5.5945
aF-0.53266000000000002
aa(lp788
F5.1176000000000004
aF-5.5693000000000001
aF-0.52888999999999997
aa(lp789
F5.0777999999999999
aF-5.5570000000000004
aF-0.52637999999999996
aa(lp790
F5.0255000000000001
aF-5.5346000000000002
aF-0.52276
aa(lp791
F4.9828999999999999
aF-5.5166000000000004
aF-0.51983000000000001
aa(lp792
F4.9309000000000003
aF-5.4935999999999998
aF-0.51619999999999999
aa(lp793
F4.8875999999999999
aF-5.4760999999999997
aF-0.51327
aa(lp794
F4.8409000000000004
aF-5.4562999999999997
aF-0.51005999999999996
aa(lp795
F4.7942999999999998
aF-5.4362000000000004
aF-0.50685000000000002
aa(lp796
F4.7476000000000003
aF-5.4135999999999997
aF-0.50349999999999995
aa(lp797
F4.7009999999999996
aF-5.3906999999999998
aF-0.50014999999999998
aa(lp798
F4.6592000000000002
aF-5.3768000000000002
aF-0.4975
aa(lp799
F4.6203000000000003
aF-5.3602999999999996
aF-0.49485000000000001
aa(lp800
F4.5735999999999999
aF-5.3399000000000001
aF-0.49164000000000002
aa(lp801
F4.5319000000000003
aF-5.3231000000000002
aF-0.48885000000000001
aa(lp802
F4.4917999999999996
aF-5.3022
aF-0.48592000000000002
aa(lp803
F4.4493999999999998
aF-5.2857000000000003
aF-0.48313
aa(lp804
F4.4103000000000003
aF-5.2690999999999999
aF-0.48048000000000002
aa(lp805
F4.3653000000000004
aF-5.2468000000000004
aF-0.47727000000000003
aa(lp806
F4.3303000000000003
aF-5.2343999999999999
aF-0.47504000000000002
aa(lp807
F4.2855999999999996
aF-5.2118000000000002
aF-0.47183000000000003
aa(lp808
F4.2507999999999999
aF-5.1989999999999998
aF-0.46960000000000002
aa(lp809
F4.2077
aF-5.1776
aF-0.46653
aa(lp810
F4.1760000000000002
aF-5.1698000000000004
aF-0.46472000000000002
aa(lp811
F4.1365999999999996
aF-5.1504000000000003
aF-0.46193000000000001
aa(lp812
F4.1005000000000003
aF-5.1383999999999999
aF-0.4597
aa(lp813
F4.0587999999999997
aF-5.1154000000000002
aF-0.45662999999999998
aa(lp814
F4.0271999999999997
aF-5.1048
aF-0.45467000000000002
aa(lp815
F3.9887000000000001
aF-5.0869
aF-0.45201999999999998
aa(lp816
F3.9510999999999998
aF-5.0681000000000003
aF-0.44936999999999999
aa(lp817
F3.9144000000000001
aF-5.0537000000000001
aF-0.44700000000000001
aa(lp818
F3.8820000000000001
aF-5.0408999999999997
aF-0.44491000000000003
aa(lp819
F3.8485
aF-5.0263999999999998
aF-0.44267000000000001
aa(lp820
F3.8151000000000002
aF-5.0117000000000003
aF-0.44044
aa(lp821
F3.7797999999999998
aF-4.9960000000000004
aF-0.43807000000000001
aa(lp822
F3.7412999999999998
aF-4.9775
aF-0.43541999999999997
aa(lp823
F3.7119
aF-4.9672000000000001
aF-0.43361
aa(lp824
F3.6812999999999998
aF-4.9550999999999998
aF-0.43164999999999998
aa(lp825
F3.6444000000000001
aF-4.9377000000000004
aF-0.42914000000000002
aa(lp826
F3.6126
aF-4.9215
aF-0.42691000000000001
aa(lp827
F3.5847000000000002
aF-4.9123000000000001
aF-0.42524000000000001
aa(lp828
F3.5516999999999999
aF-4.8993000000000002
aF-0.42314000000000002
aa(lp829
F3.5213999999999999
aF-4.8842999999999996
aF-0.42104999999999998
aa(lp830
F3.4883000000000002
aF-4.8686999999999996
aF-0.41882000000000003
aaa(lp831
(lp832
F5.7023000000000001
aF-5.8209999999999997
aF-0.76022999999999996
aa(lp833
F5.6502999999999997
aF-5.8022
aF-0.75558000000000003
aa(lp834
F5.5938999999999997
aF-5.7765000000000004
aF-0.75019999999999998
aa(lp835
F5.5418000000000003
aF-5.7548000000000004
aF-0.74536000000000002
aa(lp836
F5.4820000000000002
aF-5.7266000000000004
aF-0.73960999999999999
aa(lp837
F5.4321000000000002
aF-5.7081999999999997
aF-0.73514999999999997
aa(lp838
F5.3777999999999997
aF-5.6829000000000001
aF-0.72994000000000003
aa(lp839
F5.3239999999999998
aF-5.6596000000000002
aF-0.72492999999999996
aa(lp840
F5.2732000000000001
aF-5.6390000000000002
aF-0.72028000000000003
aa(lp841
F5.2222
aF-5.6158000000000001
aF-0.71545000000000003
aa(lp842
F5.1775000000000002
aF-5.6029999999999998
aF-0.71174000000000004
aa(lp843
F5.1214000000000004
aF-5.5734000000000004
aF-0.70616000000000001
aa(lp844
F5.0762999999999998
aF-5.5552999999999999
aF-0.70208000000000004
aa(lp845
F5.0307000000000004
aF-5.5403000000000002
aF-0.69818000000000002
aa(lp846
F4.9840999999999998
aF-5.5179999999999998
aF-0.69372
aa(lp847
F4.9348999999999998
aF-5.4981
aF-0.68925999999999998
aa(lp848
F4.8876999999999997
aF-5.4762000000000004
aF-0.68479999999999996
aa(lp849
F4.8475999999999999
aF-5.4638
aF-0.68145999999999995
aa(lp850
F4.7945000000000002
aF-5.4363999999999999
aF-0.67625000000000002
aa(lp851
F4.7595999999999998
aF-5.4272999999999998
aF-0.67347000000000001
aa(lp852
F4.7117000000000004
aF-5.4029999999999996
aF-0.66881999999999997
aa(lp853
F4.6660000000000004
aF-5.3846999999999996
aF-0.66473000000000004
aa(lp854
F4.6207000000000003
aF-5.3606999999999996
aF-0.66027999999999998
aa(lp855
F4.5753000000000004
aF-5.3418999999999999
aF-0.65619000000000005
aa(lp856
F4.5388000000000002
aF-5.3311999999999999
aF-0.65322000000000002
aa(lp857
F4.4987000000000004
aF-5.3103999999999996
aF-0.64931000000000005
aa(lp858
F4.4588999999999999
aF-5.2969999999999997
aF-0.64597000000000004
aa(lp859
F4.4173
aF-5.2774000000000001
aF-0.64207000000000003
aa(lp860
F4.3773999999999997
aF-5.2614000000000001
aF-0.63854
aa(lp861
F4.3348000000000004
aF-5.2398999999999996
aF-0.63444999999999996
aa(lp862
F4.2888999999999999
aF-5.2157999999999998
aF-0.62999000000000005
aa(lp863
F4.2591999999999999
aF-5.2092000000000001
aF-0.62775999999999998
aa(lp864
F4.2148000000000003
aF-5.1863000000000001
aF-0.62348999999999999
aa(lp865
F4.1818999999999997
aF-5.1771000000000003
aF-0.62089000000000005
aa(lp866
F4.1412000000000004
aF-5.1562000000000001
aF-0.61699000000000004
aa(lp867
F4.1063999999999998
aF-5.1458000000000004
aF-0.61419999999999997
aa(lp868
F4.0671999999999997
aF-5.1260000000000003
aF-0.61048999999999998
aa(lp869
F4.0331999999999999
aF-5.1124000000000001
aF-0.60750999999999999
aa(lp870
F3.9971000000000001
aF-5.0976999999999997
aF-0.60435000000000005
aa(lp871
F3.9645000000000001
aF-5.0852000000000004
aF-0.60157000000000005
aa(lp872
F3.9228999999999998
aF-5.0646000000000004
aF-0.59767000000000003
aa(lp873
F3.8893
aF-5.0503
aF-0.59469000000000005
aa(lp874
F3.8534000000000002
aF-5.0327000000000002
aF-0.59135000000000004
aa(lp875
F3.8188
aF-5.0164999999999997
aF-0.58818999999999999
aa(lp876
F3.7810000000000001
aF-4.9976000000000003
aF-0.58465999999999996
aa(lp877
F3.7509999999999999
aF-4.9904000000000002
aF-0.58243
aa(lp878
F3.7191000000000001
aF-4.9768999999999997
aF-0.57965
aa(lp879
F3.6850000000000001
aF-4.9600999999999997
aF-0.57648999999999995
aa(lp880
F3.6493000000000002
aF-4.9443999999999999
aF-0.57333000000000001
aa(lp881
F3.6187
aF-4.9298999999999999
aF-0.57054000000000005
aa(lp882
F3.5920000000000001
aF-4.9222999999999999
aF-0.56850000000000001
aa(lp883
F3.552
aF-4.8997000000000002
aF-0.56459999999999999
aa(lp884
F3.5274999999999999
aF-4.8928000000000003
aF-0.56274000000000002
aa(lp885
F3.4990000000000001
aF-4.8837999999999999
aF-0.56050999999999995
aa(lp886
F3.4617
aF-4.8639999999999999
aF-0.55698000000000003
aa(lp887
F3.4306000000000001
aF-4.8470000000000004
aF-0.55401
aa(lp888
F3.3923999999999999
aF-4.8251999999999997
aF-0.55028999999999995
aa(lp889
F3.3744000000000001
aF-4.8281000000000001
aF-0.54954999999999998
aa(lp890
F3.3422000000000001
aF-4.8140999999999998
aF-0.54676000000000002
aa(lp891
F3.3140000000000001
aF-4.8021000000000003
aF-0.54435
aa(lp892
F3.2871000000000001
aF-4.7916999999999996
aF-0.54212000000000005
aa(lp893
F3.2591000000000001
aF-4.7793999999999999
aF-0.53969999999999996
aa(lp894
F3.2290000000000001
aF-4.7637999999999998
aF-0.53691999999999995
aa(lp895
F3.2018
aF-4.7557999999999998
aF-0.53486999999999996
aa(lp896
F3.1720999999999999
aF-4.7420999999999998
aF-0.53227000000000002
aa(lp897
F3.1404000000000001
aF-4.7248999999999999
aF-0.52929999999999999
aa(lp898
F3.1156999999999999
aF-4.7126000000000001
aF-0.52707000000000004
aaa(lp899
(lp900
F5.7119
aF-5.8308
aF-0.95452999999999999
aa(lp901
F5.6543999999999999
aF-5.8064
aF-0.94779000000000002
aa(lp902
F5.6022999999999996
aF-5.7850999999999999
aF-0.94174999999999998
aa(lp903
F5.5446999999999997
aF-5.7577999999999996
aF-0.93478000000000006
aa(lp904
F5.4904999999999999
aF-5.7355
aF-0.92850999999999995
aa(lp905
F5.4364999999999997
aF-5.7129000000000003
aF-0.92223999999999995
aa(lp906
F5.3837000000000002
aF-5.6890999999999998
aF-0.91596
aa(lp907
F5.3300000000000001
aF-5.6660000000000004
aF-0.90969
aa(lp908
F5.2778999999999998
aF-5.6440999999999999
aF-0.90364999999999995
aa(lp909
F5.2297000000000002
aF-5.6238999999999999
aF-0.89807999999999999
aa(lp910
F5.181
aF-5.6067
aF-0.89273000000000002
aa(lp911
F5.1289999999999996
aF-5.5816999999999997
aF-0.88646000000000003
aa(lp912
F5.0785999999999998
aF-5.5578000000000003
aF-0.88041999999999998
aa(lp913
F5.0304000000000002
aF-5.5399000000000003
aF-0.87507999999999997
aa(lp914
F4.9878999999999998
aF-5.5221
aF-0.87019999999999997
aa(lp915
F4.9333999999999998
aF-5.4964000000000004
aF-0.86370000000000002
aa(lp916
F4.8955000000000002
aF-5.4848999999999997
aF-0.85975000000000001
aa(lp917
F4.8461999999999996
aF-5.4622999999999999
aF-0.85394000000000003
aa(lp918
F4.7972000000000001
aF-5.4394
aF-0.84813000000000005
aa(lp919
F4.7610000000000001
aF-5.4288999999999996
aF-0.84441999999999995
aa(lp920
F4.7106000000000003
aF-5.4016999999999999
aF-0.83814
aa(lp921
F4.6676000000000002
aF-5.3864999999999998
aF-0.83350000000000002
aa(lp922
F4.6261999999999999
aF-5.3670999999999998
aF-0.82862000000000002
aa(lp923
F4.5808999999999997
aF-5.3483999999999998
aF-0.82350999999999996
aa(lp924
F4.5340999999999996
aF-5.3257000000000003
aF-0.81793000000000005
aa(lp925
F4.4941000000000004
aF-5.3048999999999999
aF-0.81305000000000005
aa(lp926
F4.4621000000000004
aF-5.3007999999999997
aF-0.81027000000000005
aa(lp927
F4.4217000000000004
aF-5.2827000000000002
aF-0.80562
aa(lp928
F4.3742999999999999
aF-5.2576000000000001
aF-0.79981000000000002
aa(lp929
F4.3406000000000002
aF-5.2469000000000001
aF-0.79632999999999998
aa(lp930
F4.2972999999999999
aF-5.226
aF-0.79122000000000003
aa(lp931
F4.2587999999999999
aF-5.2087000000000003
aF-0.78680000000000005
aa(lp932
F4.2206999999999999
aF-5.1936
aF-0.78261999999999998
aa(lp933
F4.1816000000000004
aF-5.1767000000000003
aF-0.77820999999999996
aa(lp934
F4.1485000000000003
aF-5.1651999999999996
aF-0.77473000000000003
aa(lp935
F4.1086999999999998
aF-5.1486999999999998
aF-0.77031000000000005
aa(lp936
F4.0708000000000002
aF-5.1306000000000003
aF-0.76590000000000003
aa(lp937
F4.0343
aF-5.1138000000000003
aF-0.76171999999999995
aa(lp938
F3.9983
aF-5.0991999999999997
aF-0.75777000000000005
aa(lp939
F3.9607999999999999
aF-5.0805999999999996
aF-0.75334999999999996
aa(lp940
F3.9266000000000001
aF-5.0694999999999997
aF-0.74987000000000004
aa(lp941
F3.8906000000000001
aF-5.0521000000000003
aF-0.74568999999999996
aa(lp942
F3.8536000000000001
aF-5.0328999999999997
aF-0.74126999999999998
aa(lp943
F3.8237999999999999
aF-5.0231000000000003
aF-0.73824999999999996
aa(lp944
F3.7885
aF-5.0075000000000003
aF-0.73429999999999995
aa(lp945
F3.7513000000000001
aF-4.9908000000000001
aF-0.73011999999999999
aa(lp946
F3.7219000000000002
aF-4.9805999999999999
aF-0.72709999999999997
aa(lp947
F3.6878000000000002
aF-4.9638999999999998
aF-0.72314999999999996
aa(lp948
F3.6534
aF-4.9499000000000004
aF-0.71943999999999997
aa(lp949
F3.6238999999999999
aF-4.9370000000000003
aF-0.71618999999999999
aa(lp950
F3.5914000000000001
aF-4.9214000000000002
aF-0.71247000000000005
aa(lp951
F3.5596000000000001
aF-4.9101999999999997
aF-0.70921999999999996
aa(lp952
F3.5305
aF-4.8968999999999996
aF-0.70596000000000003
aa(lp953
F3.4996999999999998
aF-4.8846999999999996
aF-0.70270999999999995
aa(lp954
F3.4659
aF-4.8697999999999997
aF-0.69899
aa(lp955
F3.4359000000000002
aF-4.8545999999999996
aF-0.69550999999999996
aa(lp956
F3.4001000000000001
aF-4.8361000000000001
aF-0.69133
aa(lp957
F3.3774999999999999
aF-4.8324999999999996
aF-0.68947000000000003
aa(lp958
F3.343
aF-4.8154000000000003
aF-0.68552000000000002
aa(lp959
F3.3159999999999998
aF-4.8051000000000004
aF-0.68272999999999995
aa(lp960
F3.2902
aF-4.7962999999999996
aF-0.68018000000000001
aa(lp961
F3.2612000000000001
aF-4.7824999999999998
aF-0.67693000000000003
aa(lp962
F3.2288999999999999
aF-4.7636000000000003
aF-0.67298000000000002
aa(lp963
F3.2039
aF-4.7588999999999997
aF-0.67088999999999999
aa(lp964
F3.1852999999999998
aF-4.7618
aF-0.66996
aaa(lp965
(lp966
F5.7046000000000001
aF-5.8232999999999997
aF-1.1456999999999999
aa(lp967
F5.6417000000000002
aF-5.7934000000000001
aF-1.1365000000000001
aa(lp968
F5.5923999999999996
aF-5.7750000000000004
aF-1.1297999999999999
aa(lp969
F5.5350999999999999
aF-5.7477999999999998
aF-1.1214999999999999
aa(lp970
F5.4795999999999996
aF-5.7241
aF-1.1136999999999999
aa(lp971
F5.4257999999999997
aF-5.7016
aF-1.1061000000000001
aa(lp972
F5.3731
aF-5.6779000000000002
aF-1.0986
aa(lp973
F5.3209
aF-5.6562999999999999
aF-1.0913999999999999
aa(lp974
F5.2716000000000003
aF-5.6372999999999998
aF-1.0847
aa(lp975
F5.2180999999999997
aF-5.6113999999999997
aF-1.0769
aa(lp976
F5.1681999999999997
aF-5.5929000000000002
aF-1.0702
aa(lp977
F5.1191000000000004
aF-5.5708000000000002
aF-1.0632999999999999
aa(lp978
F5.0701000000000001
aF-5.5486000000000004
aF-1.0563
aa(lp979
F5.0193000000000003
aF-5.5278
aF-1.0494000000000001
aa(lp980
F4.9702999999999999
aF-5.5026999999999999
aF-1.0421
aa(lp981
F4.9252000000000002
aF-5.4873000000000003
aF-1.0363
aa(lp982
F4.8848000000000003
aF-5.4729999999999999
aF-1.0309999999999999
aa(lp983
F4.8384
aF-5.4534000000000002
aF-1.0246
aa(lp984
F4.7960000000000003
aF-5.4379999999999997
aF-1.0189999999999999
aa(lp985
F4.7533000000000003
aF-5.4200999999999997
aF-1.0132000000000001
aa(lp986
F4.7030000000000003
aF-5.3930999999999996
aF-1.0057
aa(lp987
F4.6665999999999999
aF-5.3853999999999997
aF-1.0015000000000001
aa(lp988
F4.6201999999999996
aF-5.3601000000000001
aF-0.99453000000000003
aa(lp989
F4.5788000000000002
aF-5.3460000000000001
aF-0.98924000000000001
aa(lp990
F4.5347
aF-5.3263999999999996
aF-0.98311999999999999
aa(lp991
F4.4961000000000002
aF-5.3071999999999999
aF-0.97755000000000003
aa(lp992
F4.4564000000000004
aF-5.2939999999999996
aF-0.97253999999999996
aa(lp993
F4.4059999999999997
aF-5.2638999999999996
aF-0.96475
aa(lp994
F4.3752000000000004
aF-5.2587000000000002
aF-0.96140999999999999
aa(lp995
F4.3289
aF-5.2328000000000001
aF-0.95445000000000002
aa(lp996
F4.2907000000000002
aF-5.218
aF-0.94943999999999995
aa(lp997
F4.2497999999999996
aF-5.1978
aF-0.94359000000000004
aa(lp998
F4.2144000000000004
aF-5.1858000000000004
aF-0.93913999999999997
aa(lp999
F4.1741000000000001
aF-5.1675000000000004
aF-0.93357000000000001
aa(lp1000
F4.1348000000000003
aF-5.1482000000000001
aF-0.92801
aa(lp1001
F4.0964
aF-5.1333000000000002
aF-0.92300000000000004
aa(lp1002
F4.0610999999999997
aF-5.1184000000000003
aF-0.91825999999999997
aa(lp1003
F4.0247000000000002
aF-5.1017000000000001
aF-0.91325000000000001
aa(lp1004
F3.9887999999999999
aF-5.0871000000000004
aF-0.90851999999999999
aa(lp1005
F3.9514999999999998
aF-5.0686
aF-0.90322999999999998
aa(lp1006
F3.9173
aF-5.0575000000000001
aF-0.89905999999999997
aa(lp1007
F3.8837999999999999
aF-5.0433000000000003
aF-0.89459999999999995
aa(lp1008
F3.8517000000000001
aF-5.0305
aF-0.89043000000000005
aa(lp1009
F3.8136000000000001
aF-5.0096999999999996
aF-0.88485999999999998
aa(lp1010
F3.7784
aF-4.9942000000000002
aF-0.88012999999999997
aa(lp1011
F3.7519999999999998
aF-4.9917999999999996
aF-0.87763000000000002
aa(lp1012
F3.7132000000000001
aF-4.9688999999999997
aF-0.87178
aa(lp1013
F3.6839
aF-4.9585999999999997
aF-0.86816000000000004
aa(lp1014
F3.6482999999999999
aF-4.9431000000000003
aF-0.86343000000000003
aa(lp1015
F3.6190000000000002
aF-4.9302000000000001
aF-0.85953000000000002
aa(lp1016
F3.5842000000000001
aF-4.9115000000000002
aF-0.85451999999999995
aa(lp1017
F3.5558999999999998
aF-4.9051
aF-0.85145999999999999
aa(lp1018
F3.5246
aF-4.8887
aF-0.84701000000000004
aa(lp1019
F3.4927000000000001
aF-4.875
aF-0.84282999999999997
aa(lp1020
F3.4601999999999999
aF-4.8616999999999999
aF-0.83865999999999996
aa(lp1021
F3.4268000000000001
aF-4.8417000000000003
aF-0.83365
aa(lp1022
F3.3921999999999999
aF-4.8249000000000004
aF-0.82891000000000004
aa(lp1023
F3.3662999999999998
aF-4.8164999999999996
aF-0.82584999999999997
aa(lp1024
F3.3353000000000002
aF-4.8042999999999996
aF-0.82196000000000002
aa(lp1025
F3.3140000000000001
aF-4.8021000000000003
aF-0.82001000000000002
aa(lp1026
F3.2814999999999999
aF-4.7835999999999999
aF-0.81528
aa(lp1027
F3.2513999999999998
aF-4.7682000000000002
aF-0.81110000000000004
aa(lp1028
F3.2347999999999999
aF-4.7724000000000002
aF-0.81027000000000005
aaa(lp1029
(lp1030
F5.5987999999999998
aF-5.7815000000000003
aF-1.3223
aa(lp1031
F5.5429000000000004
aF-5.7558999999999996
aF-1.3129
aa(lp1032
F5.4862000000000002
aF-5.7309999999999999
aF-1.3033999999999999
aa(lp1033
F5.4310999999999998
aF-5.7072000000000003
aF-1.2944
aa(lp1034
F5.3811999999999998
aF-5.6864999999999997
aF-1.2863
aa(lp1035
F5.3292000000000002
aF-5.6650999999999998
aF-1.2778
aa(lp1036
F5.2759
aF-5.6418999999999997
aF-1.2690999999999999
aa(lp1037
F5.2239000000000004
aF-5.6176000000000004
aF-1.2603
aa(lp1038
F5.1699999999999999
aF-5.5949
aF-1.2516
aa(lp1039
F5.1289999999999996
aF-5.5816999999999997
aF-1.2454000000000001
aa(lp1040
F5.0747999999999998
aF-5.5537000000000001
aF-1.236
aa(lp1041
F5.0294999999999996
aF-5.5389999999999997
aF-1.2292000000000001
aa(lp1042
F4.9819000000000004
aF-5.5155000000000003
aF-1.2211000000000001
aa(lp1043
F4.9368999999999996
aF-5.5003000000000002
aF-1.2142999999999999
aa(lp1044
F4.8925999999999998
aF-5.4817
aF-1.2071000000000001
aa(lp1045
F4.8461999999999996
aF-5.4622000000000002
aF-1.1997
aa(lp1046
F4.7946999999999997
aF-5.4366000000000003
aF-1.1909000000000001
aa(lp1047
F4.7469000000000001
aF-5.4128999999999996
aF-1.1828000000000001
aa(lp1048
F4.7161999999999997
aF-5.4081999999999999
aF-1.1789000000000001
aa(lp1049
F4.6630000000000003
aF-5.3813000000000004
aF-1.1698999999999999
aa(lp1050
F4.6219000000000001
aF-5.3620999999999999
aF-1.1631
aa(lp1051
F4.5754999999999999
aF-5.3421000000000003
aF-1.1556
aa(lp1052
F4.5391000000000004
aF-5.3315999999999999
aF-1.1504000000000001
aa(lp1053
F4.4916999999999998
aF-5.3019999999999996
aF-1.1416999999999999
aa(lp1054
F4.4546000000000001
aF-5.2919
aF-1.1365000000000001
aa(lp1055
F4.4107000000000003
aF-5.2695999999999996
aF-1.129
aa(lp1056
F4.3711000000000002
aF-5.2538
aF-1.1228
aa(lp1057
F4.3324999999999996
aF-5.2370999999999999
aF-1.1167
aa(lp1058
F4.2893999999999997
aF-5.2164000000000001
aF-1.1095999999999999
aa(lp1059
F4.2510000000000003
aF-5.1993
aF-1.1033999999999999
aa(lp1060
F4.2131999999999996
aF-5.1843000000000004
aF-1.0975999999999999
aa(lp1061
F4.1755000000000004
aF-5.1692
aF-1.0916999999999999
aa(lp1062
F4.1363000000000003
aF-5.1500000000000004
aF-1.0851999999999999
aa(lp1063
F4.1003999999999996
aF-5.1383000000000001
aF-1.0800000000000001
aa(lp1064
F4.0627000000000004
aF-5.1204000000000001
aF-1.0739000000000001
aa(lp1065
F4.0263999999999998
aF-5.1037999999999997
aF-1.0680000000000001
aa(lp1066
F3.9893000000000001
aF-5.0877999999999997
aF-1.0622
aa(lp1067
F3.9533
aF-5.0709
aF-1.0564
aa(lp1068
F3.9156
aF-5.0552000000000001
aF-1.0505
aa(lp1069
F3.8834
aF-5.0427
aF-1.0457000000000001
aa(lp1070
F3.8477000000000001
aF-5.0252999999999997
aF-1.0398000000000001
aa(lp1071
F3.8157000000000001
aF-5.0125000000000002
aF-1.0349999999999999
aa(lp1072
F3.7818000000000001
aF-4.9985999999999997
aF-1.0298
aa(lp1073
F3.7458999999999998
aF-4.9836
aF-1.0243
aa(lp1074
F3.7107000000000001
aF-4.9656000000000002
aF-1.0184
aa(lp1075
F3.6802999999999999
aF-4.9538000000000002
aF-1.0139
aa(lp1076
F3.6495000000000002
aF-4.9447000000000001
aF-1.0097
aa(lp1077
F3.6143999999999998
aF-4.9240000000000004
aF-1.0035000000000001
aa(lp1078
F3.5901000000000001
aF-4.9196999999999997
aF-1.0005999999999999
aa(lp1079
F3.5526
aF-4.9005999999999998
aF-0.99444999999999995
aa(lp1080
F3.5293999999999999
aF-4.8955000000000002
aF-0.99153000000000002
aa(lp1081
F3.4895999999999998
aF-4.8705999999999996
aF-0.98440000000000005
aa(lp1082
F3.4571000000000001
aF-4.8574000000000002
aF-0.97953000000000001
aa(lp1083
F3.4318
aF-4.8487999999999998
aF-0.97597
aa(lp1084
F3.3904999999999998
aF-4.8224
aF-0.96850999999999998
aa(lp1085
F3.3691
aF-4.8205
aF-0.96623999999999999
aa(lp1086
F3.3382000000000001
aF-4.8083999999999998
aF-0.9617
aa(lp1087
F3.3102
aF-4.7965999999999998
aF-0.95748
aa(lp1088
F3.2810999999999999
aF-4.7830000000000004
aF-0.95294000000000001
aa(lp1089
F3.25
aF-4.766
aF-0.94776000000000005
aa(lp1090
F3.2277999999999998
aF-4.7619999999999996
aF-0.94516
aa(lp1091
F3.1951999999999998
aF-4.7460000000000004
aF-0.93996999999999997
aa(lp1092
F3.1646000000000001
aF-4.7308000000000003
aF-0.93511
aa(lp1093
F3.1364000000000001
aF-4.7187999999999999
aF-0.93089999999999995
aa(lp1094
F3.1128
aF-4.7084000000000001
aF-0.92732999999999999
aa(lp1095
F3.0893999999999999
aF-4.7049000000000003
aF-0.92474000000000001
aaa.