(lp1
(lp2
(lp3
F20.811
aF-2.1688999999999998
aF3.4376000000000002
aa(lp4
F20.677
aF-2.2134
aF3.4165000000000001
aa(lp5
F20.510999999999999
aF-2.2608000000000001
aF3.3902999999999999
aa(lp6
F20.510999999999999
aF-2.3151999999999999
aF3.3912
aa(lp7
F20.302
aF-2.3561999999999999
aF3.3578000000000001
aa(lp8
F20.202999999999999
aF-2.4018999999999999
aF3.3426
aa(lp9
F20.239999999999998
aF-2.46
aF3.3496999999999999
aa(lp10
F20.190999999999999
aF-2.5185
aF3.3429000000000002
aa(lp11
F19.972000000000001
aF-2.5478999999999998
aF3.3079000000000001
aaa(lp12
(lp13
F20.853999999999999
aF-2.0484
aF2.9449000000000001
aa(lp14
F20.698
aF-2.0914999999999999
aF2.9237000000000002
aa(lp15
F20.626000000000001
aF-2.1497000000000002
aF2.9146000000000001
aa(lp16
F20.640000000000001
aF-2.2094
aF2.9173
aa(lp17
F20.547999999999998
aF-2.2648999999999999
aF2.9054000000000002
aa(lp18
F20.497
aF-2.3136000000000001
aF2.899
aa(lp19
F20.545000000000002
aF-2.3843999999999999
aF2.9068000000000001
aaa(lp20
(lp21
F22.591000000000001
aF-2.1554000000000002
aF2.1172
aa(lp22
F22.462
aF-2.2063999999999999
aF2.1057000000000001
aa(lp23
F22.363
aF-2.2597
aF2.0969000000000002
aa(lp24
F22.375
aF-2.3319999999999999
aF2.0988000000000002
aa(lp25
F22.149000000000001
aF-2.3708999999999998
aF2.0781999999999998
aa(lp26
F22.094000000000001
aF-2.4352999999999998
aF2.0737000000000001
aaa(lp27
(lp28
F20.518000000000001
aF-3.2864
aF1.4530000000000001
aa(lp29
F20.370000000000001
aF-3.3868
aF1.444
aa(lp30
F20.321000000000002
aF-3.4369999999999998
aF1.4412
aa(lp31
F20.353000000000002
aF-3.5009000000000001
aF1.4440999999999999
aa(lp32
F20.312000000000001
aF-3.5596000000000001
aF1.4419999999999999
aa(lp33
F20.100000000000001
aF-3.6381999999999999
aF1.4282999999999999
aa(lp34
F20.088000000000001
aF-3.7012999999999998
aF1.4282999999999999
aa(lp35
F20.302
aF-3.7921999999999998
aF1.4441999999999999
aa(lp36
F20.161000000000001
aF-3.8313000000000001
aF1.4350000000000001
aa(lp37
F20.135000000000002
aF-3.8845999999999998
aF1.4339
aa(lp38
F20.172999999999998
aF-3.9504000000000001
aF1.4374
aa(lp39
F20.128
aF-4.0035999999999996
aF1.4350000000000001
aa(lp40
F20.154
aF-4.0747
aF1.4378
aa(lp41
F20.152000000000001
aF-4.133
aF1.4384999999999999
aaa(lp42
(lp43
F21.925000000000001
aF-2.347
aF0.51193999999999995
aa(lp44
F21.792000000000002
aF-2.4597000000000002
aF0.50914999999999999
aa(lp45
F21.707999999999998
aF-2.5194000000000001
aF0.50739000000000001
aa(lp46
F21.515000000000001
aF-2.5577999999999999
aF0.50302000000000002
aa(lp47
F21.390999999999998
aF-2.5998999999999999
aF0.50029000000000001
aa(lp48
F21.398
aF-2.6690999999999998
aF0.50065999999999999
aa(lp49
F21.472000000000001
aF-2.7391999999999999
aF0.50256000000000001
aaa.