(lp1
(lp2
(lp3
F-5.3218002319335938
aF2.0183742046356201
aF0.93511110544204712
aa(lp4
F-5.3121018409729004
aF2.0327448844909668
aF0.93446266651153564
aa(lp5
F-5.3362231254577637
aF2.0580072402954102
aF0.93965047597885132
aa(lp6
F-5.3426051139831543
aF2.0797727108001709
aF0.94192016124725342
aa(lp7
F-5.3275909423828134
aF2.0910787582397461
aF0.94029897451400757
aa(lp8
F-5.3320045471191406
aF2.1121664047241211
aF0.94224441051483154
aa(lp9
F-5.3191251754760742
aF2.1231918334960942
aF0.94094747304916382
aa(lp10
F-5.3051061630249023
aF2.1369423866271968
aF0.93965047597885132
aaa(lp11
(lp12
F-5.3410139083862314
aF2.0245952606201172
aF0.80275046825408936
aa(lp13
F-5.3294339179992676
aF2.0383110046386719
aF0.80191540718078613
aa(lp14
F-5.3517990112304688
aF2.0629415512084961
aF0.8060905933380127
aa(lp15
F-5.3434462547302246
aF2.0790262222290039
aF0.80581223964691162
aa(lp16
F-5.3302445411682129
aF2.0910465717315669
aF0.8046988844871521
aa(lp17
F-5.3328561782836914
aF2.1114273071289058
aF0.8060905933380127
aa(lp18
F-5.3236312866210938
aF2.1239135265350342
aF0.80553388595581055
aa(lp19
F-5.3095836639404297
aF2.1376690864562988
aF0.80442053079605103
aa(lp20
F-5.3270730972290039
aF2.163100004196167
aF0.80803900957107544
aaa(lp21
(lp22
F-5.3439955711364746
aF2.025725364685059
aF0.66833114624023438
aa(lp23
F-5.3361058235168457
aF2.0408627986907959
aF0.6680988073348999
aa(lp24
F-5.3511333465576172
aF2.0626847743988042
aF0.67065411806106567
aa(lp25
F-5.3520321846008301
aF2.082366943359375
aF0.67158335447311401
aa(lp26
F-5.338798999786377
aF2.094402551651001
aF0.67065411806106567
aa(lp27
F-5.3358869552612314
aF2.1126270294189449
aF0.67111873626708984
aa(lp28
F-5.3229575157165527
aF2.1236448287963872
aF0.67018955945968628
aa(lp29
F-5.3181023597717294
aF2.1410987377166748
aF0.67042183876037598
aa(lp30
F-5.2970023155212402
aF2.15088963508606
aF0.66856342554092407
aaa(lp31
(lp32
F-5.3370184898376474
aF2.0220155715942378
aF0.53245657682418823
aa(lp33
F-5.3291354179382324
aF2.0371308326721191
aF0.53227078914642334
aa(lp34
F-5.3330750465393066
aF2.0546548366546631
aF0.53319966793060303
aa(lp35
F-5.3377299308776864
aF2.075729608535767
aF0.53431439399719238
aa(lp36
F-5.3319125175476074
aF2.0906271934509282
aF0.53431439399719238
aa(lp37
F-5.3271698951721191
aF2.108100414276123
aF0.53450018167495728
aa(lp38
F-5.3216323852539062
aF2.1220395565032959
aF0.53450018167495728
aa(lp39
F-5.3093976974487314
aF2.1365172863006592
aF0.5339428186416626
aa(lp40
F-5.3141059875488281
aF2.1567544937133789
aF0.53505754470825195
aaa(lp41
(lp42
F-5.3344306945800781
aF2.0199704170227051
aF0.39886751770973211
aa(lp43
F-5.3284134864807129
aF2.035789012908936
aF0.39886751770973211
aa(lp44
F-5.3230657577514648
aF2.0497317314147949
aF0.39886751770973211
aa(lp45
F-5.3277578353881836
aF2.0707812309265141
aF0.39970460534095759
aa(lp46
F-5.3275270462036133
aF2.0878350734710689
aF0.4001231193542481
aa(lp47
F-5.3283624649047852
aF2.1074967384338379
aF0.40068119764327997
aa(lp48
F-5.3135600090026864
aF2.1177458763122559
aF0.3999836146831513
aa(lp49
F-5.3068809509277344
aF2.1344285011291499
aF0.3999836146831513
aa(lp50
F-5.3171639442443848
aF2.1569144725799561
aF0.40123924612998962
aaa(lp51
(lp52
F-5.3573322296142578
aF2.009421586990356
aF0.26682987809181208
aa(lp53
F-5.3289251327514648
aF2.0168220996856689
aF0.26571187376976008
aa(lp54
F-5.3191847801208496
aF2.0311992168426509
aF0.26552554965019232
aa(lp55
F-5.3194422721862793
aF2.0472705364227299
aF0.26580503582954412
aa(lp56
F-5.3334689140319824
aF2.0719296932220459
aF0.26682987809181208
aa(lp57
F-5.327662467956543
aF2.0868155956268311
aF0.26682987809181208
aa(lp58
F-5.3173642158508301
aF2.1020736694335942
aF0.26664355397224432
aa(lp59
F-5.3155550956726074
aF2.117465734481812
aF0.26682987809181208
aa(lp60
F-5.3125839233398438
aF2.135644912719727
aF0.26701620221138
aa(lp61
F-5.296966552734375
aF2.147644996643066
aF0.26655039191246033
aaa(lp62
(lp63
F-5.3676772117614746
aF2.0122330188751221
aF0.13309068977832789
aa(lp64
F-5.3504624366760254
aF2.023905992507935
aF0.13281217217445371
aa(lp65
F-5.3425660133361816
aF2.039059162139893
aF0.13276574015617371
aa(lp66
F-5.3446741104125977
aF2.0559103488922119
aF0.13295142352581019
aa(lp67
F-5.3568277359008789
aF2.0799281597137451
aF0.13341563940048221
aa(lp68
F-5.3472747802734384
aF2.0934212207794189
aF0.13332280516624451
aa(lp69
F-5.3350930213928223
aF2.1080055236816411
aF0.13318353891372681
aa(lp70
F-5.3332715034484863
aF2.123444795608521
aF0.1332763880491257
aa(lp71
F-5.3265738487243652
aF2.1401891708374019
aF0.1332763880491257
aaa(lp72
(lp73
F-5.3331494331359863
aF2.034399032592773
aF0
aa(lp74
F-5.3222050666809082
aF2.0462009906768799
aF0
aa(lp75
F-5.3511762619018564
aF2.0766589641571049
aF0
aa(lp76
F-5.3379063606262207
aF2.0886790752410889
aF0
aa(lp77
F-5.3313183784484863
aF2.105438232421875
aF0
aa(lp78
F-5.3276462554931641
aF2.12012791633606
aF0
aa(lp79
F-5.3191032409667969
aF2.136109352111816
aF0
aa(lp80
F-5.2775216102600098
aF2.1376161575317378
aF0
aaa(lp81
(lp82
F-5.3493051528930664
aF2.004280805587769
aF-0.13262647390365601
aa(lp83
F-5.3377237319946289
aF2.0180225372314449
aF-0.13248720765113831
aa(lp84
F-5.3335809707641602
aF2.034563541412354
aF-0.13253363966941831
aa(lp85
F-5.3319687843322754
aF2.049954891204834
aF-0.13262647390365601
aa(lp86
F-5.3441424369812012
aF2.0739293098449711
aF-0.13309068977832789
aa(lp87
F-5.3401923179626474
aF2.0895736217498779
aF-0.133137121796608
aa(lp88
F-5.3317418098449707
aF2.1056056022644039
aF-0.13309068977832789
aa(lp89
F-5.3243532180786133
aF2.1188173294067378
aF-0.13304427266120911
aa(lp90
F-5.3195257186889648
aF2.1362791061401372
aF-0.13309068977832789
aaa(lp91
(lp92
F-5.3509001731872559
aF2.0038135051727299
aF-0.266457200050354
aa(lp93
F-5.324373722076416
aF2.0119130611419682
aF-0.26543238759040833
aa(lp94
F-5.3202476501464844
aF2.0284137725830078
aF-0.26552554965019232
aa(lp95
F-5.3149189949035653
aF2.042335033416748
aF-0.26552554965019232
aa(lp96
F-5.3289651870727539
aF2.0669693946838379
aF-0.26655039191246033
aa(lp97
F-5.3306150436401367
aF2.084753274917603
aF-0.26692304015159612
aa(lp98
F-5.3184642791748047
aF2.099289178848267
aF-0.26664355397224432
aa(lp99
F-5.3092374801635742
aF2.1117289066314702
aF-0.266457200050354
aa(lp100
F-5.3118472099304199
aF2.132118940353394
aF-0.26692304015159612
aa(lp101
F-5.3092012405395508
aF2.149369478225708
aF-0.26710936427116388
aaa(lp102
(lp103
F-5.3477530479431152
aF2.0015707015991211
aF-0.3992860615253449
aa(lp104
F-5.3361911773681641
aF2.0153143405914311
aF-0.39886751770973211
aa(lp105
F-5.3283238410949707
aF2.0304279327392578
aF-0.39872801303863531
aa(lp106
F-5.3360271453857422
aF2.0493776798248291
aF-0.39970460534095759
aa(lp107
F-5.3370037078857422
aF2.069015741348267
aF-0.40026265382766718
aa(lp108
F-5.331204891204834
aF2.0839114189147949
aF-0.40026265382766718
aa(lp109
F-5.3246321678161621
aF2.1006495952606201
aF-0.40026265382766718
aa(lp110
F-5.3135523796081543
aF2.1123709678649898
aF-0.39984411001205439
aa(lp111
F-5.3142967224121094
aF2.132025003433228
aF-0.40040215849876398
aaa(lp112
(lp113
F-5.3640928268432617
aF2.0066192150115971
aF-0.53431439399719238
aa(lp114
F-5.3469371795654297
aF2.0183064937591548
aF-0.53319966793060303
aa(lp115
F-5.3409252166748047
aF2.034162282943726
aF-0.53319966793060303
aa(lp116
F-5.3523130416870117
aF2.054560661315918
aF-0.53487175703048706
aa(lp117
F-5.351402759552002
aF2.0735235214233398
aF-0.53542912006378174
aa(lp118
F-5.34002685546875
aF2.0862853527069092
aF-0.53487175703048706
aa(lp119
F-5.3390040397644043
aF2.1052427291870122
aF-0.53542912006378174
aa(lp120
F-5.335324764251709
aF2.1199483871459961
aF-0.53561490774154663
aa(lp121
F-5.3323349952697754
aF2.1381814479827881
aF-0.53598648309707642
aa(lp122
F-5.3518128395080566
aF2.164446115493774
aF-0.53858745098114014
aaa(lp123
(lp124
F-5.3642969131469727
aF2.005628347396851
aF-0.66972494125366211
aa(lp125
F-5.3434534072875977
aF2.0159261226654048
aF-0.66786652803421021
aa(lp126
F-5.3430180549621582
aF2.0338916778564449
aF-0.66856342554092407
aa(lp127
F-5.3543667793273926
aF2.054276704788208
aF-0.67065411806106567
aa(lp128
F-5.3497390747070312
aF2.0718052387237549
aF-0.67088645696640015
aa(lp129
F-5.3457832336425781
aF2.0874590873718262
aF-0.67111873626708984
aa(lp130
F-5.3391990661621094
aF2.1042430400848389
aF-0.67111873626708984
aa(lp131
F-5.329979419708252
aF2.116747379302979
aF-0.67065411806106567
aa(lp132
F-5.3306784629821777
aF2.1364374160766602
aF-0.67158335447311401
aa(lp133
F-5.3372082710266113
aF2.157455682754517
aF-0.67320942878723145
aaa(lp134
(lp135
F-5.3560609817504883
aF2.001483678817749
aF-0.8035854697227478
aa(lp136
F-5.3278608322143564
aF2.0089812278747559
aF-0.80024534463882446
aa(lp137
F-5.3366851806640634
aF2.0304148197174068
aF-0.80247211456298828
aa(lp138
F-5.3359847068786621
aF2.065407514572144
aF-0.80414217710494995
aa(lp139
F-5.3338861465454102
aF2.0817403793334961
aF-0.8046988844871521
aa(lp140
F-5.3346905708312988
aF2.1013906002044682
aF-0.80581223964691162
aa(lp141
F-5.3199667930603027
aF2.1116960048675542
aF-0.80442053079605103
aa(lp142
F-5.3206605911254883
aF2.1313445568084721
aF-0.80553388595581055
aa(lp143
F-5.317986011505127
aF2.1486058235168461
aF-0.8060905933380127
aaa(lp144
(lp145
F-5.3167819976806641
aF2.0037438869476318
aF-0.93348991870880127
aa(lp146
F-5.3218812942504883
aF2.0237190723419189
aF-0.93543535470962524
aa(lp147
F-5.3340654373168954
aF2.0635941028594971
aF-0.93965047597885132
aa(lp148
F-5.3301205635070801
aF2.079198837280273
aF-0.93997472524642944
aa(lp149
F-5.3198895454406738
aF2.0944876670837398
aF-0.93932622671127319
aa(lp150
F-5.3125534057617188
aF2.107680082321167
aF-0.93900203704833984
aa(lp151
F-5.3150663375854492
aF2.1280274391174321
aF-0.94062322378158569
aa(lp152
F-5.3306884765625
aF2.1526558399200439
aF-0.94451409578323364
aaa(lp153
(lp154
F-5.3423480987548828
aF1.992110013961792
aF-1.0742524862289431
aa(lp155
F-5.3257265090942383
aF2.002869844436646
aF-1.072030663490295
aa(lp156
F-5.3252730369567871
aF2.0207545757293701
aF-1.0731415748596189
aa(lp157
F-5.3395752906799316
aF2.0603706836700439
aF-1.078325748443604
aa(lp158
F-5.3495588302612314
aF2.083554744720459
aF-1.0816584825515749
aa(lp159
F-5.3418898582458496
aF2.0977671146392818
aF-1.08128821849823
aa(lp160
F-5.3261375427246094
aF2.1109180450439449
aF-1.079436659812927
aa(lp161
F-5.3351950645446777
aF2.1306860446929932
aF-1.0823991298675539
aa(lp162
F-5.3375897407531738
aF2.151109933853149
aF-1.084250688552856
aaa(lp163
(lp164
F-5.352623462677002
aF2.0119187831878662
aF-1.215451717376709
aa(lp165
F-5.3319969177246094
aF2.022241592407227
aF-1.212125182151794
aa(lp166
F-5.358860969543457
aF2.05063796043396
aF-1.2196099758148189
aa(lp167
F-5.3378462791442871
aF2.0779201984405522
aF-1.2175308465957639
aa(lp168
F-5.3356647491455078
aF2.094247579574585
aF-1.21836245059967
aa(lp169
F-5.3272404670715332
aF2.1102793216705318
aF-1.2179466485977171
aa(lp170
F-5.3253312110900879
aF2.1256692409515381
aF-1.2187783718109131
aaa.