(lp1
(lp2
(lp3
F-4.3763160705566406
aF-0.066456682980060577
aF-0.1016168594360352
aa(lp4
F-4.3564915657043457
aF-0.053987696766853333
aF-0.10115264356136321
aa(lp5
F-4.3486418724060059
aF-0.040227152407169342
aF-0.1009669527411461
aa(lp6
F-4.3427391052246094
aF-0.028044575825333599
aF-0.100827693939209
aa(lp7
F-4.3348054885864258
aF-0.01513138692826033
aF-0.10064200311899189
aa(lp8
F-4.3288331031799316
aF-0.0022665718570351601
aF-0.10050273686647419
aa(lp9
F-4.3228240013122559
aF0.0098081929609179497
aF-0.1003634780645371
aa(lp10
F-4.2987866401672363
aF0.0217582993209362
aF-0.099806413054466248
aa(lp11
F-4.240720272064209
aF0.034047417342662811
aF-0.098460189998149872
aa(lp12
F-4.2505893707275391
aF0.047481514513492577
aF-0.09869229793548584
aa(lp13
F-4.2284584045410156
aF0.05830610916018486
aF-0.098181657493114471
aaa(lp14
(lp15
F-4.4037160873413086
aF-0.2200004905462265
aF-0.20561926066875461
aa(lp16
F-4.4003582000732422
aF-0.20674592256546021
aF-0.20543292164802551
aa(lp17
F-4.3829555511474609
aF-0.19366331398487091
aF-0.20459441840648651
aa(lp18
F-4.3754949569702148
aF-0.1810925900936127
aF-0.2042217552661896
aa(lp19
F-4.3680567741394043
aF-0.1670403182506561
aF-0.2038490772247315
aa(lp20
F-4.3584961891174316
aF-0.15524862706661219
aF-0.2033832520246506
aa(lp21
F-4.3389945030212402
aF-0.14090682566165921
aF-0.20245158672332761
aa(lp22
F-4.3074202537536621
aF-0.12784124910831449
aF-0.2009609043598175
aa(lp23
F-4.2938003540039062
aF-0.1146869286894798
aF-0.2003087401390076
aa(lp24
F-4.276146411895752
aF-0.1015197262167931
aF-0.19947023689746859
aa(lp25
F-4.290379524230957
aF-0.090619780123233795
aF-0.2001224160194397
aa(lp26
F-4.2466979026794434
aF-0.076350651681423187
aF-0.19807273149490359
aa(lp27
F-4.2548732757568359
aF-0.065355300903320312
aF-0.19844540953636169
aa(lp28
F-4.2570371627807617
aF-0.053498320281505592
aF-0.1985385715961456
aa(lp29
F-4.2132339477539062
aF-0.039709970355033881
aF-0.19648890197277069
aaa(lp30
(lp31
F-4.3339605331420898
aF-0.21727396547794339
aF-0.30344066023826599
aa(lp32
F-4.3086786270141602
aF-0.20319211483001709
aF-0.30162698030471802
aa(lp33
F-4.3311538696289062
aF-0.192131832242012
aF-0.30316162109375
aa(lp34
F-4.297785758972168
aF-0.17862775921821589
aF-0.30078992247581482
aa(lp35
F-4.3023128509521484
aF-0.16527819633483889
aF-0.30106893181800842
aa(lp36
F-4.2748169898986816
aF-0.15301504731178281
aF-0.2991157472133637
aa(lp37
F-4.2334012985229492
aF-0.13821737468242651
aF-0.29618600010871893
aa(lp38
F-4.215822696685791
aF-0.12585914134979251
aF-0.29493036866188049
aa(lp39
F-4.2500824928283691
aF-0.11426153033971791
aF-0.29730209708213812
aaa(lp40
(lp41
F-4.4492206573486328
aF-0.35172399878501892
aF-0.31209045648574829
aa(lp42
F-4.4282436370849609
aF-0.33840253949165339
aF-0.31055581569671631
aa(lp43
F-4.4192795753479004
aF-0.32453158497810358
aF-0.30985826253890991
aa(lp44
F-4.4102721214294434
aF-0.31071683764457703
aF-0.30916067957878107
aa(lp45
F-4.4050984382629403
aF-0.29876470565795898
aF-0.30874216556549072
aa(lp46
F-4.3860564231872559
aF-0.28440225124359131
aF-0.30734702944755549
aa(lp47
F-4.3669676780700684
aF-0.27015542984008789
aF-0.30595189332962042
aaa(lp48
(lp49
F-4.4808201789855957
aF-0.4606766402721405
aF-0.42024311423301702
aa(lp50
F-4.4702000617980957
aF-0.4469732940196991
aF-0.41912838816642761
aa(lp51
F-4.4636540412902832
aF-0.43215996026992798
aF-0.41838526725769037
aa(lp52
F-4.4290838241577148
aF-0.41711187362670898
aF-0.41504114866256708
aa(lp53
F-4.4402880668640137
aF-0.40409785509109503
aF-0.4159700870513916
aa(lp54
F-4.4214944839477539
aF-0.3907189667224884
aF-0.41411224007606512
aa(lp55
F-4.4205842018127441
aF-0.37820056080818182
aF-0.41392645239830023
aa(lp56
F-4.4296889305114746
aF-0.36496511101722717
aF-0.41466960310935969
aa(lp57
F-4.4228734970092773
aF-0.35041794180870062
aF-0.41392645239830023
aaa(lp58
(lp59
F-4.5327472686767578
aF-0.35991916060447687
aF-0.53173792362213135
aa(lp60
F-4.4940609931945801
aF-0.34501016139984131
aF-0.5270918607711792
aa(lp61
F-4.4594058990478516
aF-0.32904335856437678
aF-0.522910475730896
aa(lp62
F-4.4524364471435547
aF-0.31524941325187678
aF-0.52198123931884766
aa(lp63
F-4.4433369636535653
aF-0.30291634798049932
aF-0.52081972360610962
aa(lp64
F-4.4501628875732422
aF-0.29011905193328857
aF-0.52151662111282349
aa(lp65
F-4.4430737495422363
aF-0.27642050385475159
aF-0.52058744430541992
aa(lp66
F-4.4239988327026367
aF-0.26283395290374761
aF-0.51826441287994385
aa(lp67
F-4.4426088333129883
aF-0.25071388483047491
aF-0.52035516500473022
aa(lp68
F-4.4611859321594238
aF-0.2384856790304184
aF-0.52244585752487183
aa(lp69
F-4.4301309585571289
aF-0.22364556789398191
aF-0.51872903108596802
aa(lp70
F-4.4129166603088379
aF-0.2096517235040665
aF-0.51663833856582642
aaa(lp71
(lp72
F-4.574984073638916
aF-0.64704382419586182
aF-0.54033303260803223
aa(lp73
F-4.5670452117919922
aF-0.63210505247116089
aF-0.53917157649993896
aa(lp74
F-4.5569815635681152
aF-0.617747962474823
aF-0.53777772188186646
aa(lp75
F-4.5431456565856934
aF-0.60134345293045044
aF-0.53591930866241455
aa(lp76
F-4.5369272232055664
aF-0.58763360977172852
aF-0.53499013185501099
aa(lp77
F-4.5269260406494141
aF-0.57188373804092407
aF-0.53359633684158325
aa(lp78
F-4.5145101547241211
aF-0.55911159515380859
aF-0.53197020292282104
aa(lp79
F-4.5063834190368652
aF-0.54373633861541748
aF-0.53080868721008301
aa(lp80
F-4.494074821472168
aF-0.52952289581298828
aF-0.52918261289596558
aa(lp81
F-4.4817218780517578
aF-0.51538240909576416
aF-0.52755647897720337
aa(lp82
F-4.485292911529541
aF-0.50152093172073364
aF-0.52778875827789307
aaa(lp83
(lp84
F-4.6222019195556641
aF-0.68089890480041504
aF-0.65661871433258057
aa(lp85
F-4.5888023376464844
aF-0.66289162635803223
aF-0.65160846710205078
aa(lp86
F-4.5710258483886719
aF-0.64729779958724976
aF-0.64882498979568481
aa(lp87
F-4.5552701950073242
aF-0.63128560781478882
aF-0.64631986618041992
aa(lp88
F-4.5334649085998544
aF-0.61536574363708496
aF-0.64297974109649658
aa(lp89
F-4.5177054405212402
aF-0.59877842664718628
aF-0.64047461748123169
aa(lp90
F-4.5036468505859384
aF-0.58412235975265503
aF-0.63824784755706787
aa(lp91
F-4.4897408485412598
aF-0.56798231601715088
aF-0.63602107763290405
aa(lp92
F-4.4832534790039062
aF-0.55603504180908203
aF-0.63490766286849976
aa(lp93
F-4.4731807708740234
aF-0.54052221775054932
aF-0.63323760032653809
aa(lp94
F-4.4687719345092773
aF-0.5273323655128479
aF-0.63240259885787964
aa(lp95
F-4.4623570442199707
aF-0.51394468545913696
aF-0.63128918409347534
aa(lp96
F-4.450171947479248
aF-0.49838030338287348
aF-0.6293407678604126
aa(lp97
F-4.4397335052490234
aF-0.48466160893440252
aF-0.62767070531845093
aa(lp98
F-4.4352436065673828
aF-0.47085928916931152
aF-0.62683564424514771
aa(lp99
F-4.4228305816650391
aF-0.45627489686012268
aF-0.62488722801208496
aa(lp100
F-4.418175220489502
aF-0.44332906603813171
aF-0.62405216693878174
aa(lp101
F-4.4116616249084473
aF-0.42868059873580933
aF-0.62293881177902222
aa(lp102
F-4.4029097557067871
aF-0.4161975085735321
aF-0.62154704332351685
aa(lp103
F-4.4002509117126474
aF-0.4020029604434967
aF-0.62099039554595947
aa(lp104
F-4.3914241790771484
aF-0.38960662484169012
aF-0.6195986270904541
aa(lp105
F-4.3944683074951172
aF-0.37751147150993353
aF-0.61987698078155518
aaa(lp106
(lp107
F-4.5270023345947266
aF-0.74862861633300781
aF-0.75386041402816772
aa(lp108
F-4.4901156425476074
aF-0.72965288162231445
aF-0.74737554788589478
aa(lp109
F-4.4747204780578613
aF-0.71353036165237427
aF-0.7444574236869812
aa(lp110
F-4.461097240447998
aF-0.69858914613723755
aF-0.74186348915100098
aa(lp111
F-4.4535160064697266
aF-0.68307477235794067
aF-0.74024224281311035
aa(lp112
F-4.443580150604248
aF-0.66964864730834961
aF-0.73829680681228638
aa(lp113
F-4.4417572021484384
aF-0.65510952472686768
aF-0.73764830827713013
aa(lp114
F-4.4338030815124512
aF-0.64129072427749634
aF-0.73602712154388428
aa(lp115
F-4.4277606010437012
aF-0.62779849767684937
aF-0.73473018407821655
aa(lp116
F-4.417874813079834
aF-0.61303079128265381
aF-0.73278474807739258
aa(lp117
F-4.4097919464111328
aF-0.59936243295669556
aF-0.73116350173950195
aa(lp118
F-4.4057841300964364
aF-0.58472681045532227
aF-0.73019081354141235
aa(lp119
F-4.399571418762207
aF-0.57140451669692993
aF-0.72889381647109985
aa(lp120
F-4.3935132026672363
aF-0.55658793449401855
aF-0.72759687900543213
aa(lp121
F-4.388984203338623
aF-0.54512113332748413
aF-0.72662413120269775
aa(lp122
F-4.382838249206543
aF-0.53038173913955688
aF-0.72532719373703003
aa(lp123
F-4.378422737121582
aF-0.51744562387466431
aF-0.72435444593429565
aa(lp124
F-4.3759293556213379
aF-0.50476443767547607
aF-0.7237059473991394
aa(lp125
F-4.3735709190368652
aF-0.49057459831237787
aF-0.72305750846862793
aa(lp126
F-4.3729619979858398
aF-0.47814488410949713
aF-0.7227332592010498
aa(lp127
F-4.368474006652832
aF-0.46454188227653498
aF-0.72176051139831543
aa(lp128
F-4.3639440536499023
aF-0.45096975564956671
aF-0.72078782320022583
aa(lp129
F-4.3651862144470224
aF-0.43878155946731567
aF-0.72078782320022583
aa(lp130
F-4.3645792007446289
aF-0.4248745739459992
aF-0.72046357393264771
aa(lp131
F-4.3617467880249023
aF-0.4130745530128479
aF-0.71981507539749146
aa(lp132
F-4.3689188957214364
aF-0.39990940690040588
aF-0.72078782320022583
aa(lp133
F-4.3660192489624023
aF-0.38812074065208441
aF-0.72013932466506958
aa(lp134
F-4.3729848861694336
aF-0.3764348030090332
aF-0.72111207246780396
aa(lp135
F-4.3721795082092294
aF-0.36253172159194952
aF-0.72078782320022583
aa(lp136
F-4.3732967376708984
aF-0.3487943708896637
aF-0.72078782320022583
aa(lp137
F-4.3741946220397949
aF-0.33734393119812012
aF-0.72078782320022583
aa(lp138
F-4.3712401390075684
aF-0.32407212257385248
aF-0.72013932466506958
aa(lp139
F-4.3749508857727051
aF-0.29978850483894348
aF-0.72046357393264771
aa(lp140
F-4.3856678009033203
aF-0.28745183348655701
aF-0.72208476066589355
aa(lp141
F-4.3746829032897949
aF-0.27369865775108337
aF-0.72013932466506958
aa(lp142
F-4.3793702125549316
aF-0.26171666383743292
aF-0.72078782320022583
aa(lp143
F-4.3919496536254883
aF-0.24939298629760739
aF-0.7227332592010498
aa(lp144
F-4.3729634284973153
aF-0.2353003472089768
aF-0.71949082612991333
aa(lp145
F-4.3480195999145508
aF-0.2210219949483872
aF-0.71527570486068726
aaa(lp146
(lp147
F-4.34112548828125
aF-0.43865910172462458
aF-0.82207530736923218
aa(lp148
F-4.3305974006652832
aF-0.42538189888000488
aF-0.81985348463058472
aa(lp149
F-4.326042652130127
aF-0.41121688485145569
aF-0.81874257326126099
aa(lp150
F-4.3231902122497559
aF-0.39952820539474487
aF-0.81800198554992676
aa(lp151
F-4.3205089569091797
aF-0.38559514284133911
aF-0.81726133823394775
aa(lp152
F-4.3234615325927734
aF-0.37445235252380371
aF-0.81763166189193726
aa(lp153
F-4.3244905471801758
aF-0.36237752437591553
aF-0.81763166189193726
aa(lp154
F-4.3256072998046884
aF-0.34878996014595032
aF-0.81763166189193726
aa(lp155
F-4.3306012153625488
aF-0.33550259470939642
aF-0.81837224960327148
aa(lp156
F-4.325584888458252
aF-0.32372394204139709
aF-0.81726133823394775
aa(lp157
F-4.330446720123291
aF-0.31116998195648188
aF-0.81800198554992676
aa(lp158
F-4.3333120346069336
aF-0.29845499992370611
aF-0.81837224960327148
aa(lp159
F-4.3419227600097656
aF-0.28762903809547419
aF-0.81985348463058472
aa(lp160
F-4.3506031036376953
aF-0.2752414345741272
aF-0.82133471965789795
aa(lp161
F-4.3514008522033691
aF-0.2623317539691925
aF-0.82133471965789795
aaa(lp162
(lp163
F-4.475367546081543
aF-0.63693916797637939
aF-0.85169965028762817
aa(lp164
F-4.455716609954834
aF-0.62145262956619263
aF-0.84762626886367798
aa(lp165
F-4.4458565711975098
aF-0.60663527250289917
aF-0.84540444612503052
aa(lp166
F-4.447533130645752
aF-0.59421771764755249
aF-0.84540444612503052
aa(lp167
F-4.4415826797485352
aF-0.57922583818435669
aF-0.84392327070236206
aa(lp168
F-4.4548802375793457
aF-0.56831264495849609
aF-0.84614509344100952
aa(lp169
F-4.444941520690918
aF-0.55285888910293579
aF-0.84392327070236206
aa(lp170
F-4.4560341835021973
aF-0.54318535327911377
aF-0.84577476978302002
aa(lp171
F-4.4655251502990723
aF-0.53011041879653931
aF-0.84725600481033325
aa(lp172
F-4.4747977256774902
aF-0.51854324340820312
aF-0.84873718023300171
aa(lp173
F-4.4781813621520996
aF-0.50626599788665771
aF-0.84910750389099121
aa(lp174
F-4.4563055038452148
aF-0.48961910605430597
aF-0.84466385841369629
aaa(lp175
(lp176
F-4.2937655448913574
aF-0.34697669744491583
aF-0.91564309597015381
aa(lp177
F-4.2831315994262704
aF-0.33257707953453058
aF-0.91314816474914551
aa(lp178
F-4.2820367813110352
aF-0.3212164044380188
aF-0.91273230314254761
aa(lp179
F-4.2849221229553223
aF-0.30865049362182623
aF-0.91314816474914551
aa(lp180
F-4.2897224426269531
aF-0.29620504379272461
aF-0.91397976875305176
aa(lp181
F-4.2963395118713379
aF-0.28536254167556763
aF-0.91522723436355591
aa(lp182
F-4.3030242919921884
aF-0.27298539876937872
aF-0.91647475957870483
aa(lp183
F-4.3096733093261719
aF-0.26057106256484991
aF-0.91772222518920898
aa(lp184
F-4.3162431716918954
aF-0.2488730251789093
aF-0.91896969079971313
aa(lp185
F-4.3228230476379403
aF-0.23638585209846499
aF-0.92021715641021729
aa(lp186
F-4.3293662071228027
aF-0.22386181354522711
aF-0.92146462202072144
aa(lp187
F-4.3339195251464844
aF-0.21120581030845639
aF-0.92229628562927246
aa(lp188
F-4.3657951354980469
aF-0.1997767090797424
aF-0.92894941568374634
aaa(lp189
(lp190
F-4.5190510749816903
aF-0.77813911437988281
aF-0.9746900200843811
aa(lp191
F-4.4980602264404297
aF-0.76159751415252686
aF-0.96970009803771973
aa(lp192
F-4.4906511306762704
aF-0.74664384126663208
aF-0.96762102842330933
aa(lp193
F-4.4831929206848153
aF-0.73174089193344116
aF-0.96554189920425415
aa(lp194
F-4.479423999786377
aF-0.71828937530517578
aF-0.96429443359375
aa(lp195
F-4.4815354347229004
aF-0.70499551296234131
aF-0.96429443359375
aa(lp196
F-4.4834866523742676
aF-0.6924780011177063
aF-0.96429443359375
aa(lp197
F-4.4798374176025391
aF-0.67751169204711914
aF-0.96304696798324585
aa(lp198
F-4.481595516204834
aF-0.66578119993209839
aF-0.96304696798324585
aa(lp199
F-4.4836649894714364
aF-0.65169858932495117
aF-0.96304696798324585
aa(lp200
F-4.4912776947021484
aF-0.6400032639503479
aF-0.96429443359375
aa(lp201
F-4.4833598136901864
aF-0.6261059045791626
aF-0.96221530437469482
aa(lp202
F-4.4910130500793457
aF-0.61359524726867676
aF-0.96346276998519897
aa(lp203
F-4.4771966934204102
aF-0.59897631406784058
aF-0.96013617515563965
aa(lp204
F-4.4712967872619629
aF-0.58389461040496826
aF-0.95847290754318237
aa(lp205
F-4.4612669944763184
aF-0.56991869211196899
aF-0.95597797632217407
aa(lp206
F-4.4494462013244629
aF-0.55420786142349243
aF-0.95306718349456787
aa(lp207
F-4.4236011505126953
aF-0.54001533985137939
aF-0.94724565744400024
aa(lp208
F-4.4097347259521484
aF-0.52426791191101074
aF-0.94391906261444092
aa(lp209
F-4.3820328712463379
aF-0.50856864452362061
aF-0.93768173456192017
aa(lp210
F-4.3542776107788086
aF-0.4930281937122345
aF-0.93144434690475464
aa(lp211
F-4.3499712944030762
aF-0.47870445251464838
aF-0.93019688129425049
aa(lp212
F-4.3649072647094727
aF-0.46801513433456421
aF-0.93310767412185669
aa(lp213
F-4.3701682090759277
aF-0.45546773076057429
aF-0.93393933773040771
aa(lp214
F-4.3559298515319824
aF-0.4409230649471283
aF-0.93061274290084839
aa(lp215
F-4.3707723617553711
aF-0.43009835481643682
aF-0.93352347612380981
aa(lp216
F-4.3662590980529794
aF-0.41580867767333979
aF-0.93227601051330566
aa(lp217
F-4.386812686920166
aF-0.40618008375167852
aF-0.93643426895141602
aa(lp218
F-4.3880667686462402
aF-0.39239650964736938
aF-0.93643426895141602
aaa(lp219
(lp220
F-4.2703385353088379
aF-0.30834919214248657
aF-1.0144608020782471
aa(lp221
F-4.2615270614624023
aF-0.29500550031661987
aF-1.012155175209045
aa(lp222
F-4.2700519561767578
aF-0.28436511754989618
aF-1.0139995813369751
aa(lp223
F-4.2767038345336914
aF-0.27206504344940191
aF-1.0153830051422119
aa(lp224
F-4.2852621078491211
aF-0.2598457932472229
aF-1.017227411270142
aa(lp225
F-4.2898569107055664
aF-0.2481028139591217
aF-1.018149733543396
aa(lp226
F-4.298346996307373
aF-0.2357998788356781
aF-1.0199941396713259
aa(lp227
F-4.3106884956359863
aF-0.22365041077136991
aF-1.02276086807251
aa(lp228
F-4.315220832824707
aF-0.21104951202869421
aF-1.0236830711364751
aa(lp229
F-4.3177719116210938
aF-0.19833438098430631
aF-1.024144291877747
aaa(lp230
(lp231
F-4.5101652145385742
aF-0.8033827543258667
aF-1.085472941398621
aa(lp232
F-4.5028061866760254
aF-0.78910523653030396
aF-1.0831674337387089
aa(lp233
F-4.4973211288452148
aF-0.77520561218261719
aF-1.081322908401489
aa(lp234
F-4.4898743629455566
aF-0.76101762056350708
aF-1.079017281532288
aa(lp235
F-4.5151491165161133
aF-0.75152689218521118
aF-1.084550738334656
aa(lp236
F-4.5059523582458496
aF-0.723349928855896
aF-1.081322908401489
aa(lp237
F-4.5215353965759277
aF-0.7120966911315918
aF-1.084550738334656
aa(lp238
F-4.5100436210632324
aF-0.69738566875457764
aF-1.081322908401489
aa(lp239
F-4.496819019317627
aF-0.68088275194168091
aF-1.0776339769363401
aa(lp240
F-4.4735617637634277
aF-0.66538572311401367
aF-1.07163941860199
aa(lp241
F-4.4812846183776864
aF-0.63937729597091675
aF-1.0725617408752439
aa(lp242
F-4.4734158515930176
aF-0.62551319599151611
aF-1.0702561140060429
aa(lp243
F-4.465611457824707
aF-0.61091864109039307
aF-1.067950487136841
aa(lp244
F-4.4480109214782724
aF-0.59586197137832642
aF-1.0633393526077271
aa(lp245
F-4.4479312896728516
aF-0.58163291215896606
aF-1.0628782510757451
aa(lp246
F-4.4418168067932129
aF-0.56822186708450317
aF-1.0610337257385249
aa(lp247
F-4.4339241981506348
aF-0.55306035280227661
aF-1.058728098869324
aa(lp248
F-4.4236717224121094
aF-0.54080760478973389
aF-1.0559613704681401
aa(lp249
F-4.4094052314758301
aF-0.51252537965774536
aF-1.0518113374710081
aa(lp250
F-4.3876147270202637
aF-0.49757850170135498
aF-1.0462778806686399
aa(lp251
F-4.4162378311157227
aF-0.48677703738212591
aF-1.0527335405349729
aa(lp252
F-4.4040350914001474
aF-0.47298797965049738
aF-1.0495057106018071
aa(lp253
F-4.3783206939697266
aF-0.45708984136581421
aF-1.0430500507354741
aa(lp254
F-4.3370614051818848
aF-0.43977788090705872
aF-1.0329054594039919
aa(lp255
F-4.3305258750915527
aF-0.42690113186836243
aF-1.031061053276062
aa(lp256
F-4.3337826728820801
aF-0.41347911953926092
aF-1.031522154808044
aa(lp257
F-4.3329124450683594
aF-0.40195214748382568
aF-1.031061053276062
aa(lp258
F-4.3419075012207031
aF-0.38903263211250311
aF-1.0329054594039919
aa(lp259
F-4.3390336036682129
aF-0.37732702493667603
aF-1.0319832563400271
aa(lp260
F-4.3517055511474609
aF-0.3661878108978272
aF-1.0347499847412109
aa(lp261
F-4.3625335693359384
aF-0.35330021381378168
aF-1.037055611610413
aaa(lp262
(lp263
F-4.5110759735107422
aF-0.77838736772537231
aF-1.1983858346939089
aa(lp264
F-4.4979720115661621
aF-0.76319772005081177
aF-1.1943337917327881
aa(lp265
F-4.4849486351013184
aF-0.74730461835861206
aF-1.190281867980957
aa(lp266
F-4.4775991439819336
aF-0.73243254423141479
aF-1.1877492666244509
aa(lp267
F-4.498995304107666
aF-0.69648128747940063
aF-1.1918013095855711
aa(lp268
F-4.5088129043579102
aF-0.68350380659103394
aF-1.1938273906707759
aa(lp269
F-4.502932071685791
aF-0.67055749893188477
aF-1.1918013095855711
aa(lp270
F-4.5031018257141113
aF-0.65612888336181641
aF-1.19129478931427
aa(lp271
F-4.4819326400756836
aF-0.64026790857315063
aF-1.1852167844772341
aa(lp272
F-4.4549612998962402
aF-0.62372547388076782
aF-1.1776192188262939
aa(lp273
F-4.4414572715759277
aF-0.60840392112731934
aF-1.1735671758651729
aa(lp274
F-4.4354681968688974
aF-0.59496974945068359
aF-1.171541213989258
aa(lp275
F-4.4296417236328134
aF-0.58002763986587524
aF-1.1695152521133421
aa(lp276
F-4.4235677719116211
aF-0.56667208671569824
aF-1.167489171028137
aa(lp277
F-4.4195666313171387
aF-0.55205285549163818
aF-1.1659697294235229
aa(lp278
F-4.4132204055786133
aF-0.54031169414520264
aF-1.1639436483383181
aa(lp279
F-4.4148960113525391
aF-0.52644449472427368
aF-1.1639436483383181
aa(lp280
F-4.422114372253418
aF-0.51478487253189087
aF-1.1654632091522219
aa(lp281
F-4.4139223098754883
aF-0.50134223699569702
aF-1.1629306077957151
aa(lp282
F-4.4193220138549814
aF-0.48789769411087042
aF-1.1639436483383181
aa(lp283
F-4.4110488891601562
aF-0.47452002763748169
aF-1.1614111661911011
aa(lp284
F-4.3720269203186044
aF-0.4572041928768158
aF-1.1507745981216431
aa(lp285
F-4.3483405113220224
aF-0.44168832898139948
aF-1.1441900730133061
aa(lp286
F-4.3264517784118652
aF-0.42726197838783259
aF-1.13811206817627
aa(lp287
F-4.3316245079040527
aF-0.41403612494468689
aF-1.139124989509583
aa(lp288
F-4.3211345672607422
aF-0.40162023901939392
aF-1.1360859870910649
aa(lp289
F-4.3262290954589844
aF-0.38838902115821838
aF-1.137099027633667
aa(lp290
F-4.3368687629699707
aF-0.37790146470069891
aF-1.139631509780884
aa(lp291
F-4.3475470542907724
aF-0.36660203337669373
aF-1.142163991928101
aa(lp292
F-4.3544626235961914
aF-0.35341158509254461
aF-1.143683552742004
aa(lp293
F-4.3864145278930664
aF-0.34213721752166748
aF-1.151787638664246
aaa(lp294
(lp295
F-4.5329394340515137
aF-0.71551430225372314
aF-1.315892696380615
aa(lp296
F-4.4855241775512704
aF-0.6951974630355835
aF-1.3015595674514771
aa(lp297
F-4.4800829887390137
aF-0.67994844913482666
aF-1.299354553222656
aa(lp298
F-4.4571280479431152
aF-0.66453176736831665
aF-1.2921879291534419
aa(lp299
F-4.447779655456543
aF-0.6488608717918396
aF-1.2888802289962771
aa(lp300
F-4.4495739936828613
aF-0.63643783330917358
aF-1.2888802289962771
aa(lp301
F-4.4303913116455078
aF-0.62107390165328979
aF-1.2828162908554079
aa(lp302
F-4.4284048080444336
aF-0.6074034571647644
aF-1.281713724136353
aa(lp303
F-4.4338946342468262
aF-0.59554654359817505
aF-1.2828162908554079
aa(lp304
F-4.4204940795898438
aF-0.57961457967758179
aF-1.278406023979187
aa(lp305
F-4.4125609397888184
aF-0.56604492664337158
aF-1.2756496667861941
aa(lp306
F-4.391425609588623
aF-0.5493161678314209
aF-1.2690343856811519
aa(lp307
F-4.3908467292785653
aF-0.53835028409957886
aF-1.26848316192627
aa(lp308
F-4.375335693359375
aF-0.52250170707702637
aF-1.263521671295166
aa(lp309
F-4.3805966377258301
aF-0.5107266902923584
aF-1.264624238014221
aa(lp310
F-4.3667244911193848
aF-0.49675336480140692
aF-1.2602139711380009
aa(lp311
F-4.3663525581359863
aF-0.48282116651535029
aF-1.2596627473831179
aa(lp312
F-4.3772411346435547
aF-0.47165596485137939
aF-1.2624191045761111
aa(lp313
F-4.372312068939209
aF-0.44489428400993353
aF-1.2602139711380009
aa(lp314
F-4.375450611114502
aF-0.43287202715873718
aF-1.2607653141021731
aa(lp315
F-4.3787026405334473
aF-0.419307291507721
aF-1.2613165378570561
aa(lp316
F-4.4084992408752441
aF-0.41051626205444341
aF-1.2695856094360349
aaa.