(lp1
(lp2
(lp3
F-6.6529722213745117
aF-0.53645414113998413
aF1.2575529813766479
aa(lp4
F-6.6957755088806152
aF-0.51873862743377686
aF1.2653293609619141
aa(lp5
F-6.734349250793457
aF-0.50399428606033325
aF1.2723652124404909
aa(lp6
F-6.7730617523193359
aF-0.48668733239173889
aF1.2794009447097781
aa(lp7
F-6.8097701072692871
aF-0.46901997923851008
aF1.28606641292572
aa(lp8
F-6.8560805320739746
aF-0.45417848229408259
aF1.2945834398269651
aa(lp9
F-6.892704963684082
aF-0.43606781959533691
aF1.3012489080429079
aa(lp10
F-6.9430146217346191
aF-0.41857171058654791
aF1.3105065822601321
aa(lp11
F-6.9716272354125977
aF-0.40076068043708801
aF1.315690755844116
aa(lp12
F-7.0198855400085449
aF-0.38264104723930359
aF1.3245780467987061
aa(lp13
F-7.0661349296569824
aF-0.36413741111755371
aF1.3330950736999509
aa(lp14
F-7.1005568504333496
aF-0.34479072690010071
aF1.3393902778625491
aa(lp15
F-7.1408162117004403
aF-0.32551145553588873
aF1.34679639339447
aa(lp16
F-7.1907882690429688
aF-0.30766972899436951
aF1.356053948402405
aa(lp17
F-7.2289323806762704
aF-0.28908020257949829
aF1.3630896806716919
aa(lp18
F-7.2789068222045898
aF-0.26817753911018372
aF1.372347354888916
aa(lp19
F-7.3227982521057129
aF-0.25059935450553888
aF1.3804939985275271
aa(lp20
F-7.3687319755554199
aF-0.2289970517158508
aF1.389011025428772
aa(lp21
F-7.4106001853942871
aF-0.20958563685417181
aF1.3967874050140381
aa(lp22
F-7.4563794136047363
aF-0.1887409389019013
aF1.405304431915283
aa(lp23
F-7.5138897895812988
aF-0.16788983345031741
aF1.416043281555176
aa(lp24
F-7.5614643096923828
aF-0.14914821088314059
aF1.4249305725097661
aa(lp25
F-7.6070942878723153
aF-0.12614195048809049
aF1.433447480201721
aa(lp26
F-7.6604595184326172
aF-0.106967143714428
aF1.443445682525635
aa(lp27
F-7.7177219390869141
aF-0.086211368441581726
aF1.4541845321655269
aa(lp28
F-7.7592272758483887
aF-0.062296405434608459
aF1.4619609117507939
aa(lp29
F-7.8045749664306641
aF-0.040865030139684677
aF1.470477938652039
aa(lp30
F-7.8675551414489746
aF-0.017850946635007858
aF1.4823276996612551
aa(lp31
F-7.9186744689941406
aF0.005528278648853302
aF1.491955637931824
aa(lp32
F-7.9716939926147461
aF0.02782657369971275
aF1.5019538402557371
aa(lp33
F-8.0325117111206055
aF0.050470426678657532
aF1.5134332180023189
aa(lp34
F-8.0853910446166992
aF0.074793979525566101
aF1.5234314203262329
aa(lp35
F-8.1440744400024414
aF0.1009252071380615
aF1.53454053401947
aa(lp36
F-8.1988077163696289
aF0.1230719611048698
aF1.5449091196060181
aa(lp37
F-8.2534027099609375
aF0.14982748031616211
aF1.5552775859832759
aa(lp38
F-8.3079719543457031
aF0.1740272045135498
aF1.565646171569824
aa(lp39
F-8.3722944259643555
aF0.19876611232757571
aF1.577866196632385
aa(lp40
F-8.4305696487426758
aF0.2266520410776138
aF1.588975310325623
aa(lp41
F-8.4967432022094727
aF0.25069317221641541
aF1.6015655994415281
aa(lp42
F-8.5529289245605469
aF0.27775236964225769
aF1.6123044490814209
aa(lp43
F-8.6208133697509766
aF0.30556488037109381
aF1.6252651214599609
aa(lp44
F-8.6788463592529297
aF0.33189067244529719
aF1.636374235153198
aa(lp45
F-8.7543468475341797
aF0.36232411861419678
aF1.650816082954407
aa(lp46
F-8.8259506225585938
aF0.38997948169708252
aF1.664517283439636
aa(lp47
F-8.875798225402832
aF0.41857203841209412
aF1.6741452217102051
aa(lp48
F-8.9551544189453125
aF0.44581401348114008
aF1.689327716827393
aa(lp49
F-9.022486686706543
aF0.47600665688514709
aF1.7022883892059331
aa(lp50
F-9.0857934951782227
aF0.50638401508331299
aF1.7145084142684941
aa(lp51
F-9.1569395065307617
aF0.53600376844406128
aF1.7282096147537229
aa(lp52
F-9.1514835357666016
aF0.56133198738098145
aF1.7274690866470339
aa(lp53
F-9.1123065948486328
aF0.58926647901535034
aF1.720433235168457
aaa(lp54
(lp55
F-6.660700798034668
aF-0.53824740648269653
aF1.0978801250457759
aa(lp56
F-6.7017111778259277
aF-0.52037519216537476
aF1.1043649911880491
aa(lp57
F-6.7306027412414551
aF-0.50489521026611328
aF1.108904361724854
aa(lp58
F-6.7694716453552246
aF-0.48761692643165588
aF1.115064859390259
aa(lp59
F-6.8122344017028809
aF-0.47038432955741882
aF1.1218739748001101
aa(lp60
F-6.8488883972167969
aF-0.45490264892578131
aF1.127710342407227
aa(lp61
F-6.8974776268005371
aF-0.43757843971252441
aF1.1354920864105229
aa(lp62
F-6.9381446838378906
aF-0.41949343681335449
aF1.141976952552795
aa(lp63
F-6.9767241477966309
aF-0.40227538347244263
aF1.1481374502182009
aa(lp64
F-7.017298698425293
aF-0.38372844457626343
aF1.1546223163604741
aa(lp65
F-7.0538830757141113
aF-0.36474046111106873
aF1.1604586839675901
aa(lp66
F-7.0983004570007324
aF-0.34592297673225397
aF1.16759192943573
aa(lp67
F-7.1387252807617188
aF-0.32666468620300287
aF1.1740767955780029
aa(lp68
F-7.1829876899719238
aF-0.30859193205833441
aF1.181210041046143
aa(lp69
F-7.2311482429504403
aF-0.29043290019035339
aF1.188991904258728
aa(lp70
F-7.2734408378601074
aF-0.26924732327461243
aF1.19580090045929
aa(lp71
F-7.323430061340332
aF-0.25190067291259771
aF1.203906893730164
aa(lp72
F-7.3675823211669922
aF-0.23024845123291021
aF1.211040258407593
aa(lp73
F-7.4096240997314453
aF-0.21085229516029361
aF1.2178492546081541
aa(lp74
F-7.4575667381286621
aF-0.1900734156370163
aF1.22563111782074
aa(lp75
F-7.5113697052001953
aF-0.16914518177509311
aF1.23438560962677
aa(lp76
F-7.5591425895690918
aF-0.15042224526405329
aF1.2421673536300659
aa(lp77
F-7.6049628257751474
aF-0.12743429839611051
aF1.249624967575073
aa(lp78
F-7.6546039581298828
aF-0.1082216277718544
aF1.257730960845947
aa(lp79
F-7.7022385597229004
aF-0.087382875382900238
aF1.2655127048492429
aa(lp80
F-7.7597060203552246
aF-0.063654661178588867
aF1.2749156951904299
aa(lp81
F-7.8091912269592294
aF-0.042252201586961753
aF1.2830216884613039
aa(lp82
F-7.8625674247741699
aF-0.01921191439032555
aF1.291776299476624
aa(lp83
F-7.9139022827148438
aF0.0041437097825109959
aF1.3002065420150759
aa(lp84
F-7.9592509269714364
aF0.026393972337245941
aF1.3076640367507939
aa(lp85
F-8.014404296875
aF0.048957817256450653
aF1.3167427778244021
aa(lp86
F-8.0813217163085938
aF0.073345758020877838
aF1.327767014503479
aa(lp87
F-8.132359504699707
aF0.099360458552837372
aF1.3361972570419309
aa(lp88
F-8.1892976760864258
aF0.121499590575695
aF1.3456002473831179
aa(lp89
F-8.2559652328491211
aF0.148432582616806
aF1.356624484062195
aa(lp90
F-8.3048467636108398
aF0.172511637210846
aF1.3647304773330691
aa(lp91
F-8.3576030731201172
aF0.1969578415155411
aF1.3734849691390989
aa(lp92
F-8.4259929656982422
aF0.22505730390548709
aF1.384833455085754
aa(lp93
F-8.4865283966064453
aF0.24890933930873871
aF1.3948849439620969
aa(lp94
F-8.5449275970458984
aF0.27599957585334778
aF1.404612183570862
aa(lp95
F-8.6091575622558594
aF0.3036472499370575
aF1.4153120517730711
aa(lp96
F-8.6753273010253906
aF0.33023977279663091
aF1.426336288452148
aa(lp97
F-8.73931884765625
aF0.3601742684841156
aF1.4370362758636479
aa(lp98
F-8.807286262512207
aF0.3876146674156189
aF1.448384642601013
aa(lp99
F-8.8770666122436523
aF0.41707906126976008
aF1.460057377815247
aa(lp100
F-8.9409914016723633
aF0.44354456663131708
aF1.4707572460174561
aa(lp101
F-9.0105857849121094
aF0.47380176186561579
aF1.4824299812316899
aa(lp102
F-9.076136589050293
aF0.50425684452056885
aF1.493454217910767
aa(lp103
F-9.1475906372070312
aF0.53385448455810547
aF1.505451083183289
aa(lp104
F-9.2189493179321289
aF0.56385505199432373
aF1.517447948455811
aaa(lp105
(lp106
F-6.6605229377746582
aF-0.53940308094024658
aF0.93914008140563965
aa(lp107
F-6.6977267265319824
aF-0.52124184370040894
aF0.94415032863616943
aa(lp108
F-6.7464675903320312
aF-0.50726944208145142
aF0.95083063840866089
aa(lp109
F-6.765721321105957
aF-0.48853379487991327
aF0.95333576202392578
aa(lp110
F-6.8125848770141602
aF-0.47160321474075317
aF0.95973771810531616
aa(lp111
F-6.8473906517028809
aF-0.4560035765171051
aF0.96446961164474487
aa(lp112
F-6.8941740989685059
aF-0.4385769665241242
aF0.97087156772613525
aa(lp113
F-6.9369597434997559
aF-0.4206369817256928
aF0.97671681642532349
aa(lp114
F-6.9736976623535156
aF-0.40332207083702087
aF0.98172706365585327
aa(lp115
F-7.0183701515197754
aF-0.38501563668251038
aF0.98785066604614258
aa(lp116
F-7.053105354309082
aF-0.36593455076217651
aF0.99258255958557129
aa(lp117
F-7.0917453765869141
aF-0.34684422612190252
aF0.99787116050720215
aa(lp118
F-7.1461615562438974
aF-0.3282548189163208
aF1.0053864717483521
aa(lp119
F-7.1767306327819824
aF-0.30957803130149841
aF1.0095616579055791
aa(lp120
F-7.2329769134521484
aF-0.2917708158493042
aF1.01735532283783
aa(lp121
F-7.2754206657409668
aF-0.27059215307235718
aF1.023200631141663
aa(lp122
F-7.3216290473937988
aF-0.25311809778213501
aF1.029602646827698
aa(lp123
F-7.3679180145263672
aF-0.23154614865779879
aF1.0360045433044429
aa(lp124
F-7.4180293083190918
aF-0.21238721907138819
aF1.0429632663726811
aa(lp125
F-7.4661436080932617
aF-0.1915959715843201
aF1.0496435165405269
aa(lp126
F-7.5082597732543954
aF-0.1703862547874451
aF1.0554888248443599
aa(lp127
F-7.5641241073608398
aF-0.1518420875072479
aF1.0632824897766111
aa(lp128
F-7.6061491966247559
aF-0.1287820786237717
aF1.0691277980804439
aa(lp129
F-7.6559686660766602
aF-0.109577402472496
aF1.0760864019393921
aa(lp130
F-7.7037744522094727
aF-0.088745035231113434
aF1.0827667713165281
aa(lp131
F-7.7594680786132812
aF-0.06500709056854248
aF1.0905604362487791
aa(lp132
F-7.817054271697998
aF-0.043659120798110962
aF1.0986324548721309
aa(lp133
F-7.8646821975708008
aF-0.020589737221598629
aF1.105312824249268
aa(lp134
F-7.920163631439209
aF0.0027646587695926428
aF1.113106489181519
aa(lp135
F-7.9696378707885742
aF0.025037439540028569
aF1.1200650930404661
aa(lp136
F-8.0269718170166016
aF0.047633565962314613
aF1.1281371116638179
aa(lp137
F-8.0881891250610352
aF0.071996323764324188
aF1.136765837669373
aa(lp138
F-8.1433744430541992
aF0.098073534667491913
aF1.1445596218109131
aa(lp139
F-8.1985387802124023
aF0.1202054619789124
aF1.1523532867431641
aa(lp140
F-8.2575273513793945
aF0.1470189839601517
aF1.160703659057617
aa(lp141
F-8.3065872192382812
aF0.17109739780426031
aF1.1676622629165649
aa(lp142
F-8.3694372177124023
aF0.1957751661539078
aF1.17656934261322
aa(lp143
F-8.4321355819702148
aF0.223748654127121
aF1.1854764223098759
aa(lp144
F-8.4928913116455078
aF0.24761241674423221
aF1.1941051483154299
aa(lp145
F-8.5554637908935547
aF0.27484515309333801
aF1.203012228012085
aa(lp146
F-8.6139898300170898
aF0.30231243371963501
aF1.2113627195358281
aa(lp147
F-8.6823816299438477
aF0.32899072766304022
aF1.221104741096497
aa(lp148
F-8.742650032043457
aF0.3587830662727356
aF1.229733467102051
aa(lp149
F-8.8148231506347656
aF0.38640493154525762
aF1.240032315254211
aa(lp150
F-8.8828811645507812
aF0.41579848527908331
aF1.2497744560241699
aa(lp151
F-8.9430837631225586
aF0.4420836865901947
aF1.2584031820297239
aa(lp152
F-9.0149126052856445
aF0.47245153784751892
aF1.268702030181885
aa(lp153
F-9.084660530090332
aF0.50313997268676758
aF1.278722405433655
aa(lp154
F-9.156376838684082
aF0.53276371955871582
aF1.289021253585815
aa(lp155
F-9.2220668792724609
aF0.56243020296096802
aF1.2984850406646731
aaa(lp156
(lp157
F-6.666595458984375
aF-0.53989493846893311
aF0.78215879201889038
aa(lp158
F-6.7118291854858398
aF-0.5223393440246582
aF0.7872694730758667
aa(lp159
F-6.7468485832214364
aF-0.50729811191558838
aF0.79121857881546021
aa(lp160
F-6.7839875221252441
aF-0.48985275626182562
aF0.79539996385574341
aa(lp161
F-6.8250455856323242
aF-0.47246584296226501
aF0.80004602670669556
aa(lp162
F-6.8639183044433594
aF-0.45710423588752752
aF0.80445975065231323
aa(lp163
F-6.9009284973144531
aF-0.43900668621063232
aF0.80864119529724121
aa(lp164
F-6.9478058815002441
aF-0.42129465937614441
aF0.81398409605026245
aa(lp165
F-6.9806857109069824
aF-0.40372622013092041
aF0.81770092248916626
aa(lp166
F-7.0195388793945312
aF-0.38507974147796631
aF0.82211464643478394
aa(lp167
F-7.0662779808044434
aF-0.36661797761917109
aF0.82745760679244995
aa(lp168
F-7.1109843254089364
aF-0.34778517484664923
aF0.83256822824478149
aa(lp169
F-7.157625675201416
aF-0.32878142595291138
aF0.83791112899780273
aa(lp170
F-7.1922540664672852
aF-0.31024765968322748
aF0.84186029434204102
aa(lp171
F-7.2466835975646973
aF-0.29232370853424072
aF0.8481324315071106
aa(lp172
F-7.2892532348632812
aF-0.27110663056373602
aF0.85301071405410767
aa(lp173
F-7.3375844955444336
aF-0.25366970896720892
aF0.85858595371246338
aa(lp174
F-7.3740839958190918
aF-0.23173992335796359
aF0.86276739835739136
aa(lp175
F-7.4263291358947754
aF-0.2126248627901077
aF0.86880725622177124
aa(lp176
F-7.4765725135803223
aF-0.19186358153820041
aF0.87461477518081665
aa(lp177
F-7.5247716903686523
aF-0.17076095938682559
aF0.88019001483917236
aa(lp178
F-7.5669002532958984
aF-0.15189781785011289
aF0.88506835699081421
aa(lp179
F-7.6169948577880859
aF-0.12896570563316351
aF0.89087587594985962
aa(lp180
F-7.6689491271972656
aF-0.1097631901502609
aF0.8969157338142395
aa(lp181
F-7.7208700180053711
aF-0.088941976428031921
aF0.90295553207397461
aa(lp182
F-7.7727575302124023
aF-0.065118424594402313
aF0.90899538993835449
aa(lp183
F-7.826542854309082
aF-0.043712116777896881
aF0.91526752710342407
aa(lp184
F-7.8762993812561044
aF-0.020620150491595272
aF0.92107504606246948
aa(lp185
F-7.9319472312927246
aF0.002768771955743432
aF0.92757946252822876
aa(lp186
F-7.981569766998291
aF0.025074923411011699
aF0.93338704109191895
aa(lp187
F-8.0430479049682617
aF0.047728966921567917
aF0.94058835506439209
aa(lp188
F-8.0965032577514648
aF0.072070330381393433
aF0.94686049222946167
aa(lp189
F-8.1458950042724609
aF0.098103895783424377
aF0.95266801118850708
aa(lp190
F-8.2012252807617188
aF0.1202448531985283
aF0.95917248725891113
aa(lp191
F-8.272308349609375
aF0.14728215336799619
aF0.96753531694412231
aa(lp192
F-8.3155574798583984
aF0.17128217220306399
aF0.97264593839645386
aa(lp193
F-8.382568359375
aF0.19608232378959661
aF0.98054420948028564
aa(lp194
F-8.4394979476928711
aF0.22394402325153351
aF0.98728096485137939
aa(lp195
F-8.4964656829833984
aF0.24771662056446081
aF0.99401766061782837
aa(lp196
F-8.5711402893066406
aF0.27534875273704529
aF1.0028451681137089
aa(lp197
F-8.6238870620727539
aF0.30265974998474121
aF1.0091172456741331
aa(lp198
F-8.684544563293457
aF0.32907268404960632
aF1.016318678855896
aa(lp199
F-8.7529354095458984
aF0.35920515656471252
aF1.0244492292404179
aa(lp200
F-8.8233423233032227
aF0.38677835464477539
aF1.0328119993209841
aa(lp201
F-8.8856525421142578
aF0.41592824459075928
aF1.0402456521987919
aa(lp202
F-8.9559593200683594
aF0.44272014498710632
aF1.0486085414886479
aa(lp203
F-9.0299882888793945
aF0.47324162721633911
aF1.057435989379883
aa(lp204
F-9.0880470275878906
aF0.50332748889923096
aF1.0644049644470219
aa(lp205
F-9.1659307479858398
aF0.53331959247589111
aF1.073697090148926
aa(lp206
F-9.2238883972167969
aF0.56254130601882935
aF1.0806660652160649
aaa(lp207
(lp208
F-6.62164306640625
aF-0.55836266279220581
aF0.61996078491210938
aa(lp209
F-6.6590914726257324
aF-0.54045706987380981
aF0.62330484390258789
aa(lp210
F-6.700462818145752
aF-0.52263134717941284
aF0.62702053785324097
aa(lp211
F-6.7296080589294434
aF-0.50718295574188232
aF0.62962150573730469
aa(lp212
F-6.7727928161621094
aF-0.49023264646530151
aF0.63352298736572266
aa(lp213
F-6.8159356117248544
aF-0.47303050756454468
aF0.63742446899414062
aa(lp214
F-6.846954345703125
aF-0.45717483758926392
aF0.64021122455596924
aa(lp215
F-6.8959760665893564
aF-0.43990007042884832
aF0.64467000961303711
aa(lp216
F-6.9330291748046884
aF-0.42161315679550171
aF0.6480141282081604
aa(lp217
F-6.9739398956298828
aF-0.40455734729766851
aF0.65172982215881348
aa(lp218
F-7.0168647766113281
aF-0.3861614465713501
aF0.65563124418258667
aa(lp219
F-7.0577526092529297
aF-0.367410808801651
aF0.65934693813323975
aa(lp220
F-7.1005802154541016
aF-0.34851855039596558
aF0.66324841976165771
aa(lp221
F-7.1453461647033691
aF-0.32946711778640753
aF0.6673356294631958
aa(lp222
F-7.190007209777832
aF-0.31140795350074768
aF0.67142289876937866
aa(lp223
F-7.2386016845703134
aF-0.29326313734054571
aF0.67588168382644653
aa(lp224
F-7.2753067016601562
aF-0.27185946702957148
aF0.67922580242156982
aa(lp225
F-7.317786693572998
aF-0.25426399707794189
aF0.68312728404998779
aa(lp226
F-7.3663182258605957
aF-0.23278281092643741
aF0.68758606910705566
aa(lp227
F-7.4206833839416504
aF-0.21375943720340729
aF0.69260227680206299
aa(lp228
F-7.4591083526611328
aF-0.1927181482315064
aF0.6961321234703064
aa(lp229
F-7.511408805847168
aF-0.17176938056945801
aF0.70096254348754883
aa(lp230
F-7.553642749786377
aF-0.15295058488845831
aF0.70486396551132202
aa(lp231
F-7.6058535575866699
aF-0.13010492920875549
aF0.70969438552856445
aa(lp232
F-7.6519641876220703
aF-0.1108558923006058
aF0.71396738290786743
aa(lp233
F-7.7040157318115234
aF-0.090092599391937256
aF0.71879780292510986
aa(lp234
F-7.7520513534545898
aF-0.066298037767410278
aF0.72325658798217773
aa(lp235
F-7.8079633712768564
aF-0.04497113823890686
aF0.72845852375030518
aa(lp236
F-7.8638200759887704
aF-0.021959984675049778
aF0.73366045951843262
aa(lp237
F-7.9136343002319336
aF0.001381189795210958
aF0.73830509185791016
aa(lp238
F-7.9673657417297363
aF0.023639719933271412
aF0.74332123994827271
aa(lp239
F-8.027008056640625
aF0.046232759952545173
aF0.74889475107192993
aa(lp240
F-8.0845832824707031
aF0.070553086698055267
aF0.75428247451782227
aa(lp241
F-8.1281280517578125
aF0.096471093595027924
aF0.75836974382400513
aa(lp242
F-8.2055025100708008
aF0.1188751310110092
aF0.76561528444290161
aa(lp243
F-8.2469005584716797
aF0.14538997411727911
aF0.76951676607131958
aa(lp244
F-8.3061904907226562
aF0.16963890194892881
aF0.77509027719497681
aa(lp245
F-8.3654088973999023
aF0.194220095872879
aF0.78066378831863403
aa(lp246
F-8.4324398040771484
aF0.22228395938873291
aF0.78698045015335083
aa(lp247
F-8.4915437698364258
aF0.24608983099460599
aF0.79255396127700806
aa(lp248
F-8.5465059280395508
aF0.27306419610977167
aF0.7977558970451355
aa(lp249
F-8.6133232116699219
aF0.30078387260437012
aF0.80407255887985229
aa(lp250
F-8.6701574325561523
aF0.32701218128204351
aF0.80946028232574463
aa(lp251
F-8.7387266159057617
aF0.35709431767463679
aF0.81596273183822632
aa(lp252
F-8.8053369522094727
aF0.384449303150177
aF0.82227939367294312
aa(lp253
F-8.8797464370727539
aF0.4140985906124115
aF0.82933920621871948
aa(lp254
F-8.9422779083251953
aF0.4404793381690979
aF0.83528429269790649
aa(lp255
F-9.0125226974487305
aF0.47074905037879938
aF0.8419724702835083
aa(lp256
F-9.0786895751953125
aF0.50121986865997314
aF0.8482891321182251
aa(lp257
F-9.1488227844238281
aF0.53072202205657959
aF0.85497736930847168
aa(lp258
F-9.2208499908447266
aF0.56074064970016479
aF0.86185133457183838
aaa(lp259
(lp260
F-6.6102437973022461
aF-0.55856335163116455
aF0.46388053894042969
aa(lp261
F-6.6517372131347656
aF-0.54102879762649536
aF0.4666708111763001
aa(lp262
F-6.6892070770263672
aF-0.52292799949645996
aF0.46918204426765442
aa(lp263
F-6.7243738174438477
aF-0.50796878337860107
aF0.47155377268791199
aa(lp264
F-6.7596797943115234
aF-0.49046948552131647
aF0.47392547130584722
aa(lp265
F-6.8009114265441903
aF-0.47318056225776672
aF0.47671574354171747
aa(lp266
F-6.8399496078491211
aF-0.45790627598762512
aF0.4793664813041687
aa(lp267
F-6.8850817680358887
aF-0.44041168689727778
aF0.48243576288223272
aa(lp268
F-6.9261865615844727
aF-0.42241036891937261
aF0.48522603511810303
aa(lp269
F-6.9651827812194824
aF-0.4052690863609314
aF0.4878767728805542
aa(lp270
F-7.0022120475769043
aF-0.38658088445663452
aF0.49038800597190862
aa(lp271
F-7.0491538047790527
aF-0.36819681525230408
aF0.49359682202339172
aa(lp272
F-7.0880765914916992
aF-0.34914496541023249
aF0.4962475597858429
aa(lp273
F-7.1369132995605469
aF-0.33032655715942377
aF0.49959585070610052
aa(lp274
F-7.1776728630065918
aF-0.31212884187698359
aF0.50238615274429321
aa(lp275
F-7.2143993377685547
aF-0.29354381561279302
aF0.5048973560333252
aa(lp276
F-7.2651286125183114
aF-0.2727489173412323
aF0.50838518142700195
aa(lp277
F-7.3096842765808114
aF-0.25525978207588201
aF0.51145446300506592
aa(lp278
F-7.3603029251098633
aF-0.23387862741947171
aF0.51494228839874268
aa(lp279
F-7.400813102722168
aF-0.21447981894016269
aF0.51773256063461304
aa(lp280
F-7.4492840766906738
aF-0.19376532733440399
aF0.52108085155487061
aa(lp281
F-7.4976963996887207
aF-0.1727650910615921
aF0.52442914247512817
aa(lp282
F-7.549985408782959
aF-0.15419480204582209
aF0.52805650234222412
aa(lp283
F-7.5903291702270508
aF-0.13116452097892761
aF0.53084677457809448
aa(lp284
F-7.6385245323181152
aF-0.1119946390390396
aF0.53419506549835205
aa(lp285
F-7.6946673393249512
aF-0.091326437890529633
aF0.5381014347076416
aa(lp286
F-7.7507777214050293
aF-0.067640013992786407
aF0.54200780391693115
aa(lp287
F-7.8008136749267578
aF-0.046291504055261612
aF0.54549562931060791
aa(lp288
F-7.8567800521850586
aF-0.02331160381436348
aF0.54940199851989746
aa(lp289
F-7.9086875915527344
aF-1.4528024296477249e-15
aF0.55302929878234863
aa(lp290
F-7.9565396308898926
aF0.022218909114599231
aF0.55637764930725098
aa(lp291
F-8.0103139877319336
aF0.044738501310348511
aF0.56014448404312134
aa(lp292
F-8.0640125274658203
aF0.068966031074523926
aF0.5639113187789917
aa(lp293
F-8.1256008148193359
aF0.095022723078727722
aF0.56823623180389404
aa(lp294
F-8.1871671676635742
aF0.11718028038740159
aF0.57256114482879639
aa(lp295
F-8.2485980987548828
aF0.1439798176288605
aF0.57688605785369873
aa(lp296
F-8.2980318069458008
aF0.16802340745925901
aF0.58037388324737549
aa(lp297
F-8.3613576889038086
aF0.19266593456268311
aF0.58483827114105225
aa(lp298
F-8.4205446243286133
aF0.22049970924854281
aF0.5890236496925354
aa(lp299
F-8.479766845703125
aF0.2442672997713089
aF0.59320902824401855
aa(lp300
F-8.5448112487792969
aF0.27151718735694891
aF0.5978129506111145
aa(lp301
F-8.6057796478271484
aF0.29901662468910217
aF0.60213786363601685
aa(lp302
F-8.6667165756225586
aF0.32536762952804571
aF0.60646277666091919
aa(lp303
F-8.7374172210693359
aF0.35551327466964722
aF0.61148524284362793
aa(lp304
F-8.7981805801391602
aF0.38259837031364441
aF0.61581015586853027
aa(lp305
F-8.8707466125488281
aF0.412127286195755
aF0.6209721565246582
aa(lp306
F-8.9393825531005859
aF0.43877273797988892
aF0.62585508823394775
aa(lp307
F-9.0017995834350586
aF0.46861353516578669
aF0.63031947612762451
aa(lp308
F-9.0740776062011719
aF0.49937671422958368
aF0.63548147678375244
aa(lp309
F-9.1423606872558594
aF0.52874618768692017
aF0.64036440849304199
aa(lp310
F-9.2145328521728516
aF0.55874234437942505
aF0.64552640914916992
aaa(lp311
(lp312
F-6.6546730995178223
aF-0.54243671894073486
aF0.31136363744735718
aa(lp313
F-6.6902036666870117
aF-0.52418071031570435
aF0.3129474818706513
aa(lp314
F-6.7254190444946289
aF-0.50922828912734985
aF0.31453129649162292
aa(lp315
F-6.7727293968200684
aF-0.49260464310646063
aF0.31667414307594299
aa(lp316
F-6.8199996948242188
aF-0.47570472955703741
aF0.31881698966026312
aa(lp317
F-6.8411550521850586
aF-0.45918634533882141
aF0.3197486400604248
aa(lp318
F-6.8923306465148926
aF-0.44208326935768127
aF0.32207781076431269
aa(lp319
F-6.9314999580383301
aF-0.42394870519638062
aF0.32384800910949713
aa(lp320
F-6.9645681381225586
aF-0.40645301342010498
aF0.32533866167068481
aa(lp321
F-6.9996542930603027
aF-0.38766506314277649
aF0.32692250609397888
aa(lp322
F-7.0466609001159668
aF-0.36929985880851751
aF0.32906535267829901
aa(lp323
F-7.0896286964416504
aF-0.35046178102493292
aF0.33102184534072882
aa(lp324
F-7.1445207595825204
aF-0.3319283127784729
aF0.33353734016418463
aa(lp325
F-7.1813464164733887
aF-0.31354436278343201
aF0.33521434664726257
aa(lp326
F-7.2301020622253418
aF-0.29544675350189209
aF0.33745035529136658
aa(lp327
F-7.2729191780090332
aF-0.27431255578994751
aF0.33940684795379639
aa(lp328
F-7.3195343017578134
aF-0.25688281655311579
aF0.34154969453811651
aa(lp329
F-7.3662314414978027
aF-0.2353539764881134
aF0.34369254112243652
aa(lp330
F-7.4107937812805176
aF-0.21606357395648959
aF0.34574219584465032
aa(lp331
F-7.4693193435668954
aF-0.19559100270271301
aF0.34844404458999628
aa(lp332
F-7.4958314895629883
aF-0.1740310937166214
aF0.34965521097183228
aa(lp333
F-7.5481939315795898
aF-0.1554761677980423
aF0.35207754373550421
aa(lp334
F-7.5885958671569824
aF-0.132459431886673
aF0.35394090414047241
aa(lp335
F-7.6488447189331064
aF-0.11348122358322139
aF0.35673588514327997
aa(lp336
F-7.6990737915039062
aF-0.092722669243812561
aF0.35906505584716802
aa(lp337
F-7.7492709159851074
aF-0.068979471921920776
aF0.36139422655105591
aa(lp338
F-7.8053712844848633
aF-0.047680895775556557
aF0.36400291323661799
aa(lp339
F-7.857421875
aF-0.024684900417923931
aF0.36642524600028992
aa(lp340
F-7.9074063301086426
aF-0.001380102708935738
aF0.36875441670417791
aa(lp341
F-7.9613204002380371
aF0.020842736586928371
aF0.37126991152763372
aa(lp342
F-8.015172004699707
aF0.043366678059101112
aF0.37378543615341192
aa(lp343
F-8.0729427337646484
aF0.067633308470249176
aF0.3764872550964356
aa(lp344
F-8.1326217651367188
aF0.093685217201709747
aF0.37928226590156561
aa(lp345
F-8.1842870712280273
aF0.1157103329896927
aF0.38170459866523743
aa(lp346
F-8.2537965774536133
aF0.14262956380844119
aF0.3849654495716095
aa(lp347
F-8.3033018112182617
aF0.16668032109737399
aF0.38729462027549738
aa(lp348
F-8.3627233505249023
aF0.19123706221580511
aF0.39008963108062739
aa(lp349
F-8.4279870986938477
aF0.21922263503074649
aF0.39316412806510931
aa(lp350
F-8.4932851791381836
aF0.24317312240600589
aF0.39623865485191351
aa(lp351
F-8.5444440841674805
aF0.27001273632049561
aF0.39866098761558533
aa(lp352
F-8.6154842376708984
aF0.29784834384918207
aF0.40201500058174128
aa(lp353
F-8.676508903503418
aF0.32421877980232239
aF0.40490317344665527
aa(lp354
F-8.7433176040649414
aF0.35422486066818237
aF0.40807083249092102
aa(lp355
F-8.8061647415161133
aF0.38140571117401117
aF0.4110521674156189
aa(lp356
F-8.8708524703979492
aF0.41058060526847839
aF0.4141266942024231
aa(lp357
F-8.9415826797485352
aF0.43731635808944702
aF0.41748067736625671
aa(lp358
F-9.0100765228271484
aF0.46746760606765753
aF0.42074152827262878
aa(lp359
F-9.0784683227539062
aF0.4980290830135346
aF0.42400237917900091
aa(lp360
F-9.1488447189331055
aF0.5275191068649292
aF0.42735636234283447
aa(lp361
F-9.2231149673461914
aF0.55764716863632202
aF0.43089669942855841
aaa(lp362
(lp363
F-6.6283888816833496
aF-0.56242692470550537
aF0.154444620013237
aa(lp364
F-6.6640009880065918
aF-0.54436790943145752
aF0.15523380041122439
aa(lp365
F-6.709531307220459
aF-0.52687329053878784
aF0.15625506639480591
aa(lp366
F-6.7447810173034668
aF-0.51187825202941895
aF0.15704423189163211
aa(lp367
F-6.7781767845153809
aF-0.49419015645980841
aF0.15778698027133939
aa(lp368
F-6.8274836540222168
aF-0.47742417454719538
aF0.1589010953903198
aa(lp369
F-6.8706040382385254
aF-0.46236756443977362
aF0.1598759591579437
aa(lp370
F-6.9078617095947266
aF-0.444290041923523
aF0.16071154177188871
aa(lp371
F-6.949063777923584
aF-0.4262403547763825
aF0.1616399735212326
aa(lp372
F-6.988152027130127
aF-0.40905320644378662
aF0.16252198815345761
aa(lp373
F-7.0272660255432129
aF-0.3904245793819428
aF0.16340398788452151
aa(lp374
F-7.074317455291748
aF-0.37198737263679499
aF0.16447168588638311
aa(lp375
F-7.1073422431945801
aF-0.35258093476295471
aF0.16521443426609039
aa(lp376
F-7.1522974967956543
aF-0.33354061841964722
aF0.1662357151508331
aa(lp377
F-7.2031397819519043
aF-0.3157554566860199
aF0.1673962473869324
aa(lp378
F-7.2479443550109863
aF-0.2974429726600647
aF0.16841752827167511
aa(lp379
F-7.2927999496459961
aF-0.27633705735206598
aF0.16943879425525671
aa(lp380
F-7.3374590873718262
aF-0.25879412889480591
aF0.17046007513999939
aa(lp381
F-7.378204345703125
aF-0.23702557384967801
aF0.17138850688934329
aa(lp382
F-7.4268040657043457
aF-0.2178276926279068
aF0.1725026220083237
aa(lp383
F-7.4733891487121582
aF-0.1970028430223465
aF0.17357032001018519
aa(lp384
F-7.5219149589538574
aF-0.17595019936561579
aF0.1746844351291657
aa(lp385
F-7.5683274269104004
aF-0.15721236169338229
aF0.17575213313102719
aa(lp386
F-7.6147642135620117
aF-0.13424564898014071
aF0.17681983113288879
aa(lp387
F-7.6670699119567871
aF-0.11509007215499879
aF0.17802679538726809
aa(lp388
F-7.7213430404663086
aF-0.094338692724704742
aF0.1792801767587662
aa(lp389
F-7.7675867080688477
aF-0.07049831748008728
aF0.1803478747606278
aa(lp390
F-7.8217377662658691
aF-0.049146074801683433
aF0.18160125613212591
aa(lp391
F-7.8778338432312012
aF-0.02612398192286491
aF0.1829010546207428
aa(lp392
F-7.9298624992370614
aF-0.0027680443599820141
aF0.1841080188751221
aa(lp393
F-7.9898228645324707
aF0.019522858783602721
aF0.18550066649913791
aa(lp394
F-8.0377235412597656
aF0.042085807770490653
aF0.18661478161811829
aa(lp395
F-8.0915470123291016
aF0.066376835107803345
aF0.18786816298961639
aa(lp396
F-8.1472797393798828
aF0.092431925237178802
aF0.1891679763793945
aa(lp397
F-8.2069883346557617
aF0.1145986169576645
aF0.19056062400341031
aa(lp398
F-8.2705612182617188
aF0.14147534966468811
aF0.19204610586166379
aa(lp399
F-8.310114860534668
aF0.16536612808704379
aF0.19297453761100769
aa(lp400
F-8.3755855560302734
aF0.1900686323642731
aF0.1945064514875412
aa(lp401
F-8.4349117279052734
aF0.2179296016693115
aF0.19589909911155701
aa(lp402
F-8.4942712783813477
aF0.24171760678291321
aF0.19729174673557279
aa(lp403
F-8.5574684143066406
aF0.26892927289009089
aF0.19877724349498749
aa(lp404
F-8.628570556640625
aF0.29679298400878912
aF0.2004484236240387
aa(lp405
F-8.6956424713134766
aF0.32341399788856512
aF0.20202675461769101
aa(lp406
F-8.7525215148925781
aF0.35306763648986822
aF0.20337298512458801
aa(lp407
F-8.8234148025512695
aF0.38060998916625982
aF0.20504416525363919
aa(lp408
F-8.8941507339477539
aF0.41010332107543951
aF0.20671533048152921
aa(lp409
F-8.9549570083618164
aF0.4364037811756134
aF0.2081544101238251
aa(lp410
F-9.0255069732666016
aF0.46668869256973272
aF0.20982557535171509
aa(lp411
F-9.0899658203125
aF0.49706855416297913
aF0.2113574892282486
aa(lp412
F-9.1584081649780273
aF0.52646678686141968
aF0.212982252240181
aa(lp413
F-9.2327442169189453
aF0.55661207437515259
aF0.2147462666034699
aaa(lp414
(lp415
F-7.5483441352844238
aF-0.1581152677536011
aF0
aa(lp416
F-7.5987958908081064
aF-0.13529077172279361
aF0
aa(lp417
F-7.6491179466247559
aF-0.1161559224128723
aF0
aa(lp418
F-7.699409008026123
aF-0.095414705574512482
aF0
aa(lp419
F-7.741668701171875
aF-0.071614377200603485
aF0
aa(lp420
F-7.8058371543884277
aF-0.050408598035573959
aF0
aa(lp421
F-7.855952262878418
aF-0.027422556653618809
aF0
aa(lp422
F-7.909998893737793
aF-0.0041416659951210022
aF0
aa(lp423
F-7.9639797210693359
aF0.018069727346301079
aF0
aa(lp424
F-8.0078973770141602
aF0.040531955659389503
aF0
aa(lp425
F-8.0677404403686523
aF0.064773358404636383
aF0
aa(lp426
F-8.1334924697875977
aF0.090855762362480164
aF0
aa(lp427
F-8.1912212371826172
aF0.11294854432344439
aF0
aa(lp428
F-8.2508172988891602
aF0.13969716429710391
aF0
aa(lp429
F-8.3023853302001953
aF0.16376270353794101
aF0
aa(lp430
F-8.3678789138793945
aF0.18843251466751099
aF0
aa(lp431
F-8.4172286987304688
aF0.2160026878118515
aF0
aa(lp432
F-8.5006008148193359
aF0.24041290581226349
aF0
aaa(lp433
(lp434
F-6.9563255310058594
aF-0.3670005202293396
aF0
aa(lp435
F-6.9533886909484863
aF-0.34616020321846008
aF0
aa(lp436
F-6.9443964958190918
aF-0.32506000995635992
aF0
aa(lp437
F-7.0291957855224609
aF-0.30935966968536383
aF0
aa(lp438
F-7.0859847068786621
aF-0.29203525185585022
aF0
aa(lp439
F-7.1308355331420898
aF-0.27144628763198853
aF0
aa(lp440
F-7.1635012626647949
aF-0.25391042232513428
aF0
aaa(lp441
(lp442
F-6.6577281951904297
aF-0.5450252890586853
aF0
aa(lp443
F-6.6972904205322266
aF-0.5270882248878479
aF0
aa(lp444
F-6.7325496673583984
aF-0.51213181018829346
aF0
aa(lp445
F-6.7719383239746094
aF-0.49492353200912481
aF0
aa(lp446
F-6.8132791519165039
aF-0.47762587666511541
aF0
aa(lp447
F-6.8484292030334473
aF-0.46207594871521002
aF0
aa(lp448
F-6.8717246055603027
aF-0.44317013025283808
aF0
aa(lp449
F-6.8690166473388672
aF-0.42253381013870239
aF0
aa(lp450
F-6.8541975021362314
aF-0.4024125337600708
aF0
aa(lp451
F-6.8573579788208008
aF-0.38218528032302862
aF0
aaa(lp452
(lp453
F-5.5590672492980957
aF-1.0122584104537959
aF-0.13118740916252139
aa(lp454
F-5.5699186325073242
aF-0.99716931581497192
aF-0.1313730925321579
aa(lp455
F-5.6120643615722656
aF-0.98854845762252808
aF-0.1323015242815018
aa(lp456
F-5.6423845291137704
aF-0.97765183448791504
aF-0.13295142352581019
aa(lp457
F-5.6707162857055664
aF-0.96625763177871704
aF-0.13355490565299991
aa(lp458
F-5.6972227096557617
aF-0.95338815450668335
aF-0.13411197066307071
aa(lp459
F-5.7256755828857422
aF-0.94069397449493408
aF-0.13471545279026029
aa(lp460
F-5.7539410591125488
aF-0.92884355783462524
aF-0.13531893491745001
aa(lp461
F-5.7823448181152344
aF-0.91583341360092163
aF-0.13592241704463959
aa(lp462
F-5.8204421997070312
aF-0.90521335601806641
aF-0.13675799965858459
aa(lp463
F-5.846977710723877
aF-0.89053618907928467
aF-0.1373150646686554
aa(lp464
F-5.8730182647705078
aF-0.8787764310836792
aF-0.137872114777565
aa(lp465
F-5.9113607406616211
aF-0.86553555727005005
aF-0.1387077122926712
aa(lp466
F-5.937504768371582
aF-0.85243427753448486
aF-0.13926476240158081
aa(lp467
F-5.9616413116455078
aF-0.83891516923904419
aF-0.1397754102945328
aa(lp468
F-6.0017390251159668
aF-0.82640498876571655
aF-0.14065741002559659
aa(lp469
F-6.0317645072937012
aF-0.81338268518447876
aF-0.14130730926990509
aa(lp470
F-6.0679903030395508
aF-0.79886609315872192
aF-0.14209648966789251
aa(lp471
F-6.093994140625
aF-0.78498327732086182
aF-0.14265353977680209
aa(lp472
F-6.1281723976135254
aF-0.76982200145721436
aF-0.1433962881565094
aa(lp473
F-6.1578178405761719
aF-0.75826692581176758
aF-0.1440461874008179
aa(lp474
F-6.1919331550598153
aF-0.74272793531417847
aF-0.14478893578052521
aa(lp475
F-6.229729175567627
aF-0.72962045669555664
aF-0.14562451839447019
aa(lp476
F-6.263526439666748
aF-0.71585357189178467
aF-0.14636726677417761
aa(lp477
F-6.3015146255493164
aF-0.70014697313308716
aF-0.14720286428928381
aa(lp478
F-6.3372387886047363
aF-0.68620628118515015
aF-0.1479920297861099
aa(lp479
F-6.3670854568481454
aF-0.67033123970031738
aF-0.1486419290304184
aa(lp480
F-6.4028606414794922
aF-0.6548953652381897
aF-0.1494310945272446
aa(lp481
F-6.4384884834289551
aF-0.64037680625915527
aF-0.15022026002407071
aa(lp482
F-6.4782834053039551
aF-0.62378776073455811
aF-0.1511022746562958
aa(lp483
F-6.4759130477905273
aF-0.60645264387130737
aF-0.15100942552089691
aa(lp484
F-6.4976992607116699
aF-0.58790677785873413
aF-0.1514736413955689
aa(lp485
F-6.5370602607727051
aF-0.57421809434890747
aF-0.15235565602779391
aa(lp486
F-6.6223139762878418
aF-0.56307560205459595
aF-0.15430536866188049
aa(lp487
F-6.6678915023803711
aF-0.54585725069046021
aF-0.15532663464546201
aa(lp488
F-6.7074460983276367
aF-0.52788746356964111
aF-0.1562086492776871
aa(lp489
F-6.7367167472839364
aF-0.51244878768920898
aF-0.15685854852199549
aa(lp490
F-6.782078742980957
aF-0.49566465616226202
aF-0.15787982940673831
aa(lp491
F-6.8214163780212402
aF-0.47819629311561579
aF-0.1587618291378021
aa(lp492
F-6.8645386695861816
aF-0.46316289901733398
aF-0.159736692905426
aa(lp493
F-6.8838405609130859
aF-0.44395151734352112
aF-0.1601544767618179
aa(lp494
F-6.8691616058349609
aF-0.4225427508354187
aF-0.15978311002254489
aa(lp495
F-6.868319034576416
aF-0.4032416045665741
aF-0.159736692905426
aa(lp496
F-6.8794670104980469
aF-0.38341748714447021
aF-0.1599687933921814
aaa(lp497
(lp498
F-7.0622725486755371
aF-0.37259003520011902
aF-0.16419315338134771
aa(lp499
F-7.1012897491455078
aF-0.3535231351852417
aF-0.16507516801357269
aa(lp500
F-7.1602282524108887
aF-0.33516287803649902
aF-0.16642139852046969
aa(lp501
F-7.1970920562744141
aF-0.31674891710281372
aF-0.1672569811344147
aa(lp502
F-7.2478923797607422
aF-0.29870796203613281
aF-0.16841752827167511
aa(lp503
F-7.2867574691772461
aF-0.27738171815872192
aF-0.16929952800273901
aa(lp504
F-7.3314189910888672
aF-0.2598622739315033
aF-0.17032080888748169
aa(lp505
F-7.3781628608703613
aF-0.23831331729888919
aF-0.17138850688934329
aa(lp506
F-7.4187717437744141
aF-0.2188880443572998
aF-0.17231693863868711
aa(lp507
F-7.4673585891723633
aF-0.19814807176589971
aF-0.17343105375766751
aa(lp508
F-7.5238828659057617
aF-0.17731012403964999
aF-0.17473086714744571
aa(lp509
F-7.5702986717224121
aF-0.15857516229152679
aF-0.17579855024814611
aa(lp510
F-7.6127414703369141
aF-0.13553906977176669
aF-0.17677341401576999
aaa(lp511
(lp512
F-5.5464901924133301
aF-1.0109684467315669
aF-0.26291686296463013
aa(lp513
F-5.5955052375793457
aF-0.98663860559463501
aF-0.26496654748916632
aa(lp514
F-5.6198916435241699
aF-0.97476482391357422
aF-0.26599138975143433
aa(lp515
F-5.652132511138916
aF-0.96410620212554932
aF-0.26738888025283808
aa(lp516
F-5.6786127090454102
aF-0.95129275321960449
aF-0.26850688457489008
aa(lp517
F-5.7011237144470224
aF-0.93768215179443359
aF-0.26943856477737432
aa(lp518
F-5.7372479438781738
aF-0.92717629671096802
aF-0.271022379398346
aa(lp519
F-5.765625
aF-0.91421687602996826
aF-0.27223354578018188
aa(lp520
F-5.8036885261535653
aF-0.90364515781402588
aF-0.27391055226325989
aa(lp521
F-5.8361234664916992
aF-0.88992530107498169
aF-0.27530807256698608
aa(lp522
F-5.8542394638061523
aF-0.87701123952865601
aF-0.27605339884758001
aa(lp523
F-5.8866167068481454
aF-0.86296200752258301
aF-0.27745088934898382
aa(lp524
F-5.9166884422302246
aF-0.85049974918365479
aF-0.27875524759292603
aa(lp525
F-5.9566278457641602
aF-0.83926987648010254
aF-0.28052541613578802
aa(lp526
F-5.9788827896118164
aF-0.82432115077972412
aF-0.28145706653594971
aa(lp527
F-6.010859489440918
aF-0.81163185834884644
aF-0.2828545868396759
aa(lp528
F-6.0391287803649902
aF-0.7961387038230896
aF-0.28406575322151179
aa(lp529
F-6.07501220703125
aF-0.78361606597900391
aF-0.28564959764480591
aa(lp530
F-6.1051950454711914
aF-0.76801800727844238
aF-0.28695392608642578
aa(lp531
F-6.1407613754272461
aF-0.75725466012954712
aF-0.2885377705097199
aa(lp532
F-6.1708798408508301
aF-0.74129509925842285
aF-0.28984209895133972
aa(lp533
F-6.2026891708374023
aF-0.72755104303359985
aF-0.29123958945274347
aa(lp534
F-6.2384395599365234
aF-0.71408945322036743
aF-0.2928234338760376
aa(lp535
F-6.274406909942627
aF-0.69824367761611938
aF-0.29440727829933172
aa(lp536
F-6.3120832443237314
aF-0.68459707498550415
aF-0.29608428478240972
aa(lp537
F-6.3419022560119629
aF-0.66879904270172119
aF-0.29738861322402949
aa(lp538
F-6.3796324729919434
aF-0.6536446213722229
aF-0.29906561970710749
aa(lp539
F-6.4132404327392578
aF-0.63899606466293335
aF-0.30055627226829529
aa(lp540
F-6.4589653015136719
aF-0.62306541204452515
aF-0.30260595679283142
aa(lp541
F-6.4565963745117188
aF-0.60578054189682007
aF-0.30241963267326361
aa(lp542
F-6.4783644676208496
aF-0.58729732036590576
aF-0.30335128307342529
aa(lp543
F-6.4918203353881836
aF-0.57138597965240479
aF-0.30391028523445129
aaa(lp544
(lp545
F-6.6404500007629403
aF-0.54477757215499878
aF-0.31071147322654719
aa(lp546
F-6.6859450340270996
aF-0.52736943960189819
aF-0.31276112794876099
aa(lp547
F-6.7331194877624512
aF-0.51335716247558594
aF-0.31490397453308111
aa(lp548
F-6.764500617980957
aF-0.49556687474250788
aF-0.31630146503448492
aa(lp549
F-6.8097853660583496
aF-0.47857531905174261
aF-0.318351149559021
aa(lp550
F-6.8449006080627441
aF-0.46303799748420721
aF-0.31993499398231512
aa(lp551
F-6.8861174583435059
aF-0.4453052282333374
aF-0.32179832458496088
aa(lp552
F-6.8754439353942871
aF-0.42413374781608582
aF-0.32123932242393488
aa(lp553
F-6.9583711624145508
aF-0.40974727272987371
aF-0.32505917549133301
aa(lp554
F-7.005434513092041
aF-0.39166459441184998
aF-0.32720199227333069
aa(lp555
F-7.0484614372253418
aF-0.37309503555297852
aF-0.32915851473808289
aaa(lp556
(lp557
F-5.5623688697814941
aF-1.0148657560348511
aF-0.3953796923160553
aa(lp558
F-5.6113462448120117
aF-0.99044162034988403
aF-0.39844897389411932
aa(lp559
F-5.6396446228027344
aF-0.97920489311218262
aF-0.40026265382766718
aa(lp560
F-5.665956974029541
aF-0.96748203039169312
aF-0.40193679928779602
aa(lp561
F-5.6943821907043457
aF-0.95495623350143433
aF-0.40375047922134399
aa(lp562
F-5.7227826118469238
aF-0.94227033853530884
aF-0.40556412935256958
aa(lp563
F-5.7470564842224121
aF-0.9297906756401062
aF-0.40709877014160162
aa(lp564
F-5.7773761749267578
aF-0.91711384057998657
aF-0.40905195474624628
aa(lp565
F-5.8094844818115234
aF-0.90558618307113647
aF-0.41114464402198792
aa(lp566
F-5.8379402160644531
aF-0.89124500751495361
aF-0.41295832395553589
aa(lp567
F-5.8678765296936044
aF-0.88010132312774658
aF-0.41491150856018072
aa(lp568
F-5.8982481956481934
aF-0.86571872234344482
aF-0.41686469316482538
aa(lp569
F-5.9342141151428223
aF-0.854076087474823
aF-0.41923642158508301
aa(lp570
F-5.9563312530517578
aF-0.84028834104537964
aF-0.4206315279006958
aa(lp571
F-5.9904208183288574
aF-0.82697731256484985
aF-0.42286375164985662
aa(lp572
F-6.018409252166748
aF-0.81372088193893433
aF-0.42467740178108221
aa(lp573
F-6.0545616149902344
aF-0.7992483377456665
aF-0.42704913020133972
aa(lp574
F-6.0884289741516113
aF-0.78642702102661133
aF-0.42928135395050049
aa(lp575
F-6.1225409507751474
aF-0.77128565311431885
aF-0.43151354789733892
aa(lp576
F-6.1481685638427734
aF-0.75925749540328979
aF-0.43318769335746771
aa(lp577
F-6.1881594657897949
aF-0.74446654319763184
aF-0.43583846092224121
aa(lp578
F-6.2238998413085938
aF-0.73114019632339478
aF-0.43821015954017639
aa(lp579
F-6.2536673545837402
aF-0.716938316822052
aF-0.44016334414482122
aa(lp580
F-6.2895975112915039
aF-0.70104551315307617
aF-0.44253507256507868
aa(lp581
F-6.327232837677002
aF-0.68735742568969727
aF-0.44504630565643311
aa(lp582
F-6.3609895706176758
aF-0.67193454504013062
aF-0.44727849960327148
aa(lp583
F-6.388756275177002
aF-0.65570628643035889
aF-0.44909217953681951
aa(lp584
F-6.4243121147155762
aF-0.64123159646987915
aF-0.45146390795707703
aa(lp585
F-6.4640264511108398
aF-0.62469232082366943
aF-0.4541146457195282
aa(lp586
F-6.4775581359863281
aF-0.60888773202896118
aF-0.45495173335075378
aa(lp587
F-6.507256031036377
aF-0.59106159210205078
aF-0.45690488815307623
aa(lp588
F-6.5187182426452637
aF-0.57490003108978271
aF-0.45760247111320501
aaa(lp589
(lp590
F-5.6240863800048828
aF-0.9937024712562561
aF-0.53282815217971802
aa(lp591
F-5.6503825187683114
aF-0.98208522796630859
aF-0.53505754470825195
aa(lp592
F-5.6786203384399414
aF-0.970664381980896
aF-0.53747272491455078
aa(lp593
F-5.7089695930480957
aF-0.9584270715713501
aF-0.5400736927986145
aa(lp594
F-5.7412610054016113
aF-0.94634205102920532
aF-0.54286044836044312
aa(lp595
F-5.7655043601989746
aF-0.93380790948867798
aF-0.54490405321121216
aa(lp596
F-5.7997159957885742
aF-0.92169797420501709
aF-0.54787659645080566
aa(lp597
F-5.8239102363586426
aF-0.90887612104415894
aF-0.54992026090621948
aa(lp598
F-5.8483905792236328
aF-0.89388489723205566
aF-0.55196386575698853
aa(lp599
F-5.8822188377380371
aF-0.88330221176147461
aF-0.55493640899658203
aa(lp600
F-5.9243688583374023
aF-0.87060892581939697
aF-0.55865210294723511
aa(lp601
F-5.9405736923217773
aF-0.85604977607727051
aF-0.55995255708694458
aa(lp602
F-5.9725179672241211
aF-0.84363502264022827
aF-0.56273931264877319
aa(lp603
F-6.0085287094116211
aF-0.83054584264755249
aF-0.56589764356613159
aa(lp604
F-6.0364780426025391
aF-0.81723672151565552
aF-0.56831282377243042
aa(lp605
F-6.0074291229248047
aF-0.79409325122833252
aF-0.56534028053283691
aa(lp606
F-6.0293722152709961
aF-0.7798687219619751
aF-0.56719815731048584
aa(lp607
F-6.0377192497253418
aF-0.76167076826095581
aF-0.56775552034378052
aa(lp608
F-6.0296812057495117
aF-0.74569350481033325
aF-0.56682658195495605
aa(lp609
F-5.9786133766174316
aF-0.72031569480895996
aF-0.56181043386459351
aa(lp610
F-5.9806017875671387
aF-0.70361745357513428
aF-0.56181043386459351
aaa(lp611
(lp612
F-5.6140170097351074
aF-0.99293380975723267
aF-0.66670501232147217
aa(lp613
F-5.6441669464111328
aF-0.98201978206634521
aF-0.66995722055435181
aa(lp614
F-5.6723413467407227
aF-0.97061002254486084
aF-0.67297714948654175
aa(lp615
F-5.7026219367980957
aF-0.95838475227355957
aF-0.67622935771942139
aa(lp616
F-5.7289600372314453
aF-0.94534152746200562
aF-0.67901700735092163
aa(lp617
F-5.7590293884277344
aF-0.93379074335098267
aF-0.68226921558380127
aa(lp618
F-5.7912015914916992
aF-0.92138111591339111
aF-0.68575370311737061
aa(lp619
F-5.8192663192749023
aF-0.9091917872428894
aF-0.68877363204956055
aa(lp620
F-5.8535118103027344
aF-0.89571315050125122
aF-0.69249045848846436
aa(lp621
F-5.8774447441101074
aF-0.88363432884216309
aF-0.69504576921463013
aa(lp622
F-5.9116368293762207
aF-0.86979198455810547
aF-0.69876259565353394
aa(lp623
F-5.9356698989868164
aF-0.85640060901641846
aF-0.70131790637969971
aaa(lp624
(lp625
F-5.6126952171325684
aF-0.99371027946472168
aF-0.80108034610748291
aa(lp626
F-5.6447157859802246
aF-0.98313033580780029
aF-0.80525559186935425
aa(lp627
F-5.6689119338989258
aF-0.97104167938232422
aF-0.80831736326217651
aa(lp628
F-5.7030177116394043
aF-0.95947480201721191
aF-0.81277090311050415
aa(lp629
F-5.7273340225219727
aF-0.94610011577606201
aF-0.81583273410797119
aa(lp630
F-5.7553682327270508
aF-0.93422806262969971
aF-0.81945121288299561
aa(lp631
F-5.7854971885681152
aF-0.92150884866714478
aF-0.82334804534912109
aa(lp632
F-5.8173990249633789
aF-0.90994018316268921
aF-0.82752323150634766
aaa.