(lp1
(lp2
(lp3
F23.699000000000002
aF-20.384
aF3.6555
aa(lp4
F23.417000000000002
aF-20.27
aF3.6217999999999999
aa(lp5
F23.155000000000001
aF-20.149999999999999
aF3.5895000000000001
aa(lp6
F22.896000000000001
aF-20.050999999999998
aF3.5590999999999999
aa(lp7
F22.631
aF-19.931000000000001
aF3.5266000000000002
aa(lp8
F22.359999999999999
aF-19.803000000000001
aF3.4929000000000001
aa(lp9
F22.105
aF-19.701000000000001
aF3.4626999999999999
aa(lp10
F21.853000000000002
aF-19.587
aF3.4318
aa(lp11
F21.632999999999999
aF-19.498999999999999
aF3.4058000000000002
aa(lp12
F21.382999999999999
aF-19.396000000000001
aF3.3759999999999999
aa(lp13
F21.16
aF-19.302
aF3.3492999999999999
aaa(lp14
(lp15
F23.716000000000001
aF-20.399000000000001
aF2.9184999999999999
aa(lp16
F23.431000000000001
aF-20.282
aF2.8912
aa(lp17
F23.169
aF-20.161000000000001
aF2.8653
aa(lp18
F22.891999999999999
aF-20.047999999999998
aF2.839
aa(lp19
F22.641999999999999
aF-19.940999999999999
aF2.8148
aa(lp20
F22.379000000000001
aF-19.82
aF2.7890000000000001
aa(lp21
F22.132000000000001
aF-19.725999999999999
aF2.766
aa(lp22
F21.876999999999999
aF-19.608000000000001
aF2.7408999999999999
aa(lp23
F21.643000000000001
aF-19.507999999999999
aF2.7183999999999999
aa(lp24
F21.411000000000001
aF-19.420999999999999
aF2.6968000000000001
aa(lp25
F21.177
aF-19.317
aF2.6741999999999999
aa(lp26
F21.004000000000001
aF-19.273
aF2.6595
aaa(lp27
(lp28
F23.719999999999999
aF-20.402999999999999
aF2.1878000000000002
aa(lp29
F23.452000000000002
aF-20.300999999999998
aF2.169
aa(lp30
F23.184000000000001
aF-20.175000000000001
aF2.1490999999999998
aa(lp31
F22.923999999999999
aF-20.074999999999999
aF2.1307999999999998
aa(lp32
F22.661000000000001
aF-19.957000000000001
aF2.1114999999999999
aa(lp33
F22.407
aF-19.844999999999999
aF2.093
aa(lp34
F22.138999999999999
aF-19.731999999999999
aF2.0737000000000001
aa(lp35
F21.895
aF-19.623999999999999
aF2.056
aa(lp36
F21.661999999999999
aF-19.524999999999999
aF2.0392999999999999
aa(lp37
F21.428000000000001
aF-19.436
aF2.0228999999999999
aa(lp38
F21.196000000000002
aF-19.335000000000001
aF2.0062000000000002
aa(lp39
F20.983000000000001
aF-19.254000000000001
aF1.9914000000000001
aaa(lp40
(lp41
F23.927
aF-20.457000000000001
aF1.468
aa(lp42
F23.713000000000001
aF-20.396000000000001
aF1.4585999999999999
aa(lp43
F23.440000000000001
aF-20.289999999999999
aF1.4458
aa(lp44
F23.170000000000002
aF-20.163
aF1.4322999999999999
aa(lp45
F22.913
aF-20.065999999999999
aF1.4202999999999999
aa(lp46
F22.651
aF-19.949000000000002
aF1.4076
aa(lp47
F22.402000000000001
aF-19.841000000000001
aF1.3955
aa(lp48
F22.129999999999999
aF-19.724
aF1.3824000000000001
aa(lp49
F21.882999999999999
aF-19.614000000000001
aF1.3704000000000001
aa(lp50
F21.654
aF-19.518000000000001
aF1.3594999999999999
aa(lp51
F21.420000000000002
aF-19.428999999999998
aF1.3486
aa(lp52
F21.187999999999999
aF-19.327000000000002
aF1.3373999999999999
aa(lp53
F20.992000000000001
aF-19.263000000000002
aF1.3287
aaa(lp54
(lp55
F23.745999999999999
aF-20.425000000000001
aF0.72719
aa(lp56
F23.460999999999999
aF-20.308
aF0.72041999999999995
aa(lp57
F23.193999999999999
aF-20.183
aF0.71382000000000001
aa(lp58
F22.917999999999999
aF-20.07
aF0.70728000000000002
aa(lp59
F22.670999999999999
aF-19.966000000000001
aF0.70138
aa(lp60
F22.413
aF-19.850999999999999
aF0.69511999999999996
aa(lp61
F22.152000000000001
aF-19.744
aF0.68894
aa(lp62
F21.902000000000001
aF-19.631
aF0.68286000000000002
aa(lp63
F21.672999999999998
aF-19.535
aF0.67742999999999998
aa(lp64
F21.427
aF-19.434999999999999
aF0.67162999999999995
aa(lp65
F21.202999999999999
aF-19.34
aF0.66629000000000005
aaa(lp66
(lp67
F23.754000000000001
aF-20.431999999999999
aF0
aa(lp68
F23.466999999999999
aF-20.314
aF0
aa(lp69
F23.209
aF-20.196000000000002
aF0
aa(lp70
F22.943999999999999
aF-20.093
aF0
aa(lp71
F22.672999999999998
aF-19.968
aF0
aa(lp72
F22.411999999999999
aF-19.849
aF0
aa(lp73
F22.161000000000001
aF-19.751999999999999
aF0
aa(lp74
F21.914999999999999
aF-19.643000000000001
aF0
aa(lp75
F21.681999999999999
aF-19.542999999999999
aF0
aa(lp76
F21.452999999999999
aF-19.459
aF0
aa(lp77
F21.222000000000001
aF-19.358000000000001
aF0
aaa(lp78
(lp79
F23.882000000000001
aF-20.419
aF-0.72951999999999995
aa(lp80
F23.731000000000002
aF-20.411999999999999
aF-0.72672999999999999
aa(lp81
F23.465
aF-20.312000000000001
aF-0.72055999999999998
aa(lp82
F23.305
aF-20.280000000000001
aF-0.71726000000000001
aa(lp83
F23.274000000000001
aF-20.382000000000001
aF-0.71828000000000003
aa(lp84
F23.231999999999999
aF-20.460999999999999
aF-0.71875
aa(lp85
F23.193000000000001
aF-20.541
aF-0.71930000000000005
aa(lp86
F22.981999999999999
aF-20.484000000000002
aF-0.71475
aa(lp87
F22.739000000000001
aF-20.381
aF-0.70894999999999997
aaa(lp88
(lp89
F23.899000000000001
aF-20.434000000000001
aF-1.4663999999999999
aa(lp90
F23.766999999999999
aF-20.443000000000001
aF-1.462
aa(lp91
F23.489999999999998
aF-20.332999999999998
aF-1.4488000000000001
aa(lp92
F23.297000000000001
aF-20.273
aF-1.4401999999999999
aa(lp93
F23.245999999999999
aF-20.358000000000001
aF-1.4410000000000001
aa(lp94
F23.239999999999998
aF-20.468
aF-1.4441999999999999
aa(lp95
F23.198
aF-20.545999999999999
aF-1.4451000000000001
aa(lp96
F23.015999999999998
aF-20.513000000000002
aF-1.4378
aa(lp97
F22.760000000000002
aF-20.399999999999999
aF-1.4254
aaa(lp98
(lp99
F23.309000000000001
aF-20.283000000000001
aF-2.1606000000000001
aa(lp100
F23.257999999999999
aF-20.367999999999999
aF-2.1619000000000002
aa(lp101
F23.227
aF-20.456
aF-2.1642999999999999
aa(lp102
F23.192
aF-20.539999999999999
aF-2.1663999999999999
aa(lp103
F23.059999999999999
aF-20.553000000000001
aF-2.1600999999999999
aa(lp104
F22.791
aF-20.427
aF-2.1400999999999999
aaa.