(lp1
(lp2
(lp3
F-18.742999999999999
aF1.1792
aF3.0855000000000001
aa(lp4
F-18.707999999999998
aF1.2327999999999999
aF3.0802999999999998
aa(lp5
F-18.545000000000002
aF1.274
aF3.0539999999999998
aa(lp6
F-18.669
aF1.3382000000000001
aF3.0750999999999999
aa(lp7
F-18.669
aF1.3906000000000001
aF3.0758000000000001
aa(lp8
F-18.651
aF1.4481999999999999
aF3.0735000000000001
aa(lp9
F-18.628
aF1.4955000000000001
aF3.0701999999999998
aa(lp10
F-18.605
aF1.5492999999999999
aF3.0672999999999999
aa(lp11
F-18.577000000000002
aF1.6024
aF3.0634000000000001
aa(lp12
F-18.567
aF1.6505000000000001
aF3.0625
aa(lp13
F-18.536000000000001
aF1.7064999999999999
aF3.0581999999999998
aa(lp14
F-18.521000000000001
aF1.7573000000000001
aF3.0566
aa(lp15
F-18.489000000000001
aF1.8063
aF3.0520999999999998
aa(lp16
F-18.462
aF1.8622000000000001
aF3.0485000000000002
aaa(lp17
(lp18
F-18.776
aF1.1813
aF2.6440000000000001
aa(lp19
F-18.670000000000002
aF1.2302
aF2.6295000000000002
aa(lp20
F-18.544
aF1.2739
aF2.6122999999999998
aa(lp21
F-18.673999999999999
aF1.3386
aF2.6312000000000002
aa(lp22
F-18.673999999999999
aF1.391
aF2.6318000000000001
aa(lp23
F-18.646000000000001
aF1.4478
aF2.6284000000000001
aa(lp24
F-18.638000000000002
aF1.4963
aF2.6278999999999999
aa(lp25
F-18.608000000000001
aF1.5495000000000001
aF2.6242000000000001
aa(lp26
F-18.599
aF1.6043000000000001
aF2.6236999999999999
aa(lp27
F-18.571999999999999
aF1.6509
aF2.6204000000000001
aa(lp28
F-18.559999999999999
aF1.7087000000000001
aF2.6194999999999999
aa(lp29
F-18.524000000000001
aF1.7576000000000001
aF2.6151
aa(lp30
F-18.510999999999999
aF1.8085
aF2.6139000000000001
aa(lp31
F-18.474
aF1.8634999999999999
aF2.6095000000000002
aa(lp32
F-18.457999999999998
aF1.9173
aF2.6080999999999999
aa(lp33
F-18.446999999999999
aF1.9649000000000001
aF2.6073
aa(lp34
F-18.43
aF2.0184000000000002
aF2.6055999999999999
aa(lp35
F-18.405000000000001
aF2.0743
aF2.6031
aaa(lp36
(lp37
F-18.579999999999998
aF1.169
aF2.1770999999999998
aa(lp38
F-18.548999999999999
aF1.2222999999999999
aF2.1739000000000002
aa(lp39
F-18.524000000000001
aF1.3278000000000001
aF2.1718000000000002
aa(lp40
F-18.481999999999999
aF1.3767
aF2.1674000000000002
aa(lp41
F-18.449999999999999
aF1.4326000000000001
aF2.1640999999999999
aa(lp42
F-18.454000000000001
aF1.4816
aF2.165
aa(lp43
F-18.43
aF1.5347
aF2.1627000000000001
aa(lp44
F-18.404
aF1.5874999999999999
aF2.1602000000000001
aa(lp45
F-18.402000000000001
aF1.6357999999999999
aF2.1604000000000001
aa(lp46
F-18.375
aF1.6916
aF2.1577999999999999
aa(lp47
F-18.34
aF1.7401
aF2.1543999999999999
aa(lp48
F-18.311
aF1.7889999999999999
aF2.1516000000000002
aa(lp49
F-18.314
aF1.8472999999999999
aF2.1524999999999999
aa(lp50
F-18.283999999999999
aF1.8992
aF2.1497000000000002
aa(lp51
F-18.265999999999998
aF1.9456
aF2.1480999999999999
aa(lp52
F-18.242000000000001
aF1.9978
aF2.1459999999999999
aa(lp53
F-18.202000000000002
aF2.0512999999999999
aF2.1421000000000001
aaa(lp54
(lp55
F-18.594000000000001
aF1.1698999999999999
aF1.7382
aa(lp56
F-18.555
aF1.2226999999999999
aF1.7347999999999999
aa(lp57
F-18.521999999999998
aF1.3277000000000001
aF1.7323999999999999
aa(lp58
F-18.495999999999999
aF1.3777999999999999
aF1.7303999999999999
aa(lp59
F-18.463999999999999
aF1.4337
aF1.7278
aa(lp60
F-18.442
aF1.4805999999999999
aF1.7261
aa(lp61
F-18.425999999999998
aF1.5343
aF1.7250000000000001
aa(lp62
F-18.396000000000001
aF1.5868
aF1.7225999999999999
aa(lp63
F-18.375
aF1.6335
aF1.7211000000000001
aa(lp64
F-18.372
aF1.6914
aF1.7213000000000001
aa(lp65
F-18.346
aF1.7405999999999999
aF1.7192000000000001
aa(lp66
F-18.315000000000001
aF1.7892999999999999
aF1.7168000000000001
aa(lp67
F-18.311
aF1.8471
aF1.7170000000000001
aa(lp68
F-18.289999999999999
aF1.8996999999999999
aF1.7155
aa(lp69
F-18.277000000000001
aF1.9468000000000001
aF1.7148000000000001
aa(lp70
F-18.245000000000001
aF1.9982
aF1.7123999999999999
aa(lp71
F-18.207000000000001
aF2.0518999999999998
aF1.7094
aaa.