(lp1
(lp2
(lp3
F-12.311
aF15.935
aF-0.46750999999999998
aa(lp4
F-12.281000000000001
aF15.993
aF-0.46816000000000002
aa(lp5
F-12.254
aF16.050999999999998
aF-0.46886
aa(lp6
F-12.234999999999999
aF16.123999999999999
aF-0.46993000000000001
aa(lp7
F-12.198
aF16.175000000000001
aF-0.47033999999999998
aa(lp8
F-12.188000000000001
aF16.25
aF-0.47160000000000002
aa(lp9
F-12.148
aF16.297000000000001
aF-0.47192000000000001
aa(lp10
F-12.119
aF16.361000000000001
aF-0.47271000000000002
aa(lp11
F-12.09
aF16.422000000000001
aF-0.47344999999999998
aa(lp12
F-12.066000000000001
aF16.486999999999998
aF-0.47433999999999998
aa(lp13
F-12.045999999999999
aF16.561
aF-0.47544999999999998
aa(lp14
F-12.002000000000001
aF16.597999999999999
aF-0.47554000000000002
aaa(lp15
(lp16
F-12.407
aF15.581
aF-1.3928
aa(lp17
F-12.388
aF15.647
aF-1.3955
aa(lp18
F-12.353999999999999
aF15.710000000000001
aF-1.3975
aa(lp19
F-12.337
aF15.773999999999999
aF-1.4003000000000001
aa(lp20
F-12.305
aF15.824
aF-1.4016999999999999
aa(lp21
F-12.275
aF15.888
aF-1.4038999999999999
aa(lp22
F-12.247999999999999
aF15.951000000000001
aF-1.4063000000000001
aa(lp23
F-12.227
aF16.015000000000001
aF-1.4089
aa(lp24
F-12.195
aF16.071999999999999
aF-1.4108000000000001
aa(lp25
F-12.167999999999999
aF16.135000000000002
aF-1.4131
aa(lp26
F-12.148
aF16.196999999999999
aF-1.4157999999999999
aa(lp27
F-12.117000000000001
aF16.256
aF-1.4177
aa(lp28
F-12.093
aF16.324999999999999
aF-1.4207000000000001
aa(lp29
F-12.064
aF16.387
aF-1.4229000000000001
aa(lp30
F-12.042999999999999
aF16.454000000000001
aF-1.4258
aa(lp31
F-12.010999999999999
aF16.513999999999999
aF-1.4278999999999999
aa(lp32
F-11.989000000000001
aF16.579999999999998
aF-1.4307000000000001
aaa(lp33
(lp34
F-11.75
aF17.186
aF-1.4558
aa(lp35
F-11.723000000000001
aF17.242999999999999
aF-1.458
aa(lp36
F-11.699
aF17.324999999999999
aF-1.4618
aa(lp37
F-11.679
aF17.393999999999998
aF-1.4650000000000001
aa(lp38
F-11.648
aF17.465
aF-1.468
aa(lp39
F-11.609999999999999
aF17.513999999999999
aF-1.4694
aa(lp40
F-11.585000000000001
aF17.59
aF-1.4728000000000001
aaa(lp41
(lp42
F-11.529
aF17.731999999999999
aF-1.4790000000000001
aa(lp43
F-11.500999999999999
aF17.791
aF-1.4813000000000001
aa(lp44
F-11.471
aF17.861999999999998
aF-1.4843999999999999
aa(lp45
F-11.439
aF17.928000000000001
aF-1.4871000000000001
aa(lp46
F-11.409000000000001
aF18.006
aF-1.4905999999999999
aa(lp47
F-11.377000000000001
aF18.059000000000001
aF-1.4924999999999999
aa(lp48
F-11.352
aF18.138000000000002
aF-1.4963
aa(lp49
F-11.321
aF18.202000000000002
aF-1.4988999999999999
aa(lp50
F-11.291
aF18.274999999999999
aF-1.5021
aa(lp51
F-11.266999999999999
aF18.350000000000001
aF-1.5058
aa(lp52
F-11.228999999999999
aF18.417999999999999
aF-1.5084
aa(lp53
F-11.199999999999999
aF18.486999999999998
aF-1.5115000000000001
aa(lp54
F-11.169
aF18.559000000000001
aF-1.5146999999999999
aa(lp55
F-11.143000000000001
aF18.626000000000001
aF-1.5178
aaa.