(lp1
(lp2
(lp3
F-5.4791999999999996
aF6.3007999999999997
aF1.1735
aa(lp4
F-5.4627999999999997
aF6.3175999999999997
aF1.1738
aa(lp5
F-5.4492000000000003
aF6.3398000000000003
aF1.1749000000000001
aa(lp6
F-5.4442000000000004
aF6.3676000000000004
aF1.1774
aa(lp7
F-5.4330999999999996
aF6.3952
aF1.1794
aa(lp8
F-5.4204999999999997
aF6.4188999999999998
aF1.1807000000000001
aa(lp9
F-5.4104000000000001
aF6.4455
aF1.1827000000000001
aa(lp10
F-5.4000000000000004
aF6.4698000000000002
aF1.1843999999999999
aa(lp11
F-5.3883000000000001
aF6.4949000000000003
aF1.1859999999999999
aa(lp12
F-5.3776999999999999
aF6.5190999999999999
aF1.1877
aa(lp13
F-5.4287000000000001
aF6.6208
aF1.2033
aa(lp14
F-5.4640000000000004
aF6.7019000000000002
aF1.2153
aa(lp15
F-5.4551999999999996
aF6.7294999999999998
aF1.2175
aa(lp16
F-5.4451999999999998
aF6.7579000000000002
aF1.2197
aaa(lp17
(lp18
F-5.4661999999999997
aF6.3215000000000003
aF0.97728999999999999
aa(lp19
F-5.4565000000000001
aF6.3482000000000003
aF0.97892000000000001
aa(lp20
F-5.4539999999999997
aF6.3791000000000002
aF0.98146999999999995
aa(lp21
F-5.4417
aF6.4053000000000004
aF0.98287000000000002
aa(lp22
F-5.4278000000000004
aF6.4275000000000002
aF0.98380000000000001
aa(lp23
F-5.4215
aF6.4588000000000001
aF0.98612
aa(lp24
F-5.4109999999999996
aF6.4829999999999997
aF0.98751
aa(lp25
F-5.3929999999999998
aF6.5006000000000004
aF0.98775000000000002
aa(lp26
F-5.3825000000000003
aF6.5247999999999999
aF0.98914000000000002
aaa(lp27
(lp28
F-5.4665999999999997
aF6.3220000000000001
aF0.77973000000000003
aa(lp29
F-5.4530000000000003
aF6.3441999999999998
aF0.78047999999999995
aa(lp30
F-5.4545000000000003
aF6.3796999999999997
aF0.78308
aa(lp31
F-5.4435000000000002
aF6.4074
aF0.78437999999999997
aa(lp32
F-5.4309000000000003
aF6.4310999999999998
aF0.78530999999999995
aa(lp33
F-5.4194000000000004
aF6.4562999999999997
aF0.78642000000000001
aa(lp34
F-5.4001000000000001
aF6.4699
aF0.78624000000000005
aa(lp35
F-5.3872
aF6.4935999999999998
aF0.78717000000000004
aa(lp36
F-5.3780000000000001
aF6.5194000000000001
aF0.78847
aaa(lp37
(lp38
F-5.4580000000000002
aF6.2765000000000004
aF0.58162999999999998
aa(lp39
F-5.4587000000000003
aF6.3128000000000002
aF0.58357999999999999
aa(lp40
F-5.4465000000000003
aF6.3365999999999998
aF0.58428000000000002
aa(lp41
F-5.4375999999999998
aF6.3598999999999997
aF0.58511999999999997
aa(lp42
F-5.4241000000000001
aF6.3845999999999998
aF0.58581000000000005
aa(lp43
F-5.4206000000000003
aF6.4188999999999998
aF0.58748999999999996
aa(lp44
F-5.4078999999999997
aF6.4425999999999997
aF0.58818999999999999
aa(lp45
F-5.3963000000000001
aF6.4653
aF0.58887999999999996
aa(lp46
F-5.3834
aF6.4889999999999999
aF0.58957999999999999
aa(lp47
F-5.3742000000000001
aF6.5148000000000001
aF0.59055999999999997
aaa(lp48
(lp49
F-5.4692999999999996
aF6.2895000000000003
aF0.38868999999999998
aa(lp50
F-5.4622000000000002
aF6.3167999999999997
aF0.38944000000000001
aa(lp51
F-5.4473000000000003
aF6.3376000000000001
aF0.38972000000000001
aa(lp52
F-5.4398
aF6.3624000000000001
aF0.39036999999999999
aa(lp53
F-5.4263000000000003
aF6.3871000000000002
aF0.39083000000000001
aa(lp54
F-5.4188999999999998
aF6.4169
aF0.39167000000000002
aa(lp55
F-5.4074999999999998
aF6.4420999999999999
aF0.39223000000000002
aa(lp56
F-5.3959000000000001
aF6.4649000000000001
aF0.39269999999999999
aa(lp57
F-5.3983999999999996
aF6.5069999999999997
aF0.39428000000000002
aa(lp58
F-5.3750999999999998
aF6.5159000000000002
aF0.39390999999999998
aaa(lp59
(lp60
F-5.4855999999999998
aF6.3082000000000003
aF0.19409000000000001
aa(lp61
F-5.4732000000000003
aF6.3296000000000001
aF0.19427
aa(lp62
F-5.4622000000000002
aF6.3548999999999998
aF0.19455
aa(lp63
F-5.4558999999999997
aF6.3813000000000004
aF0.19492000000000001
aa(lp64
F-5.4423000000000004
aF6.4059999999999997
aF0.19516
aa(lp65
F-5.4284999999999997
aF6.4283000000000001
aF0.19534000000000001
aa(lp66
F-5.4170999999999996
aF6.4535
aF0.19561999999999999
aaa(lp67
(lp68
F-5.4809999999999999
aF6.2675000000000001
aF0
aa(lp69
F-5.4766000000000004
aF6.2979000000000003
aF0
aa(lp70
F-5.4694000000000003
aF6.3251999999999997
aF0
aa(lp71
F-5.4572000000000003
aF6.3490000000000002
aF0
aa(lp72
F-5.4470000000000001
aF6.3708999999999998
aF0
aa(lp73
F-5.4333999999999998
aF6.3956
aF0
aa(lp74
F-5.4196
aF6.4177999999999997
aF0
aa(lp75
F-5.4095000000000004
aF6.4446000000000003
aF0
aa(lp76
F-5.4055999999999997
aF6.4764999999999997
aF0
aa(lp77
F-5.3888999999999996
aF6.4955999999999996
aF0
aaa(lp78
(lp79
F-5.4927000000000001
aF6.2808000000000002
aF-0.19372
aa(lp80
F-5.4653
aF6.3205
aF-0.19400000000000001
aa(lp81
F-5.4428999999999998
aF6.3661000000000003
aF-0.19445999999999999
aa(lp82
F-5.4320000000000004
aF6.3939000000000004
aF-0.19478000000000001
aa(lp83
F-5.4194000000000004
aF6.4176000000000002
aF-0.19502
aa(lp84
F-5.4067999999999996
aF6.4413
aF-0.19525000000000001
aa(lp85
F-5.3952
aF6.4640000000000004
aF-0.19547999999999999
aa(lp86
F-5.3887999999999998
aF6.4954000000000001
aF-0.19595000000000001
aaa(lp87
(lp88
F-5.4237000000000002
aF6.3841000000000001
aF-0.39065
aa(lp89
F-5.4137000000000004
aF6.4108000000000001
aF-0.39129999999999998
aa(lp90
F-5.4036999999999997
aF6.4375999999999998
aF-0.39195000000000002
aa(lp91
F-5.3921000000000001
aF6.4603000000000002
aF-0.39241999999999999
aa(lp92
F-5.3792999999999997
aF6.4839000000000002
aF-0.39288000000000001
aa(lp93
F-5.3738000000000001
aF6.5144000000000002
aF-0.39382
aaa(lp94
(lp95
F-5.4710999999999999
aF6.2915000000000001
aF-0.58301999999999998
aa(lp96
F-5.4652000000000003
aF6.3204000000000002
aF-0.58428000000000002
aa(lp97
F-5.4414999999999996
aF6.3644999999999996
aF-0.58553999999999995
aa(lp98
F-5.4291999999999998
aF6.3906000000000001
aF-0.58636999999999995
aa(lp99
F-5.4166999999999996
aF6.4142999999999999
aF-0.58706999999999998
aa(lp100
F-5.4066000000000001
aF6.4410999999999996
aF-0.58804999999999996
aa(lp101
F-5.3963000000000001
aF6.4653
aF-0.58887999999999996
aa(lp102
F-5.3884999999999996
aF6.4950999999999999
aF-0.59014
aa(lp103
F-5.3804999999999996
aF6.5225
aF-0.59126000000000001
aaa(lp104
(lp105
F-5.4776999999999996
aF6.2991999999999999
aF-0.77881
aa(lp106
F-5.4665999999999997
aF6.3220000000000001
aF-0.77973000000000003
aa(lp107
F-5.4505999999999997
aF6.3750999999999998
aF-0.78251999999999999
aa(lp108
F-5.4409000000000001
aF6.4043000000000001
aF-0.78400999999999998
aa(lp109
F-5.4269999999999996
aF6.4264999999999999
aF-0.78474999999999995
aa(lp110
F-5.4194000000000004
aF6.4562999999999997
aF-0.78642000000000001
aa(lp111
F-5.4065000000000003
aF6.4775999999999998
aF-0.78717000000000004
aa(lp112
F-5.3960999999999997
aF6.5042999999999997
aF-0.78847
aa(lp113
F-5.3868
aF6.5301
aF-0.78976999999999997
aaa(lp114
(lp115
F-5.4668999999999999
aF6.2866999999999997
aF-0.97426999999999997
aa(lp116
F-5.4752999999999998
aF6.3319999999999999
aF-0.97892000000000001
aa(lp117
F-5.4501999999999997
aF6.3746
aF-0.98077999999999999
aa(lp118
F-5.4404000000000003
aF6.4038000000000004
aF-0.98263
aa(lp119
F-5.4278000000000004
aF6.4275000000000002
aF-0.98380000000000001
aa(lp120
F-5.4138000000000002
aF6.4496000000000002
aF-0.98472999999999999
aa(lp121
F-5.4071999999999996
aF6.4783999999999997
aF-0.98682000000000003
aa(lp122
F-5.3956
aF6.5035999999999996
aF-0.98821000000000003
aa(lp123
F-5.3861999999999997
aF6.5293999999999999
aF-0.98984000000000005
aaa(lp124
(lp125
F-5.4596999999999998
aF6.2784000000000004
aF-1.1693
aa(lp126
F-5.4692999999999996
aF6.3250999999999999
aF-1.1752
aa(lp127
F-5.4378000000000002
aF6.3601000000000001
aF-1.1759999999999999
aa(lp128
F-5.4306000000000001
aF6.3921999999999999
aF-1.1788000000000001
aa(lp129
F-5.4218000000000002
aF6.4203999999999999
aF-1.181
aa(lp130
F-5.4128999999999996
aF6.4485999999999999
aF-1.1832
aa(lp131
F-5.4000000000000004
aF6.4698000000000002
aF-1.1843999999999999
aa(lp132
F-5.3895999999999997
aF6.4964000000000004
aF-1.1862999999999999
aa(lp133
F-5.3765000000000001
aF6.5175999999999998
aF-1.1874
aaa.