(lp1
(lp2
(lp3
F4.1627999999999998
aF-1.8848
aF0.86095999999999995
aa(lp4
F4.1532999999999998
aF-1.8963000000000001
aF0.86021999999999998
aa(lp5
F4.1539999999999999
aF-1.9089
aF0.86133000000000004
aa(lp6
F4.1407999999999996
aF-1.9186000000000001
aF0.85985
aa(lp7
F4.1387
aF-1.9325000000000001
aF0.86058999999999997
aa(lp8
F4.1372
aF-1.9450000000000001
aF0.86133000000000004
aa(lp9
F4.1292
aF-1.9572000000000001
aF0.86095999999999995
aa(lp10
F4.1433
aF-1.978
aF0.86502999999999997
aa(lp11
F4.0860000000000003
aF-1.9656
aF0.85428999999999999
aa(lp12
F4.0788000000000002
aF-1.9761
aF0.85392000000000001
aa(lp13
F4.0814000000000004
aF-1.9933000000000001
aF0.85577000000000003
aaa(lp14
(lp15
F4.1345000000000001
aF-1.8876999999999999
aF0.74673
aa(lp16
F4.1334999999999997
aF-1.8994
aF0.74738000000000004
aa(lp17
F4.1364000000000001
aF-1.9166000000000001
aF0.749
aa(lp18
F4.1325000000000003
aF-1.9297
aF0.74931999999999999
aa(lp19
F4.1292
aF-1.9413
aF0.74965000000000004
aa(lp20
F4.1231
aF-1.9542999999999999
aF0.74965000000000004
aa(lp21
F4.1444000000000001
aF-1.9784999999999999
aF0.75451000000000001
aa(lp22
F4.0994000000000002
aF-1.972
aF0.74738000000000004
aa(lp23
F4.0777999999999999
aF-1.9757
aF0.74446000000000001
aa(lp24
F4.0787000000000004
aF-1.992
aF0.74575000000000002
aa(lp25
F4.0891000000000002
aF-2.0112000000000001
aF0.74866999999999995
aaa(lp26
(lp27
F4.1581999999999999
aF-1.8985000000000001
aF0.64241999999999999
aa(lp28
F4.1553000000000004
aF-1.9095
aF0.64270000000000005
aa(lp29
F4.1493000000000002
aF-1.9225000000000001
aF0.64270000000000005
aa(lp30
F4.1471999999999998
aF-1.9365000000000001
aF0.64326000000000005
aa(lp31
F4.1349
aF-1.944
aF0.64214000000000004
aa(lp32
F4.1485000000000003
aF-1.9662999999999999
aF0.64520999999999995
aa(lp33
F4.1464999999999996
aF-1.9796
aF0.64576
aa(lp34
F4.1085000000000003
aF-1.9763999999999999
aF0.64075000000000004
aa(lp35
F4.1082999999999998
aF-1.9904999999999999
aF0.64158999999999999
aa(lp36
F4.0842999999999998
aF-1.9946999999999999
aF0.63880000000000003
aa(lp37
F4.1036000000000001
aF-2.0183
aF0.64270000000000005
aaa(lp38
(lp39
F4.1489000000000003
aF-1.8943000000000001
aF0.53335999999999995
aa(lp40
F4.1623000000000001
aF-1.9127000000000001
aF0.53569
aa(lp41
F4.1401000000000003
aF-1.9182999999999999
aF0.53359999999999996
aa(lp42
F4.1272000000000002
aF-1.9272
aF0.53266999999999998
aa(lp43
F4.1292999999999997
aF-1.9413
aF0.53359999999999996
aa(lp44
F4.1428000000000003
aF-1.9778
aF0.53685000000000005
aa(lp45
F4.085
aF-1.9651000000000001
aF0.53010999999999997
aa(lp46
F4.0919999999999996
aF-1.9825999999999999
aF0.53173999999999999
aa(lp47
F4.0804
aF-1.9927999999999999
aF0.53103999999999996
aa(lp48
F4.0945
aF-2.0137999999999998
aF0.53359999999999996
aaa(lp49
(lp50
F4.1555
aF-1.8973
aF0.42619000000000001
aa(lp51
F4.1473000000000004
aF-1.9057999999999999
aF0.42581999999999998
aa(lp52
F4.1502999999999997
aF-1.923
aF0.42675000000000002
aa(lp53
F4.1372999999999998
aF-1.9319
aF0.42599999999999999
aa(lp54
F4.1322999999999999
aF-1.9427000000000001
aF0.42599999999999999
aa(lp55
F4.1315
aF-1.9582999999999999
aF0.42655999999999999
aa(lp56
F4.1296999999999997
aF-1.9715
aF0.42692999999999998
aa(lp57
F4.1058000000000003
aF-1.9751000000000001
aF0.42507
aa(lp58
F4.0914000000000001
aF-1.9822
aF0.42414000000000002
aa(lp59
F4.0869
aF-1.996
aF0.42432999999999998
aa(lp60
F4.101
aF-2.0169999999999999
aF0.42637000000000003
aaa(lp61
(lp62
F4.1398000000000001
aF-1.8900999999999999
aF0.31823000000000001
aa(lp63
F4.1497000000000002
aF-1.9069
aF0.31935000000000002
aa(lp64
F4.1418999999999997
aF-1.9191
aF0.31920999999999999
aa(lp65
F4.1325000000000003
aF-1.9297
aF0.31892999999999999
aa(lp66
F4.1311
aF-1.9421999999999999
aF0.31920999999999999
aa(lp67
F4.1268000000000002
aF-1.956
aF0.31935000000000002
aa(lp68
F4.1266999999999996
aF-1.9701
aF0.31975999999999999
aa(lp69
F4.0991999999999997
aF-1.972
aF0.31808999999999998
aa(lp70
F4.0900999999999996
aF-1.9817
aF0.31780999999999998
aa(lp71
F4.0838999999999999
aF-1.9944999999999999
aF0.31780999999999998
aa(lp72
F4.0890000000000004
aF-2.0112000000000001
aF0.31864999999999999
aaa(lp73
(lp74
F4.1454000000000004
aF-1.8927
aF0.21251
aa(lp75
F4.1516999999999999
aF-1.9077999999999999
aF0.21307000000000001
aa(lp76
F4.1365999999999996
aF-1.9166000000000001
aF0.21260999999999999
aa(lp77
F4.1363000000000003
aF-1.9314
aF0.21289
aa(lp78
F4.1294000000000004
aF-1.9414
aF0.21279000000000001
aa(lp79
F4.1250999999999998
aF-1.9552
aF0.21289
aa(lp80
F4.1233000000000004
aF-1.9684999999999999
aF0.21307000000000001
aa(lp81
F4.0940000000000003
aF-1.9694
aF0.21185999999999999
aa(lp82
F4.0903
aF-1.9817
aF0.21195
aa(lp83
F4.0768000000000004
aF-1.9911000000000001
aF0.21157999999999999
aa(lp84
F4.0856000000000003
aF-2.0095000000000001
aF0.21232999999999999
aaa(lp85
(lp86
F4.1929999999999996
aF-1.8985000000000001
aF0.10686
aa(lp87
F4.1651999999999996
aF-1.9016999999999999
aF0.10631
aa(lp88
F4.1677999999999997
aF-1.9152
aF0.10649
aa(lp89
F4.1562999999999999
aF-1.9258
aF0.10635
aa(lp90
F4.1524000000000001
aF-1.9389000000000001
aF0.10639999999999999
aa(lp91
F4.1473000000000004
aF-1.9498
aF0.10639999999999999
aa(lp92
F4.1429999999999998
aF-1.9637
aF0.10644000000000001
aa(lp93
F4.1429
aF-1.9778
aF0.10657999999999999
aa(lp94
F4.1135999999999999
aF-1.9787999999999999
aF0.10598
aa(lp95
F4.1116000000000001
aF-1.9921
aF0.10607
aa(lp96
F4.1017000000000001
aF-2.0032000000000001
aF0.10598
aa(lp97
F4.0979000000000001
aF-2.0154999999999998
aF0.10603
aaa(lp98
(lp99
F4.1516999999999999
aF-1.8956
aF0
aa(lp100
F4.1597999999999997
aF-1.9115
aF0
aa(lp101
F4.1520000000000001
aF-1.9238
aF0
aa(lp102
F4.1463000000000001
aF-1.9360999999999999
aF0
aa(lp103
F4.1483999999999996
aF-1.9502999999999999
aF0
aa(lp104
F4.1405000000000003
aF-1.9624999999999999
aF0
aa(lp105
F4.1132999999999997
aF-1.9637
aF0
aa(lp106
F4.1165000000000003
aF-1.9802
aF0
aa(lp107
F4.1055000000000001
aF-1.9891000000000001
aF0
aa(lp108
F4.0993000000000004
aF-2.0019999999999998
aF0
aa(lp109
F4.0900999999999996
aF-2.0116999999999998
aF0
aaa(lp110
(lp111
F4.1543000000000001
aF-1.8967000000000001
aF-0.10603
aa(lp112
F4.1478000000000002
aF-1.9059999999999999
aF-0.10598
aa(lp113
F4.1436000000000002
aF-1.9198999999999999
aF-0.10603
aa(lp114
F4.1397000000000004
aF-1.9330000000000001
aF-0.10607
aa(lp115
F4.1382000000000003
aF-1.9455
aF-0.10617
aa(lp116
F4.1303000000000001
aF-1.9577
aF-0.10612000000000001
aa(lp117
F4.1230000000000002
aF-1.9682999999999999
aF-0.10607
aa(lp118
F4.1026999999999996
aF-1.9736
aF-0.1057
aa(lp119
F4.0990000000000002
aF-1.986
aF-0.10575
aa(lp120
F4.0945999999999998
aF-1.9997
aF-0.10579
aa(lp121
F4.0907
aF-2.012
aF-0.10584
aaa(lp122
(lp123
F4.1454000000000004
aF-1.8927
aF-0.21251
aa(lp124
F4.1444000000000001
aF-1.9045000000000001
aF-0.2127
aa(lp125
F4.1348000000000003
aF-1.9157999999999999
aF-0.21251
aa(lp126
F4.1291000000000002
aF-1.9280999999999999
aF-0.21251
aa(lp127
F4.1276000000000002
aF-1.9406000000000001
aF-0.2127
aa(lp128
F4.1250999999999998
aF-1.9552
aF-0.21289
aa(lp129
F4.1196999999999999
aF-1.9666999999999999
aF-0.21289
aa(lp130
F4.0885999999999996
aF-1.9668000000000001
aF-0.21157999999999999
aa(lp131
F4.0867000000000004
aF-1.98
aF-0.21177000000000001
aa(lp132
F4.0804
aF-1.9927999999999999
aF-0.21177000000000001
aa(lp133
F4.0784000000000002
aF-2.0059999999999998
aF-0.21195
aa(lp134
F4.0598999999999998
aF-2.0118
aF-0.21129999999999999
aaa(lp135
(lp136
F4.1651999999999996
aF-1.9016999999999999
aF-0.32018000000000002
aa(lp137
F4.1551
aF-1.9094
aF-0.31975999999999999
aa(lp138
F4.1401000000000003
aF-1.9181999999999999
aF-0.31907000000000002
aa(lp139
F4.1342999999999996
aF-1.9305000000000001
aF-0.31907000000000002
aa(lp140
F4.1311
aF-1.9421999999999999
aF-0.31920999999999999
aa(lp141
F4.1285999999999996
aF-1.9569000000000001
aF-0.31947999999999999
aa(lp142
F4.1140999999999996
aF-1.9641
aF-0.31879000000000002
aa(lp143
F4.0974000000000004
aF-1.9711000000000001
aF-0.31795000000000001
aa(lp144
F4.0972999999999997
aF-1.9851000000000001
aF-0.31836999999999999
aa(lp145
F4.0857000000000001
aF-1.9954000000000001
aF-0.31795000000000001
aa(lp146
F4.0854999999999997
aF-2.0093999999999999
aF-0.31836999999999999
aa(lp147
F4.1009000000000002
aF-2.0322
aF-0.32003999999999999
aa(lp148
F4.0849000000000002
aF-2.0375000000000001
aF-0.31920999999999999
aaa(lp149
(lp150
F4.1736000000000004
aF-1.9056
aF-0.42804999999999999
aa(lp151
F4.1581000000000001
aF-1.9108000000000001
aF-0.42692999999999998
aa(lp152
F4.1502999999999997
aF-1.923
aF-0.42675000000000002
aa(lp153
F4.1428000000000003
aF-1.9343999999999999
aF-0.42655999999999999
aa(lp154
F4.1376999999999997
aF-1.9453
aF-0.42655999999999999
aa(lp155
F4.1351000000000004
aF-1.96
aF-0.42692999999999998
aa(lp156
F4.1349999999999998
aF-1.9741
aF-0.42748999999999998
aa(lp157
F4.1130000000000004
aF-1.9785999999999999
aF-0.42581999999999998
aa(lp158
F4.1093000000000002
aF-1.9908999999999999
aF-0.42599999999999999
aa(lp159
F4.1083999999999996
aF-2.0064000000000002
aF-0.42655999999999999
aa(lp160
F4.0956000000000001
aF-2.0144000000000002
aF-0.42581999999999998
aa(lp161
F4.1288999999999998
aF-2.0459999999999998
aF-0.4299
aaa(lp162
(lp163
F4.1706000000000003
aF-1.9041999999999999
aF-0.53615000000000002
aa(lp164
F4.1532999999999998
aF-1.9086000000000001
aF-0.53452999999999995
aa(lp165
F4.1527000000000003
aF-1.9240999999999999
aF-0.53522000000000003
aa(lp166
F4.1524000000000001
aF-1.9389000000000001
aF-0.53591999999999995
aa(lp167
F4.1455000000000002
aF-1.9490000000000001
aF-0.53569
aa(lp168
F4.1375999999999999
aF-1.9611000000000001
aF-0.53544999999999998
aa(lp169
F4.1284999999999998
aF-1.9710000000000001
aF-0.53498999999999997
aa(lp170
F4.1298000000000004
aF-1.9865999999999999
aF-0.53591999999999995
aa(lp171
F4.0991999999999997
aF-1.986
aF-0.53266999999999998
aa(lp172
F4.0911
aF-1.998
aF-0.53242999999999996
aa(lp173
F4.0854999999999997
aF-2.0095000000000001
aF-0.53242999999999996
aa(lp174
F4.0974000000000004
aF-2.0304000000000002
aF-0.53476000000000001
aaa(lp175
(lp176
F4.1618000000000004
aF-1.9000999999999999
aF-0.64298
aa(lp177
F4.1516999999999999
aF-1.9077999999999999
aF-0.64214000000000004
aa(lp178
F4.1402999999999999
aF-1.9184000000000001
aF-0.64131000000000005
aa(lp179
F4.1292
aF-1.9280999999999999
aF-0.64046999999999998
aa(lp180
F4.1384999999999996
aF-1.9457
aF-0.64270000000000005
aa(lp181
F4.1234000000000002
aF-1.9543999999999999
aF-0.64131000000000005
aa(lp182
F4.1196999999999999
aF-1.9668000000000001
aF-0.64158999999999999
aa(lp183
F4.1050000000000004
aF-1.9746999999999999
aF-0.64019999999999999
aa(lp184
F4.0975999999999999
aF-1.9853000000000001
aF-0.63992000000000004
aa(lp185
F4.0861000000000001
aF-1.9955000000000001
aF-0.63907999999999998
aa(lp186
F4.0822000000000003
aF-2.0078
aF-0.63936000000000004
aa(lp187
F4.0762999999999998
aF-2.0198999999999998
aF-0.63936000000000004
aaa(lp188
(lp189
F4.165
aF-1.9016
aF-0.75224000000000002
aa(lp190
F4.1478000000000002
aF-1.9059999999999999
aF-0.74997000000000003
aa(lp191
F4.1417999999999999
aF-1.9191
aF-0.74997000000000003
aa(lp192
F4.1360999999999999
aF-1.9313
aF-0.74997000000000003
aa(lp193
F4.1345999999999998
aF-1.9438
aF-0.75061999999999995
aa(lp194
F4.1284999999999998
aF-1.9568000000000001
aF-0.75061999999999995
aa(lp195
F4.1177000000000001
aF-1.9658
aF-0.74965000000000004
aa(lp196
F4.1277999999999997
aF-1.9857
aF-0.75256000000000001
aa(lp197
F4.0921000000000003
aF-1.9825999999999999
aF-0.74704999999999999
aa(lp198
F4.0823
aF-1.9937
aF-0.74639999999999995
aa(lp199
F4.0766999999999998
aF-2.0051000000000001
aF-0.74639999999999995
aa(lp200
F4.0796000000000001
aF-2.0215999999999998
aF-0.74802000000000002
aaa(lp201
(lp202
F4.1734999999999998
aF-1.8896999999999999
aF-0.86317999999999995
aa(lp203
F4.1657999999999999
aF-1.9019999999999999
aF-0.86280999999999997
aa(lp204
F4.1646999999999998
aF-1.9137999999999999
aF-0.86355000000000004
aa(lp205
F4.1462000000000003
aF-1.9211
aF-0.86095999999999995
aa(lp206
F4.1351000000000004
aF-1.9309000000000001
aF-0.85985
aa(lp207
F4.1443000000000003
aF-1.9483999999999999
aF-0.86280999999999997
aa(lp208
F4.1452
aF-1.9648000000000001
aF-0.86429
aa(lp209
F4.1308999999999996
aF-1.9721
aF-0.86243999999999998
aa(lp210
F4.0877999999999997
aF-1.9663999999999999
aF-0.85465999999999998
aa(lp211
F4.0788000000000002
aF-1.9761
aF-0.85392000000000001
aa(lp212
F4.0671999999999997
aF-1.9863999999999999
aF-0.85280999999999996
aa(lp213
F4.0721999999999996
aF-2.0028999999999999
aF-0.85502999999999996
aaa(lp214
(lp215
F4.1702000000000004
aF-1.8882000000000001
aF-0.97302999999999995
aa(lp216
F4.1536
aF-1.8964000000000001
aF-0.97053
aa(lp217
F4.1471
aF-1.9056999999999999
aF-0.97011999999999998
aa(lp218
F4.1429
aF-1.9196
aF-0.97053
aa(lp219
F4.1496000000000004
aF-1.9376
aF-0.97343999999999997
aa(lp220
F4.1374000000000004
aF-1.9452
aF-0.97177999999999998
aa(lp221
F4.1260000000000003
aF-1.9556
aF-0.97053
aa(lp222
F4.1435000000000004
aF-1.9781
aF-0.97594000000000003
aa(lp223
F4.0934999999999997
aF-1.9692000000000001
aF-0.96553999999999995
aa(lp224
F4.0827
aF-1.9781
aF-0.96428999999999998
aa(lp225
F4.0693999999999999
aF-1.9874000000000001
aF-0.96262999999999999
aa(lp226
F4.0743999999999998
aF-2.004
aF-0.96513000000000004
aaa(lp227
(lp228
F4.1407999999999996
aF-1.8906000000000001
aF-1.0786
aa(lp229
F4.1326000000000001
aF-1.899
aF-1.0775999999999999
aa(lp230
F4.1337000000000002
aF-1.9153
aF-1.0794999999999999
aa(lp231
F4.1227
aF-1.9251
aF-1.0781000000000001
aa(lp232
F4.1212
aF-1.9375
aF-1.079
aa(lp233
F4.1132999999999997
aF-1.9496
aF-1.0786
aa(lp234
F4.1200999999999999
aF-1.9670000000000001
aF-1.0818000000000001
aa(lp235
F4.0792000000000002
aF-1.9622999999999999
aF-1.0726
aa(lp236
F4.0650000000000004
aF-1.9695
aF-1.0703
aa(lp237
F4.0640000000000001
aF-1.9847999999999999
aF-1.0716000000000001
aa(lp238
F4.0758999999999999
aF-2.0047000000000001
aF-1.0763
aaa(lp239
(lp240
F4.1448999999999998
aF-1.8924000000000001
aF-1.1928000000000001
aa(lp241
F4.1455000000000002
aF-1.905
aF-1.1942999999999999
aa(lp242
F4.1378000000000004
aF-1.9172
aF-1.1938
aa(lp243
F4.1284999999999998
aF-1.9278
aF-1.1928000000000001
aa(lp244
F4.1234999999999999
aF-1.9386000000000001
aF-1.1928000000000001
aa(lp245
F4.1208999999999998
aF-1.9532
aF-1.1938
aa(lp246
F4.1276000000000002
aF-1.9704999999999999
aF-1.1974
aa(lp247
F4.0781999999999998
aF-1.9618
aF-1.1847000000000001
aa(lp248
F4.0692000000000004
aF-1.9715
aF-1.1837
aa(lp249
F4.0682
aF-1.9867999999999999
aF-1.1852
aa(lp250
F4.0730000000000004
aF-2.0032999999999999
aF-1.1882999999999999
aaa.