(lp1
(lp2
(lp3
F-18.742130279541019
aF1.1955761909484861
aF3.0854775905609131
aa(lp4
F-18.75009727478027
aF1.255241274833679
aF3.0874230861663818
aa(lp5
F-18.555549621582031
aF1.2942759990692141
aF3.055971622467041
aa(lp6
F-18.504152297973629
aF1.349119305610657
aF3.0481898784637451
aa(lp7
F-18.675703048706058
aF1.4107891321182251
aF3.0770473480224609
aa(lp8
F-18.659885406494141
aF1.4620110988616939
aF3.0751018524169922
aa(lp9
F-18.631595611572269
aF1.518701553344727
aF3.0712110996246338
aa(lp10
F-18.613788604736332
aF1.566315293312073
aF3.0689413547515869
aa(lp11
F-18.58686637878418
aF1.6261401176452639
aF3.065374612808228
aa(lp12
F-18.56849479675293
aF1.676795601844788
aF3.0631048679351811
aa(lp13
F-18.548320770263668
aF1.723940849304199
aF3.0605111122131352
aa(lp14
F-18.515310287475589
aF1.7795600891113279
aF3.055971622467041
aa(lp15
F-18.495193481445309
aF1.8232473134994509
aF3.0533778667449951
aa(lp16
F-18.477594375610352
aF1.880143880844116
aF3.0514323711395259
aa(lp17
F-18.452644348144531
aF1.9296830892562871
aF3.0481898784637451
aaa(lp18
(lp19
F-18.787019729614261
aF1.1951473951339719
aF2.6456806659698491
aa(lp20
F-18.761434555053711
aF1.252711176872253
aF2.6426188945770259
aa(lp21
F-18.54448127746582
aF1.290251731872559
aF2.6125574111938481
aa(lp22
F-18.53243446350098
aF1.3479297161102299
aF2.6114439964294429
aa(lp23
F-18.686838150024411
aF1.408350348472595
aF2.6337118148803711
aa(lp24
F-18.65518760681152
aF1.458367228507996
aF2.6298148632049561
aa(lp25
F-18.638669967651371
aF1.5160036087036131
aF2.6281447410583501
aa(lp26
F-18.614902496337891
aF1.56313693523407
aF2.625361442565918
aa(lp27
F-18.593832015991211
aF1.62347948551178
aF2.6231346130371089
aa(lp28
F-18.56752777099609
aF1.6734412908554079
aF2.6200728416442871
aa(lp29
F-18.547306060791019
aF1.720581650733948
aF2.617846012115479
aa(lp30
F-18.52998161315918
aF1.7777062654495239
aF2.6161758899688721
aa(lp31
F-18.521638870239261
aF1.8225903511047361
aF2.6156191825866699
aa(lp32
F-18.492177963256839
aF1.878366947174072
aF2.6122791767120361
aa(lp33
F-18.461252212524411
aF1.927325963973999
aF2.6086606979370122
aa(lp34
F-18.431476593017582
aF1.9827721118927
aF2.6053204536437988
aa(lp35
F-18.4317741394043
aF2.0348865985870361
aF2.6061553955078129
aa(lp36
F-18.408308029174808
aF2.0843443870544429
aF2.6036503314971919
aaa(lp37
(lp38
F-18.572023391723629
aF1.236808180809021
aF2.1766641139984131
aa(lp39
F-18.520769119262699
aF1.3438317775726321
aF2.171553373336792
aa(lp40
F-18.497379302978519
aF1.3908249139785771
aF2.1692304611206059
aa(lp41
F-18.477579116821289
aF1.4412380456924441
aF2.1673719882965088
aa(lp42
F-18.45316123962402
aF1.497672915458679
aF2.1650490760803218
aa(lp43
F-18.439279556274411
aF1.545148611068726
aF2.1638875007629399
aa(lp44
F-18.416242599487308
aF1.6047350168228149
aF2.1617968082427979
aa(lp45
F-18.389926910400391
aF1.654198884963989
aF2.1592414379119869
aa(lp46
F-18.381576538085941
aF1.7019715309143071
aF2.1587769985198979
aa(lp47
F-18.362297058105469
aF1.758385062217712
aF2.1571507453918461
aa(lp48
F-18.32402420043945
aF1.803144216537476
aF2.153201580047607
aa(lp49
F-18.300481796264648
aF1.8588951826095581
aF2.1511108875274658
aa(lp50
F-18.29917144775391
aF1.9104049205780029
aF2.1515755653381352
aa(lp51
F-18.275302886962891
aF1.9659717082977299
aF2.1494848728179932
aa(lp52
F-18.24802207946777
aF2.014600515365601
aF2.1469295024871831
aa(lp53
F-18.226535797119141
aF2.0637626647949219
aF2.1450710296630859
aaa(lp54
(lp55
F-18.599882125854489
aF1.1767237186431889
aF1.738751173019409
aa(lp56
F-18.56827545166016
aF1.233303427696228
aF1.73615026473999
aa(lp57
F-18.536796569824219
aF1.341742277145386
aF1.733920812606812
aa(lp58
F-18.507404327392582
aF1.388330340385437
aF1.7315056324005129
aa(lp59
F-18.47566032409668
aF1.4378442764282231
aF1.728904604911804
aa(lp60
F-18.453187942504879
aF1.4944332838058469
aF1.7272325754165649
aa(lp61
F-18.423416137695309
aF1.540581226348877
aF1.7248173952102659
aa(lp62
F-18.40828704833984
aF1.600804448127747
aF1.723888516426086
aa(lp63
F-18.37994384765625
aF1.650067090988159
aF1.7216590642929079
aa(lp64
F-18.367630004882809
aF1.697446942329407
aF1.7209159135818479
aa(lp65
F-18.352294921875
aF1.7541947364807129
aF1.7199870347976689
aa(lp66
F-18.333766937255859
aF1.800872206687927
aF1.718686580657959
aa(lp67
F-18.298299789428711
aF1.855447053909302
aF1.7158998250961299
aa(lp68
F-18.291067123413089
aF1.9063317775726321
aF1.7157139778137209
aa(lp69
F-18.27310752868652
aF1.9625095129013059
aF1.7145992517471309
aa(lp70
F-18.2517204284668
aF2.011784553527832
aF1.713113069534302
aa(lp71
F-18.23020172119141
aF2.0609555244445801
aF1.7116267681121831
aaa.