(lp1
(lp2
(lp3
F19.516677856445309
aF-18.644025802612308
aF3.793302059173584
aa(lp4
F19.30704498291016
aF-18.553642272949219
aF3.7632405757904048
aa(lp5
F19.11521148681641
aF-18.478696823120121
aF3.7365193367004399
aa(lp6
F18.911212921142582
aF-18.390352249145511
aF3.707293033599854
aa(lp7
F18.719598770141602
aF-18.306001663208011
aF3.679736852645874
aa(lp8
F18.51271820068359
aF-18.21146202087402
aF3.6496753692626949
aa(lp9
F18.32908821105957
aF-18.138143539428711
aF3.6240675449371338
aa(lp10
F18.1446533203125
aF-18.062501907348629
aF3.5981812477111821
aa(lp11
F17.976907730102539
aF-17.989461898803711
aF3.574243545532227
aa(lp12
F17.782476425170898
aF-17.90080642700195
aF3.5461306571960449
aaa(lp13
(lp14
F19.31612586975098
aF-18.562368392944339
aF3.1328167915344238
aa(lp15
F19.102434158325199
aF-18.46634483337402
aF3.107031106948853
aa(lp16
F18.909420013427731
aF-18.388607025146481
aF3.0844979286193852
aa(lp17
F18.711709976196289
aF-18.298286437988281
aF3.0605709552764888
aa(lp18
F18.51005935668945
aF-18.208845138549808
aF3.0364115238189702
aa(lp19
F18.323225021362308
aF-18.132343292236332
aF3.0145752429962158
aa(lp20
F18.149679183959961
aF-18.0675048828125
aF2.994829654693604
aa(lp21
F17.95628547668457
aF-17.968826293945309
aF2.970670223236084
aa(lp22
F17.7726936340332
aF-17.890960693359379
aF2.949066162109375
aaa(lp23
(lp24
F19.3295783996582
aF-18.568805694580082
aF2.5006508827209468
aa(lp25
F19.128335952758789
aF-18.484928131103519
aF2.4817008972167969
aa(lp26
F18.926336288452148
aF-18.39863204956055
aF2.4625651836395259
aa(lp27
F18.728214263916019
aF-18.30803298950195
aF2.4434294700622559
aa(lp28
F18.533245086669918
aF-18.225290298461911
aF2.4250369071960449
aa(lp29
F18.360170364379879
aF-18.16256141662598
aF2.409430980682373
aa(lp30
F18.17069244384766
aF-18.082109451293949
aF2.3915956020355229
aa(lp31
F17.988138198852539
aF-17.994417190551761
aF2.373760461807251
aa(lp32
F17.80974197387695
aF-17.9219970703125
aF2.357225656509399
aaa(lp33
(lp34
F19.352205276489261
aF-18.584051132202148
aF1.8761701583862309
aa(lp35
F19.157793045043949
aF-18.506927490234379
aF1.862637400627136
aa(lp36
F18.956853866577148
aF-18.4218635559082
aF1.848407030105591
aa(lp37
F18.762643814086911
aF-18.335287094116211
aF1.834455728530884
aa(lp38
F18.574417114257809
aF-18.259403228759769
aF1.8213415145874019
aa(lp39
F18.374040603637699
aF-18.169939041137699
aF1.806971669197083
aa(lp40
F18.194162368774411
aF-18.09914588928223
aF1.794555068016052
aa(lp41
F18.016925811767582
aF-18.016925811767582
aF1.7817198038101201
aa(lp42
F17.833984375
aF-17.940128326416019
aF1.768884658813477
aa(lp43
F17.696535110473629
aF-17.907817840576168
aF1.76051390171051
aaa(lp44
(lp45
F19.357149124145511
aF-18.582304000854489
aF1.251324057579041
aa(lp46
F19.14815711975098
aF-18.49116134643555
aF1.241355180740356
aa(lp47
F18.947042465209961
aF-18.405902862548832
aF1.231852173805237
aa(lp48
F18.75551795959473
aF-18.321926116943359
aF1.2227218151092529
aa(lp49
F18.558578491210941
aF-18.23746490478516
aF1.2134051322937009
aa(lp50
F18.36940956115723
aF-18.15901947021484
aF1.2045543193817141
aa(lp51
F18.190788269042969
aF-18.089473724365231
aF1.1963555812835689
aa(lp52
F18.016204833984379
aF-18.009916305541989
aF1.1879706382751469
aa(lp53
F17.842947006225589
aF-17.942880630493161
aF1.180051445960999
aaa(lp54
(lp55
F19.371883392333981
aF-18.58995246887207
aF0.62334907054901123
aa(lp56
F19.16847038269043
aF-18.504312515258789
aF0.61856764554977417
aa(lp57
F18.971477508544918
aF-18.423202514648441
aF0.61397194862365723
aa(lp58
F18.782627105712891
aF-18.342000961303711
aF0.6095154881477356
aa(lp59
F18.581207275390629
aF-18.253328323364261
aF0.60473406314849854
aa(lp60
F18.39754676818848
aF-18.180484771728519
aF0.60050970315933228
aa(lp61
F18.214483261108398
aF-18.106716156005859
aF0.59628528356552124
aa(lp62
F18.036899566650391
aF-18.024311065673832
aF0.59201455116271973
aa(lp63
F17.860660552978519
aF-17.954423904418949
aF0.58797585964202881
aa(lp64
F17.715925216674808
aF-17.914926528930661
aF0.58495843410491943
aaa(lp65
(lp66
F19.412641525268558
aF-18.62255859375
aF-0.62455606460571289
aa(lp67
F19.209108352661129
aF-18.537067413330082
aF-0.61977463960647583
aa(lp68
F19.017730712890629
aF-18.461671829223629
aF-0.61536461114883423
aa(lp69
F18.815874099731449
aF-18.3680534362793
aF-0.61049032211303711
aa(lp70
F18.61149787902832
aF-18.276702880859379
aF-0.60561603307723999
aa(lp71
F18.417789459228519
aF-18.194135665893558
aF-0.6010667085647583
aa(lp72
F18.24459075927734
aF-18.130313873291019
aF-0.59716731309890747
aa(lp73
F18.065507888793949
aF-18.046598434448239
aF-0.59285008907318115
aaa(lp74
(lp75
F19.40580940246582
aF-18.609500885009769
aF-1.2538396120071409
aa(lp76
F19.206724166870121
aF-18.528291702270511
aF-1.2445229291915889
aa(lp77
F19.00685882568359
aF-18.444675445556641
aF-1.2351130247116091
aa(lp78
F18.80943489074707
aF-18.3553581237793
aF-1.225610017776489
aa(lp79
F18.610895156860352
aF-18.269731521606449
aF-1.216200113296509
aa(lp80
F18.420139312744141
aF-18.190107345581058
aF-1.207256078720093
aa(lp81
F18.24986457824707
aF-18.129226684570309
aF-1.199616432189941
aa(lp82
F18.077938079833981
aF-18.052713394165039
aF-1.191417813301086
aaa.