(lp1
(lp2
(lp3
F-5.6163201332092294
aF-0.98222506046295166
aF0.93673235177993774
aa(lp4
F-5.6346006393432617
aF-0.96921396255493164
aF0.93932622671127319
aa(lp5
F-5.6666412353515634
aF-0.95742332935333252
aF0.94418984651565552
aa(lp6
F-5.6949319839477539
aF-0.94381105899810791
aF0.94840502738952637
aa(lp7
F-5.7170238494873047
aF-0.93107646703720093
aF0.95164740085601807
aa(lp8
F-5.7548398971557617
aF-0.9197157621383667
aF0.95748376846313477
aa(lp9
F-5.7828898429870614
aF-0.90661048889160156
aF0.96169888973236084
aa(lp10
F-5.808650016784668
aF-0.89507460594177246
aF0.96558976173400879
aa(lp11
F-5.8464055061340332
aF-0.88314199447631836
aF0.97142612934112549
aa(lp12
F-5.8724269866943359
aF-0.8692592978477478
aF0.97531700134277344
aa(lp13
F-5.9024734497070312
aF-0.8547661304473877
aF0.97985637187957764
aa(lp14
F-5.9279904365539551
aF-0.84367799758911133
aF0.98374730348587036
aa(lp15
F-5.9618873596191406
aF-0.82940149307250977
aF0.98893511295318604
aa(lp16
F-5.9915566444396973
aF-0.81648021936416626
aF0.99347448348999023
aa(lp17
F-6.0252528190612793
aF-0.80287009477615356
aF0.99866235256195068
aa(lp18
F-6.0610156059265137
aF-0.78826421499252319
aF1.004174470901489
aa(lp19
F-6.0886440277099609
aF-0.77457338571548462
aF1.0083895921707151
aa(lp20
F-6.1161103248596191
aF-0.76180183887481689
aF1.012604713439941
aa(lp21
F-6.1576566696166992
aF-0.74733930826187134
aF1.0190895795822139
aa(lp22
F-6.190948486328125
aF-0.73493850231170654
aF1.024277448654175
aa(lp23
F-6.2245950698852539
aF-0.71910929679870605
aF1.029465317726135
aa(lp24
F-6.2639632225036621
aF-0.70483022928237915
aF1.035625815391541
aa(lp25
F-6.2954545021057129
aF-0.68946439027786255
aF1.0404894351959231
aa(lp26
F-6.3207859992980957
aF-0.67549717426300049
aF1.044380307197571
aa(lp27
F-6.3620223999023438
aF-0.66081792116165161
aF1.050865173339844
aa(lp28
F-6.3953719139099121
aF-0.64510762691497803
aF1.056053042411804
aa(lp29
F-6.4344668388366699
aF-0.63090497255325317
aF1.062213659286499
aa(lp30
F-6.471674919128418
aF-0.61517238616943359
aF1.0680499076843259
aa(lp31
F-6.4755406379699707
aF-0.59501862525939941
aF1.0683741569519041
aa(lp32
F-6.5027322769165039
aF-0.57920938730239868
aF1.0725892782211299
aa(lp33
F-6.5122871398925781
aF-0.56058996915817261
aF1.0738862752914431
aaa(lp34
(lp35
F-5.6087398529052734
aF-0.98190826177597046
aF0.80024534463882446
aa(lp36
F-5.6348819732666016
aF-0.97027492523193359
aF0.8035854697227478
aa(lp37
F-5.6787447929382324
aF-0.96048778295516968
aF0.80943077802658081
aa(lp38
F-5.6954107284545898
aF-0.94491183757781982
aF0.81137919425964355
aa(lp39
F-5.7175745964050293
aF-0.93219053745269775
aF0.81416261196136475
aa(lp40
F-5.7516059875488281
aF-0.92022842168807983
aF0.81861615180969238
aa(lp41
F-5.7797465324401864
aF-0.90715128183364868
aF0.82223469018936157
aa(lp42
F-5.8095049858093262
aF-0.89624440670013428
aF0.82613152265548706
aa(lp43
F-5.8395543098449707
aF-0.88314956426620483
aF0.83002835512161255
aa(lp44
F-5.8715362548828134
aF-0.87017464637756348
aF0.83420354127883911
aa(lp45
F-5.9016814231872559
aF-0.85570305585861206
aF0.83810043334960938
aa(lp46
F-5.9312047958374023
aF-0.84519165754318237
aF0.84199726581573486
aa(lp47
F-5.9671778678894043
aF-0.83119916915893555
aF0.84672915935516357
aa(lp48
F-5.9969487190246582
aF-0.81828111410140991
aF0.85062599182128906
aa(lp49
F-6.0268344879150391
aF-0.80415135622024536
aF0.85452282428741455
aa(lp50
F-6.0548620223999023
aF-0.78853857517242432
aF0.85814136266708374
aa(lp51
F-6.0904397964477539
aF-0.77588200569152832
aF0.86287319660186768
aa(lp52
F-6.1297907829284668
aF-0.76459228992462158
aF0.86816179752349854
aa(lp53
F-6.1518235206604004
aF-0.74772089719772339
aF0.8709452748298645
aa(lp54
F-6.1930937767028809
aF-0.73628926277160645
aF0.87651216983795166
aa(lp55
F-6.2209525108337402
aF-0.71978878974914551
aF0.88013070821762085
aa(lp56
F-6.2506136894226074
aF-0.70443284511566162
aF0.88402754068374634
aa(lp57
F-6.2959885597229004
aF-0.69063490629196167
aF0.89015114307403564
aa(lp58
F-6.3312525749206543
aF-0.67773336172103882
aF0.89488303661346436
aa(lp59
F-6.3588442802429199
aF-0.6616097092628479
aF0.89850151538848877
aa(lp60
F-6.3962488174438477
aF-0.6463238000869751
aF0.90351176261901855
aa(lp61
F-6.4374494552612314
aF-0.63233178853988647
aF0.90907871723175049
aa(lp62
F-6.4728150367736816
aF-0.6164206862449646
aF0.91381055116653442
aa(lp63
F-6.4648585319519043
aF-0.59517490863800049
aF0.91241884231567383
aa(lp64
F-6.5098943710327148
aF-0.58099263906478882
aF0.91854244470596313
aa(lp65
F-6.5411877632141113
aF-0.5642278790473938
aF0.9227176308631897
aaa(lp66
(lp67
F-5.6216115951538086
aF-0.98416167497634888
aF0.66740190982818604
aa(lp68
F-5.6439146995544434
aF-0.97183024883270264
aF0.66972494125366211
aa(lp69
F-5.6761527061462402
aF-0.96004939079284668
aF0.67320942878723145
aa(lp70
F-5.7085361480712891
aF-0.94708937406539917
aF0.67669397592544556
aa(lp71
F-5.7346854209899902
aF-0.93498027324676514
aF0.67948156595230103
aa(lp72
F-5.7766647338867188
aF-0.92423772811889648
aF0.68412762880325317
aa(lp73
F-5.8009681701660156
aF-0.91048204898834229
aF0.68668293952941895
aa(lp74
F-5.8288540840148926
aF-0.89922940731048584
aF0.68970286846160889
aa(lp75
F-5.8570303916931152
aF-0.88579255342483521
aF0.69272279739379883
aa(lp76
F-5.8851776123046884
aF-0.87219631671905518
aF0.69574266672134399
aa(lp77
F-5.9154114723205566
aF-0.85769385099411011
aF0.69899493455886841
aa(lp78
F-5.9489550590515137
aF-0.84772104024887085
aF0.70271176099777222
aa(lp79
F-5.9850358963012704
aF-0.83368664979934692
aF0.70666086673736572
aa(lp80
F-6.0109591484069824
aF-0.82019281387329102
aF0.70944845676422119
aa(lp81
F-6.0429015159606934
aF-0.80629521608352661
aF0.7129330039024353
aa(lp82
F-6.0729823112487793
aF-0.79089844226837158
aF0.71618521213531494
aa(lp83
F-6.1066956520080566
aF-0.77795290946960449
aF0.71990203857421875
aa(lp84
F-6.1343369483947754
aF-0.76515936851501465
aF0.72292196750640869
aa(lp85
F-6.1741776466369629
aF-0.75043791532516479
aF0.72733569145202637
aa(lp86
F-6.2136001586914062
aF-0.73872721195220947
aF0.73174941539764404
aa(lp87
F-6.2356228828430176
aF-0.72148621082305908
aF0.73407244682312012
aa(lp88
F-6.2772154808044434
aF-0.70743083953857422
aF0.73871845006942749
aa(lp89
F-6.308906078338623
aF-0.69205194711685181
aF0.7422029972076416
aa(lp90
F-6.3482246398925781
aF-0.6795501708984375
aF0.74661672115325928
aa(lp91
F-6.3778743743896484
aF-0.66358965635299683
aF0.74986892938613892
aa(lp92
F-6.4173669815063477
aF-0.64845770597457886
aF0.75428265333175659
aa(lp93
F-6.4448528289794922
aF-0.63305902481079102
aF0.75730258226394653
aa(lp94
F-6.4842758178710938
aF-0.61751216650009155
aF0.76171630620956421
aa(lp95
F-6.4762930870056152
aF-0.59622764587402344
aF0.76055479049682617
aa(lp96
F-6.5175046920776367
aF-0.58167183399200439
aF0.76520079374313354
aa(lp97
F-6.5528469085693359
aF-0.56523358821868896
aF0.76914995908737183
aaa(lp98
(lp99
F-5.5609135627746582
aF-1.0075817108154299
aF0.52725464105606079
aa(lp100
F-5.6058535575866699
aF-0.98241138458251953
aF0.53097027540206909
aa(lp101
F-5.6380114555358887
aF-0.97182703018188477
aF0.53375703096389771
aa(lp102
F-5.6624674797058114
aF-0.95875126123428345
aF0.53580069541931152
aa(lp103
F-5.6968827247619629
aF-0.94617772102355957
aF0.53877323865890503
aa(lp104
F-5.7270174026489258
aF-0.93475627899169922
aF0.54137420654296875
aa(lp105
F-5.757293701171875
aF-0.922169029712677
aF0.54397517442703247
aa(lp106
F-5.7796769142150879
aF-0.90817391872406006
aF0.54583299160003662
aa(lp107
F-5.8194270133972168
aF-0.89881491661071777
aF0.5493628978729248
aa(lp108
F-5.8456950187683114
aF-0.88512188196182251
aF0.55159229040145874
aa(lp109
F-5.8719329833984384
aF-0.87128078937530518
aF0.55382168292999268
aa(lp110
F-5.9061722755432129
aF-0.85740673542022705
aF0.55679422616958618
aa(lp111
F-5.9358491897583008
aF-0.84691047668457031
aF0.5593951940536499
aa(lp112
F-5.9641199111938477
aF-0.83183431625366211
aF0.56181043386459351
aa(lp113
F-5.9979877471923828
aF-0.8194892406463623
aF0.56478297710418701
aa(lp114
F-6.0260524749755859
aF-0.80511754751205444
aF0.56719815731048584
aa(lp115
F-6.0601463317871094
aF-0.79030239582061768
aF0.57017070055007935
aa(lp116
F-6.0899844169616699
aF-0.77690416574478149
aF0.57277166843414307
aa(lp117
F-6.1255893707275391
aF-0.76515400409698486
aF0.57592999935150146
aa(lp118
F-6.1615676879882812
aF-0.7499966025352478
aF0.57908833026885986
aa(lp119
F-6.1852612495422363
aF-0.73645293712615967
aF0.58113193511962891
aa(lp120
F-6.2191944122314453
aF-0.72068536281585693
aF0.58410447835922241
aa(lp121
F-6.2569236755371094
aF-0.7062498927116394
aF0.5874485969543457
aa(lp122
F-6.2886829376220703
aF-0.6909443736076355
aF0.59023535251617432
aa(lp123
F-6.3261103630065918
aF-0.67829972505569458
aF0.59357947111129761
aa(lp124
F-6.3657269477844238
aF-0.66344887018203735
aF0.59710931777954102
aa(lp125
F-6.3993673324584961
aF-0.64776724576950073
aF0.60008186101913452
aa(lp126
F-6.4328594207763672
aF-0.63301455974578857
aF0.60305440425872803
aa(lp127
F-6.4703917503356934
aF-0.61732947826385498
aF0.60639852285385132
aa(lp128
F-6.478248119354248
aF-0.59754788875579834
aF0.606955885887146
aa(lp129
F-6.4977421760559082
aF-0.58105117082595825
aF0.60862797498703003
aa(lp130
F-6.5291972160339364
aF-0.56434166431427002
aF0.61141473054885864
aaa(lp131
(lp132
F-5.5457606315612793
aF-1.0058358907699589
aF0.39412409067153931
aa(lp133
F-5.590764045715332
aF-0.98077279329299927
aF0.39691433310508728
aa(lp134
F-5.6190400123596191
aF-0.96956682205200195
aF0.39872801303863531
aa(lp135
F-5.6553325653076172
aF-0.95855855941772461
aF0.40109971165657038
aa(lp136
F-5.6799650192260742
aF-0.94438666105270386
aF0.40263435244560242
aa(lp137
F-5.710146427154541
aF-0.9330257773399353
aF0.40458753705024719
aa(lp138
F-5.7384991645812988
aF-0.92018592357635498
aF0.40640121698379522
aa(lp139
F-5.7747092247009277
aF-0.90842616558074951
aF0.40877294540405268
aa(lp140
F-5.806643009185791
aF-0.89787811040878296
aF0.41086563467979431
aa(lp141
F-5.829007625579834
aF-0.88363587856292725
aF0.41226077079772949
aa(lp142
F-5.8592324256896973
aF-0.87044143676757812
aF0.41421395540237432
aa(lp143
F-5.8876047134399414
aF-0.85576057434082031
aF0.41602760553359991
aa(lp144
F-5.9212794303894043
aF-0.84588629007339478
aF0.41825982928276062
aa(lp145
F-5.945643424987793
aF-0.83031529188156128
aF0.4197944700717926
aa(lp146
F-5.9835195541381836
aF-0.81857633590698242
aF0.42230570316314697
aa(lp147
F-6.011629581451416
aF-0.80425858497619629
aF0.42411935329437261
aa(lp148
F-6.0418233871459961
aF-0.78898537158966064
aF0.42607253789901728
aa(lp149
F-6.0776467323303223
aF-0.77640825510025024
aF0.4284442663192749
aa(lp150
F-6.1073741912841797
aF-0.7639613151550293
aF0.43039745092391968
aa(lp151
F-6.1434121131896973
aF-0.74887478351593018
aF0.43276914954185491
aa(lp152
F-6.1730871200561523
aF-0.7360960841178894
aF0.43472233414649958
aa(lp153
F-6.2169876098632812
aF-0.72152924537658691
aF0.4376521110534668
aa(lp154
F-6.240908145904541
aF-0.70554530620574951
aF0.43918675184249878
aa(lp155
F-6.2806544303894043
aF-0.69117170572280884
aF0.44183751940727228
aa(lp156
F-6.3181490898132324
aF-0.6785615086555481
aF0.44434875249862671
aa(lp157
F-6.3538684844970703
aF-0.6633339524269104
aF0.44672045111656189
aa(lp158
F-6.3855829238891602
aF-0.64749789237976074
aF0.44881314039230352
aa(lp159
F-6.4231052398681641
aF-0.63318663835525513
aF0.45132437348365778
aa(lp160
F-6.4607048034667969
aF-0.61754322052001953
aF0.45383560657501221
aa(lp161
F-6.4626131057739258
aF-0.59724330902099609
aF0.45383560657501221
aa(lp162
F-6.4761786460876474
aF-0.58026224374771118
aF0.45467269420623779
aa(lp163
F-6.5216012001037598
aF-0.56483185291290283
aF0.45774197578430181
aaa(lp164
(lp165
F-5.5609545707702637
aF-1.009594082832336
aF0.26356902718544012
aa(lp166
F-5.6020960807800293
aF-0.98376858234405518
aF0.26524603366851812
aa(lp167
F-5.6343517303466797
aF-0.97322148084640503
aF0.26664355397224432
aa(lp168
F-5.6608505249023438
aF-0.96051025390625
aF0.26776155829429632
aa(lp169
F-5.6914300918579102
aF-0.94731372594833374
aF0.26906588673591608
aa(lp170
F-5.7196846008300781
aF-0.93560922145843506
aF0.27027705311775208
aa(lp171
F-5.7500510215759277
aF-0.92306774854660034
aF0.271581381559372
aa(lp172
F-5.7764468193054199
aF-0.9097326397895813
aF0.27269938588142401
aa(lp173
F-5.8005261421203613
aF-0.89796888828277588
aF0.27372422814369202
aa(lp174
F-5.8387184143066406
aF-0.88615047931671143
aF0.27540123462677002
aa(lp175
F-5.8689875602722168
aF-0.87293761968612671
aF0.27670556306838989
aa(lp176
F-5.899378776550293
aF-0.85852330923080444
aF0.27800989151000982
aa(lp177
F-5.9232139587402344
aF-0.84721750020980835
aF0.27903473377227778
aa(lp178
F-5.9594821929931641
aF-0.83330833911895752
aF0.2806185781955719
aa(lp179
F-5.9855380058288574
aF-0.81991672515869141
aF0.2817365825176239
aa(lp180
F-6.0156664848327637
aF-0.80586737394332886
aF0.28304091095924377
aa(lp181
F-6.053825855255127
aF-0.79162734746932983
aF0.28471791744232178
aa(lp182
F-6.0936646461486816
aF-0.77953547239303589
aF0.28648808598518372
aa(lp183
F-6.1194725036621094
aF-0.76655948162078857
aF0.28760609030723572
aa(lp184
F-6.1476311683654794
aF-0.75047796964645386
aF0.28881725668907171
aa(lp185
F-6.1832981109619141
aF-0.73840820789337158
aF0.29040110111236572
aa(lp186
F-6.2193236351013184
aF-0.72290050983428955
aF0.2919849157333374
aa(lp187
F-6.2551884651184082
aF-0.70826542377471924
aF0.29356876015663153
aa(lp188
F-6.2850637435913086
aF-0.69276720285415649
aF0.29487308859825129
aa(lp189
F-6.3206238746643066
aF-0.67994320392608643
aF0.29645693302154541
aa(lp190
F-6.354405403137207
aF-0.66451120376586914
aF0.29794761538505549
aa(lp191
F-6.3921260833740234
aF-0.64928847551345825
aF0.29962462186813349
aa(lp192
F-6.4297008514404297
aF-0.63496994972229004
aF0.3013016283512116
aa(lp193
F-6.4713311195373544
aF-0.61969870328903198
aF0.30316495895385742
aa(lp194
F-6.4613103866577148
aF-0.59826022386550903
aF0.30260595679283142
aa(lp195
F-6.4987726211547852
aF-0.58342999219894409
aF0.30428296327590942
aa(lp196
F-6.5223689079284668
aF-0.56604528427124023
aF0.3053077757358551
aaa(lp197
(lp198
F-5.5731906890869141
aF-1.012820363044739
aF0.1315123587846756
aa(lp199
F-5.5840444564819336
aF-0.99768668413162231
aF0.13169804215431211
aa(lp200
F-5.6242246627807617
aF-0.98866647481918335
aF0.1325800567865372
aa(lp201
F-5.6407551765441903
aF-0.9753415584564209
aF0.13290500640869141
aa(lp202
F-5.6751642227172852
aF-0.96395796537399292
aF0.13364775478839869
aa(lp203
F-5.7057762145996094
aF-0.9507250189781189
aF0.13429765403270719
aa(lp204
F-5.738006591796875
aF-0.93963462114334106
aF0.13499398529529569
aa(lp205
F-5.7644586563110352
aF-0.92641264200210571
aF0.13555103540420529
aa(lp206
F-5.7948331832885742
aF-0.91366481781005859
aF0.13620093464851379
aa(lp207
F-5.8307948112487793
aF-0.90369683504104614
aF0.13699011504650119
aa(lp208
F-5.8591485023498544
aF-0.89029735326766968
aF0.1375935822725296
aa(lp209
F-5.8775854110717773
aF-0.87526506185531616
aF0.13796496391296389
aa(lp210
F-5.9080061912536621
aF-0.8608318567276001
aF0.13861486315727231
aa(lp211
F-5.9496774673461914
aF-0.8520624041557312
aF0.13954329490661621
aa(lp212
F-5.9721264839172363
aF-0.83613908290863037
aF0.1400075107812882
aa(lp213
F-6.0081133842468262
aF-0.82407748699188232
aF0.14079667627811429
aa(lp214
F-6.0422396659851074
aF-0.81050068140029907
aF0.14153942465782171
aa(lp215
F-6.0705289840698242
aF-0.79488921165466309
aF0.14214290678501129
aa(lp216
F-6.0965242385864258
aF-0.78098273277282715
aF0.1426999568939209
aa(lp217
F-6.1302905082702637
aF-0.769001305103302
aF0.14344270527362821
aa(lp218
F-6.1684002876281738
aF-0.75410610437393188
aF0.14427830278873441
aa(lp219
F-6.1961627006530762
aF-0.74104136228561401
aF0.1448817849159241
aa(lp220
F-6.2381811141967773
aF-0.72619593143463135
aF0.14581021666526789
aa(lp221
F-6.2681221961975098
aF-0.7108379602432251
aF0.14646011590957639
aa(lp222
F-6.298027515411377
aF-0.69530868530273438
aF0.14711001515388489
aa(lp223
F-6.3316335678100586
aF-0.68224543333053589
aF0.1478527635335922
aa(lp224
F-6.3793668746948242
aF-0.66824716329574585
aF0.1489204615354538
aa(lp225
F-6.403203010559082
aF-0.65154272317886353
aF0.1494310945272446
aa(lp226
F-6.446782112121582
aF-0.63779294490814209
aF0.1504059433937073
aa(lp227
F-6.4884524345397949
aF-0.62248110771179199
aF0.1513343751430512
aa(lp228
F-6.4784307479858398
aF-0.6009858250617981
aF0.15105585753917691
aa(lp229
F-6.5059719085693359
aF-0.58522099256515503
aF0.15165932476520541
aa(lp230
F-6.5415430068969727
aF-0.56885963678359985
aF0.1524485051631928
aaa(lp231
(lp232
F-5.5705804824829102
aF-1.013350367546082
aF0
aa(lp233
F-5.5853748321533203
aF-0.99893039464950562
aF0
aa(lp234
F-5.6137495040893564
aF-0.9878351092338562
aF0
aa(lp235
F-5.644075870513916
aF-0.97693020105361938
aF0
aa(lp236
F-5.6706099510192871
aF-0.96420276165008545
aF0
aa(lp237
F-5.6992568969726562
aF-0.9506610631942749
aF0
aa(lp238
F-5.729520320892334
aF-0.93927180767059326
aF0
aa(lp239
F-5.754002571105957
aF-0.92576247453689575
aF0
aa(lp240
F-5.7824063301086426
aF-0.91273981332778931
aF0
aa(lp241
F-5.8144211769104004
aF-0.90219831466674805
aF0
aa(lp242
F-5.8506855964660653
aF-0.89005619287490845
aF0
aa(lp243
F-5.8750605583190918
aF-0.87593716382980347
aF0
aa(lp244
F-5.9074687957763672
aF-0.86180651187896729
aF0
aa(lp245
F-5.9392533302307129
aF-0.8516274094581604
aF0
aa(lp246
F-5.9696283340454102
aF-0.83685171604156494
aF0
aa(lp247
F-5.9996814727783203
aF-0.82398784160614014
aF0
aa(lp248
F-6.029850959777832
aF-0.80991023778915405
aF0
aa(lp249
F-6.064094066619873
aF-0.79512315988540649
aF0
aa(lp250
F-6.0881118774414062
aF-0.78098517656326294
aF0
aa(lp251
F-6.1278390884399414
aF-0.76978021860122681
aF0
aa(lp252
F-6.1600050926208496
aF-0.75417095422744751
aF0
aa(lp253
F-6.1937313079833984
aF-0.74184709787368774
aF0
aa(lp254
F-6.2238430976867676
aF-0.72562777996063232
aF0
aa(lp255
F-6.2597513198852539
aF-0.71099519729614258
aF0
aa(lp256
F-6.2976150512695312
aF-0.69637572765350342
aF0
aa(lp257
F-6.3252663612365723
aF-0.68267619609832764
aF0
aa(lp258
F-6.3670458793640137
aF-0.66807997226715088
aF0
aa(lp259
F-6.3988456726074219
aF-0.65222775936126709
aF0
aa(lp260
F-6.4344758987426758
aF-0.63770955801010132
aF0
aa(lp261
F-6.4936795234680176
aF-0.58525782823562622
aF0
aa(lp262
F-6.511326789855957
aF-0.56737709045410156
aF0
aaa(lp263
(lp264
F-5.5592436790466309
aF-1.011288166046143
aF-0.13118740916252139
aa(lp265
F-5.5740289688110352
aF-0.99690121412277222
aF-0.13146594166755679
aa(lp266
F-5.6142063140869141
aF-0.9879155158996582
aF-0.1323479562997818
aa(lp267
F-5.6405849456787109
aF-0.97632598876953125
aF-0.13290500640869141
aa(lp268
F-5.6690821647644043
aF-0.9639430046081543
aF-0.13350848853588099
aa(lp269
F-5.7016658782958984
aF-0.95106291770935059
aF-0.13420481979846949
aa(lp270
F-5.729949951171875
aF-0.939342200756073
aF-0.13480828702449801
aa(lp271
F-5.7564005851745614
aF-0.92614829540252686
aF-0.13536535203456879
aa(lp272
F-5.7887482643127441
aF-0.91374093294143677
aF-0.13606168329715729
aa(lp273
F-5.8187823295593262
aF-0.90287500619888306
aF-0.13671158254146579
aa(lp274
F-5.8491096496582031
aF-0.88981640338897705
aF-0.1373614817857742
aa(lp275
F-5.875455379486084
aF-0.87599605321884155
aF-0.137918546795845
aa(lp276
F-5.9157700538635254
aF-0.8630174994468689
aF-0.1388005465269089
aa(lp277
F-5.9416117668151864
aF-0.85196560621261597
aF-0.1393576115369797
aa(lp278
F-5.968019962310791
aF-0.83662623167037964
aF-0.13991466164588931
aa(lp279
F-6.0040078163146973
aF-0.82458198070526123
aF-0.1407038420438767
aa(lp280
F-6.0341715812683114
aF-0.81049054861068726
aF-0.14135374128818509
aa(lp281
F-6.0664253234863281
aF-0.7954288125038147
aF-0.1420500576496124
aa(lp282
F-6.0963878631591797
aF-0.78204679489135742
aF-0.1426999568939209
aa(lp283
F-6.1361079216003418
aF-0.77081888914108276
aF-0.14358197152614591
aa(lp284
F-6.1603302955627441
aF-0.75421077013015747
aF-0.14409260451793671
aa(lp285
F-6.1920628547668457
aF-0.74164724349975586
aF-0.14478893578052521
aa(lp286
F-6.2301101684570312
aF-0.72635847330093384
aF-0.14562451839447019
aa(lp287
F-6.267998218536377
aF-0.71193194389343262
aF-0.14646011590957639
aa(lp288
F-6.3078427314758301
aF-0.69750666618347168
aF-0.14734213054180151
aa(lp289
F-6.3354902267456064
aF-0.68377959728240967
aF-0.1479455977678299
aa(lp290
F-6.3752732276916504
aF-0.66894322633743286
aF-0.1488276124000549
aa(lp291
F-6.4030890464782724
aF-0.6526603102684021
aF-0.1494310945272446
aa(lp292
F-6.4426913261413574
aF-0.63852369785308838
aF-0.1503131091594696
aa(lp293
F-6.4764018058776864
aF-0.62246578931808472
aF-0.15105585753917691
aa(lp294
F-6.4723529815673828
aF-0.60156142711639404
aF-0.15091659128665921
aa(lp295
F-6.5018868446350098
aF-0.58599758148193359
aF-0.15156649053096771
aa(lp296
F-6.5593705177307129
aF-0.5715634822845459
aF-0.15286628901958471
aaa(lp297
(lp298
F-5.5584597587585449
aF-1.012147784233093
aF-0.26347586512565607
aa(lp299
F-5.5937099456787109
aF-0.98531538248062134
aF-0.26487338542938232
aa(lp300
F-5.6220302581787109
aF-0.97412502765655518
aF-0.26608455181121832
aa(lp301
F-5.6524686813354492
aF-0.96213316917419434
aF-0.26738888025283808
aa(lp302
F-5.6771392822265634
aF-0.94799023866653442
aF-0.2684137225151062
aa(lp303
F-5.7132792472839364
aF-0.93763327598571777
aF-0.26999753713607788
aa(lp304
F-5.7416777610778809
aF-0.92480754852294922
aF-0.27120873332023621
aa(lp305
F-5.7661027908325204
aF-0.91119784116744995
aF-0.27223354578018188
aa(lp306
F-5.8059773445129403
aF-0.90192592144012451
aF-0.27400371432304382
aa(lp307
F-5.8323287963867188
aF-0.88830506801605225
aF-0.27512171864509583
aa(lp308
F-5.8606257438659668
aF-0.87483072280883789
aF-0.27633288502693182
aa(lp309
F-5.8870673179626474
aF-0.85987967252731323
aF-0.27745088934898382
aa(lp310
F-5.9247469902038574
aF-0.85060268640518188
aF-0.27912789583206182
aa(lp311
F-5.9511313438415527
aF-0.83531779050827026
aF-0.28024590015411383
aa(lp312
F-5.9910454750061044
aF-0.82386714220046997
aF-0.28201606869697571
aa(lp313
F-6.0132637023925781
aF-0.80875074863433838
aF-0.28294774889945978
aa(lp314
F-6.0474677085876474
aF-0.79401677846908569
aF-0.28443840146064758
aa(lp315
F-6.0813665390014648
aF-0.78119874000549316
aF-0.28592908382415771
aa(lp316
F-6.1071772575378418
aF-0.76826739311218262
aF-0.28704708814620972
aa(lp317
F-6.1432714462280273
aF-0.75321054458618164
aF-0.28863093256950378
aa(lp318
F-6.1749763488769531
aF-0.74069392681121826
aF-0.29002842307090759
aa(lp319
F-6.2070379257202148
aF-0.72476661205291748
aF-0.29142594337463379
aa(lp320
F-6.2389364242553711
aF-0.70973402261734009
aF-0.2928234338760376
aa(lp321
F-6.278742790222168
aF-0.69539815187454224
aF-0.29459360241889948
aa(lp322
F-6.3162946701049814
aF-0.68282312154769897
aF-0.29627060890197748
aa(lp323
F-6.3560433387756348
aF-0.66804707050323486
aF-0.29804077744483948
aa(lp324
F-6.3858227729797363
aF-0.6520264744758606
aF-0.29934510588645941
aa(lp325
F-6.4154510498046884
aF-0.63695472478866577
aF-0.30064943432807922
aa(lp326
F-6.4630513191223153
aF-0.62232106924057007
aF-0.30279228091239929
aa(lp327
F-6.460996150970459
aF-0.60164326429367065
aF-0.30260595679283142
aa(lp328
F-6.4845380783081064
aF-0.5855749249458313
aF-0.30363079905509949
aa(lp329
F-6.5399837493896484
aF-0.57102429866790771
aF-0.3061462938785553
aaa(lp330
(lp331
F-5.6056246757507324
aF-0.98842287063598633
aF-0.39803043007850653
aa(lp332
F-5.6398153305053711
aF-0.97822058200836182
aF-0.40026265382766718
aa(lp333
F-5.6662945747375488
aF-0.96550416946411133
aF-0.40193679928779602
aa(lp334
F-5.6968493461608887
aF-0.95230352878570557
aF-0.4038899838924408
aa(lp335
F-5.727048397064209
aF-0.94091951847076416
aF-0.40584316849708563
aa(lp336
F-5.7534513473510742
aF-0.92773419618606567
aF-0.40751731395721441
aa(lp337
F-5.7837672233581543
aF-0.91502398252487183
aF-0.40947049856185908
aa(lp338
F-5.8157143592834473
aF-0.90447807312011719
aF-0.41156318783760071
aa(lp339
F-5.8380956649780273
aF-0.89022606611251831
aF-0.41295832395553589
aa(lp340
F-5.8722829818725586
aF-0.87761855125427246
aF-0.41519051790237432
aa(lp341
F-5.9085712432861328
aF-0.86407381296157837
aF-0.41756224632263178
aa(lp342
F-5.936337947845459
aF-0.85332423448562622
aF-0.41937592625617981
aa(lp343
F-5.9686250686645508
aF-0.83883553743362427
aF-0.42146861553192139
aa(lp344
F-5.996638298034668
aF-0.82570266723632812
aF-0.42328229546546942
aa(lp345
F-6.0326757431030273
aF-0.81243354082107544
aF-0.42565399408340449
aa(lp346
F-6.0549793243408203
aF-0.79607802629470825
aF-0.42704913020133972
aa(lp347
F-6.0927972793579102
aF-0.7837480902671814
aF-0.42956036329269409
aa(lp348
F-6.1205615997314453
aF-0.77103626728057861
aF-0.43137404322624212
aa(lp349
F-6.1546378135681152
aF-0.75569450855255127
aF-0.43360623717308039
aa(lp350
F-6.1902704238891602
aF-0.74362444877624512
aF-0.43597796559333801
aa(lp351
F-6.2203187942504883
aF-0.72741782665252686
aF-0.43793115019798279
aa(lp352
F-6.2581310272216797
aF-0.71302396059036255
aF-0.44044238328933721
aa(lp353
F-6.2899632453918457
aF-0.69775217771530151
aF-0.44253507256507868
aa(lp354
F-6.3294558525085449
aF-0.6853635311126709
aF-0.44518581032752991
aa(lp355
F-6.3632078170776367
aF-0.66992300748825073
aF-0.44741803407669067
aa(lp356
F-6.3969240188598633
aF-0.65428817272186279
aF-0.44965022802352911
aa(lp357
F-6.4344620704650879
aF-0.6399763822555542
aF-0.45216146111488342
aa(lp358
F-6.474064826965332
aF-0.62452197074890137
aF-0.45481219887733459
aa(lp359
F-6.4601030349731454
aF-0.60269743204116821
aF-0.45369610190391541
aa(lp360
F-6.5094490051269531
aF-0.588969886302948
aF-0.45704442262649542
aa(lp361
F-6.5449562072753906
aF-0.57260948419570923
aF-0.45941612124443049
aa(lp362
F-6.5982179641723633
aF-0.55870699882507324
aF-0.46304348111152649
aaa(lp363
(lp364
F-5.6203374862670898
aF-0.99202859401702881
aF-0.53245657682418823
aa(lp365
F-5.6525158882141113
aF-0.98143970966339111
aF-0.53524333238601685
aa(lp366
F-5.6809220314025879
aF-0.9690169095993042
aF-0.53765851259231567
aa(lp367
F-5.7055425643920898
aF-0.95478039979934692
aF-0.53970211744308472
aa(lp368
F-5.7356958389282227
aF-0.94336837530136108
aF-0.54230308532714844
aa(lp369
F-5.7699241638183594
aF-0.93142366409301758
aF-0.54527562856674194
aa(lp370
F-5.8001980781555176
aF-0.91866111755371094
aF-0.54787659645080566
aa(lp371
F-5.8242273330688477
aF-0.90684312582015991
aF-0.54992026090621948
aa(lp372
F-5.8583889007568359
aF-0.89436674118041992
aF-0.55289280414581299
aa(lp373
F-5.8885889053344727
aF-0.88110625743865967
aF-0.55549377202987671
aa(lp374
F-5.9208831787109384
aF-0.86692982912063599
aF-0.55828052759170532
aa(lp375
F-5.9446649551391602
aF-0.85558027029037476
aF-0.56032413244247437
aa(lp376
F-5.9769024848937988
aF-0.84106266498565674
aF-0.56311088800430298
aa(lp377
F-6.012763500213623
aF-0.82899236679077148
aF-0.56626921892166138
aa(lp378
F-6.0408520698547363
aF-0.81460815668106079
aF-0.56868439912796021
aa(lp379
F-6.0019207000732422
aF-0.79016786813735962
aF-0.56478297710418701
aa(lp380
F-6.0416297912597656
aF-0.77823805809020996
aF-0.56831282377243042
aa(lp381
F-6.031792163848877
aF-0.76092302799224854
aF-0.56719815731048584
aa(lp382
F-6.0282235145568848
aF-0.74124079942703247
aF-0.56664079427719116
aa(lp383
F-5.9668765068054199
aF-0.71784508228302002
aF-0.56069570779800415
aa(lp384
F-5.9849247932434082
aF-0.70094919204711914
aF-0.56218200922012329
aaa(lp385
(lp386
F-5.6220149993896484
aF-0.99333649873733521
aF-0.66763424873352051
aa(lp387
F-5.6502094268798828
aF-0.9820551872253418
aF-0.67065411806106567
aa(lp388
F-5.6785540580749512
aF-0.96963298320770264
aF-0.67367404699325562
aa(lp389
F-5.712918758392334
aF-0.95703977346420288
aF-0.67739087343215942
aa(lp390
F-5.7469301223754883
aF-0.94624626636505127
aF-0.68110769987106323
aa(lp391
F-5.7771668434143066
aF-0.9336274266242981
aF-0.68435990810394287
aa(lp392
F-5.8014926910400391
aF-0.91990417242050171
aF-0.68691521883010864
aa(lp393
F-5.83135986328125
aF-0.90899616479873657
aF-0.69016748666763306
aa(lp394
F-5.8634862899780273
aF-0.89619219303131104
aF-0.69365197420120239
aa(lp395
F-5.8916583061218262
aF-0.88261687755584717
aF-0.69667190313339233
aa(lp396
F-5.9238839149475098
aF-0.86842530965805054
aF-0.70015639066696167
aa(lp397
F-5.953514575958252
aF-0.85791456699371338
aF-0.70340865850448608
aaa(lp398
(lp399
F-5.6167688369750977
aF-0.99342054128646851
aF-0.80163705348968506
aa(lp400
F-5.6409845352172852
aF-0.98146611452102661
aF-0.8046988844871521
aa(lp401
F-5.6731553077697754
aF-0.9697301983833313
aF-0.80887407064437866
aa(lp402
F-5.703519344329834
aF-0.95648860931396484
aF-0.81277090311050415
aa(lp403
F-5.7296180725097656
aF-0.94442296028137207
aF-0.81611108779907227
aa(lp404
F-5.7558565139770508
aF-0.93121439218521118
aF-0.81945121288299561
aa(lp405
F-5.7879347801208496
aF-0.91878998279571533
aF-0.82362639904022217
aa(lp406
F-5.8216300010681152
aF-0.90852022171020508
aF-0.8280799388885498
aaa.