(lp1
(lp2
(lp3
F4.8952455520629883
aF-0.15897080302238459
aF0.9227980375289917
aa(lp4
F4.8868956565856934
aF-0.1732160896062851
aF0.92131680250167847
aa(lp5
F4.8804678916931152
aF-0.1874886751174927
aF0.92020589113235474
aa(lp6
F4.8799605369567871
aF-0.20026504993438721
aF0.92020589113235474
aa(lp7
F4.8832345008850098
aF-0.21576839685440061
aF0.92094653844833374
aa(lp8
F4.8747196197509766
aF-0.2298859506845474
aF0.91946530342102051
aa(lp9
F4.8720531463623047
aF-0.24425008893013
aF0.91909497976303101
aa(lp10
F4.8595762252807617
aF-0.25723111629486078
aF0.91687315702438354
aa(lp11
F4.8490738868713379
aF-0.26940742135047913
aF0.91502165794372559
aa(lp12
F4.8463406562805176
aF-0.28283300995826721
aF0.91465133428573608
aa(lp13
F4.8434667587280273
aF-0.29793614149093628
aF0.91428107023239136
aa(lp14
F4.8230018615722656
aF-0.31019899249076838
aF0.91057801246643066
aa(lp15
F4.8436880111694336
aF-0.32511401176452642
aF0.91465133428573608
aa(lp16
F4.8544659614562988
aF-0.34030872583389282
aF0.91687315702438354
aaa(lp17
(lp18
F4.883453369140625
aF-0.17224068939685819
aF0.80282080173492432
aa(lp19
F4.8947534561157227
aF-0.18718190491199491
aF0.80476623773574829
aa(lp20
F4.8745274543762207
aF-0.19918990135192871
aF0.80152380466461182
aa(lp21
F4.8738775253295898
aF-0.21450267732143399
aF0.80152380466461182
aa(lp22
F4.8653345108032227
aF-0.22859230637550351
aF0.80022686719894409
aa(lp23
F4.8784322738647461
aF-0.24371631443500519
aF0.80249655246734619
aa(lp24
F4.8500967025756836
aF-0.25672933459281921
aF0.79795718193054199
aa(lp25
F4.8454670906066903
aF-0.26920703053474432
aF0.79730868339538574
aa(lp26
F4.836815357208252
aF-0.28227713704109192
aF0.79601174592971802
aa(lp27
F4.8359050750732422
aF-0.29747101664543152
aF0.79601174592971802
aa(lp28
F4.8212690353393564
aF-0.31008753180503851
aF0.79374206066131592
aa(lp29
F4.8321990966796884
aF-0.32434284687042242
aF0.79568749666213989
aa(lp30
F4.8568086624145508
aF-0.34047296643257141
aF0.79990261793136597
aaa(lp31
(lp32
F4.898810863494873
aF-0.17192630469799039
aF0.68890684843063354
aa(lp33
F4.8982791900634766
aF-0.18646058440208441
aF0.68890684843063354
aa(lp34
F4.8760066032409668
aF-0.19839788973331449
aF0.6858450174331665
aa(lp35
F4.8714017868041992
aF-0.2135418504476547
aF0.68528836965560913
aa(lp36
F4.8667898178100586
aF-0.22780941426754001
aF0.68473166227340698
aa(lp37
F4.8779611587524414
aF-0.24283929169178009
aF0.68640172481536865
aa(lp38
F4.8633747100830078
aF-0.25658100843429571
aF0.68445330858230591
aa(lp39
F4.8527989387512207
aF-0.26876479387283331
aF0.68306159973144531
aa(lp40
F4.8460979461669922
aF-0.28197017312049871
aF0.68222653865814209
aa(lp41
F4.8392577171325684
aF-0.2968294620513916
aF0.68139147758483887
aa(lp42
F4.8305039405822754
aF-0.3098349273204804
aF0.68027812242507935
aa(lp43
F4.8236913681030273
aF-0.32292613387107849
aF0.67944306135177612
aa(lp44
F4.844444751739502
aF-0.33875659108161932
aF0.68250489234924316
aaa(lp45
(lp46
F4.8856778144836426
aF-0.17146539688110349
aF0.57169371843338013
aa(lp47
F4.8811779022216797
aF-0.18580958247184751
aF0.57122915983200073
aa(lp48
F4.8727355003356934
aF-0.19826479256153109
aF0.57029992341995239
aa(lp49
F4.8681192398071289
aF-0.21339794993400571
aF0.56983530521392822
aa(lp50
F4.8615117073059082
aF-0.22756233811378479
aF0.56913840770721436
aa(lp51
F4.8707351684570312
aF-0.24247956275939939
aF0.57029992341995239
aa(lp52
F4.8561530113220224
aF-0.25535008311271667
aF0.56867384910583496
aa(lp53
F4.8415837287902832
aF-0.26729607582092291
aF0.56704771518707275
aa(lp54
F4.8289198875427246
aF-0.28012502193450928
aF0.56565392017364502
aa(lp55
F4.8260331153869629
aF-0.29517284035682678
aF0.56542158126831055
aa(lp56
F4.8311371803283691
aF-0.30902889370918268
aF0.56611853837966919
aa(lp57
F4.8431487083435059
aF-0.33781653642654419
aF0.56774461269378662
aaa(lp58
(lp59
F4.8997230529785156
aF-0.17110209167003629
aF0.4573998749256134
aa(lp60
F4.893223762512207
aF-0.18541288375854489
aF0.45684254169464111
aa(lp61
F4.8907322883605957
aF-0.19814205169677729
aF0.45665675401687622
aa(lp62
F4.8821277618408203
aF-0.21315829455852511
aF0.45591360330581671
aa(lp63
F4.8655600547790527
aF-0.2269007861614227
aF0.4544273316860199
aa(lp64
F4.8787879943847656
aF-0.24202683568000791
aF0.45572781562805181
aa(lp65
F4.8701386451721191
aF-0.25523313879966741
aF0.45498469471931458
aa(lp66
F4.8555350303649902
aF-0.2672162652015686
aF0.45368421077728271
aa(lp67
F4.8468179702758789
aF-0.28031450510025019
aF0.45294106006622309
aa(lp68
F4.8319997787475586
aF-0.29469126462936401
aF0.45164057612419128
aa(lp69
F4.8092975616455078
aF-0.3067891001701355
aF0.44959697127342219
aa(lp70
F4.8471817970275879
aF-0.33724775910377502
aF0.45331263542175287
aaa(lp71
(lp72
F4.8871097564697266
aF-0.16980764269828799
aF0.34194624423980707
aa(lp73
F4.8845906257629403
aF-0.1842320263385773
aF0.34180670976638788
aa(lp74
F4.884091854095459
aF-0.19701920449733731
aF0.34180670976638788
aa(lp75
F4.8714890480041504
aF-0.211841955780983
aF0.34096965193748469
aa(lp76
F4.8668532371520996
aF-0.2261098176240921
aF0.34069061279296881
aa(lp77
F4.8741316795349121
aF-0.24094307422637939
aF0.34124866127967829
aa(lp78
F4.8515233993530273
aF-0.25340849161148071
aF0.33971402049064642
aa(lp79
F4.838890552520752
aF-0.2654531598091126
aF0.33887696266174322
aa(lp80
F4.8341464996337891
aF-0.27873513102531428
aF0.33859792351722717
aa(lp81
F4.8412127494812012
aF-0.29440507292747498
aF0.33915597200393682
aa(lp82
F4.8244433403015137
aF-0.30690979957580572
aF0.33803987503051758
aa(lp83
F4.842498779296875
aF-0.33607268333435059
aF0.33943501114845281
aaa(lp84
(lp85
F4.8232054710388184
aF-0.40501588582992548
aF0.33845841884613043
aa(lp86
F4.7896108627319336
aF-0.44516193866729742
aF0.33636572957038879
aa(lp87
F4.776432991027832
aF-0.45739418268203741
aF0.33552864193916321
aa(lp88
F4.775054931640625
aF-0.47156411409378052
aF0.33552864193916321
aa(lp89
F4.7795891761779794
aF-0.48633578419685358
aF0.335947185754776
aa(lp90
F4.7742438316345224
aF-0.49926599860191351
aF0.33566814661026001
aa(lp91
F4.7686843872070312
aF-0.51383471488952637
aF0.33538913726806641
aa(lp92
F4.7612819671630859
aF-0.52649158239364624
aF0.33497059345245361
aa(lp93
F4.7597932815551758
aF-0.53978550434112549
aF0.33497059345245361
aa(lp94
F4.7542071342468262
aF-0.5534442663192749
aF0.33469155430793762
aa(lp95
F4.7486810684204102
aF-0.5662459135055542
aF0.33441254496574402
aa(lp96
F4.7430191040039062
aF-0.57984882593154907
aF0.33413350582122803
aa(lp97
F4.7491965293884277
aF-0.59491097927093506
aF0.33469155430793762
aaa(lp98
(lp99
F4.8937549591064453
aF-0.16918337345123291
aF0.228351965546608
aa(lp100
F4.8792562484741211
aF-0.18317802250385279
aF0.22769980132579801
aa(lp101
F4.8747677803039551
aF-0.19579088687896731
aF0.227513462305069
aa(lp102
F4.876124382019043
aF-0.21119087934494021
aF0.22760662436485291
aa(lp103
F4.863502025604248
aF-0.2251034677028656
aF0.2270476371049881
aa(lp104
F4.8588218688964844
aF-0.23933617770671839
aF0.22686129808425901
aa(lp105
F4.8481149673461914
aF-0.25323048233985901
aF0.226395457983017
aa(lp106
F4.8394560813903809
aF-0.26548418402671808
aF0.22602279484272
aa(lp107
F4.8367013931274414
aF-0.27888244390487671
aF0.2259296327829361
aa(lp108
F4.8298187255859384
aF-0.2937121987342835
aF0.2256501317024231
aa(lp109
F4.8289799690246582
aF-0.30719843506813049
aF0.2256501317024231
aa(lp110
F4.8340835571289062
aF-0.32107946276664728
aF0.2259296327829361
aa(lp111
F4.8430747985839844
aF-0.33611264824867249
aF0.226395457983017
aaa(lp112
(lp113
F4.918245792388916
aF-0.15456210076808929
aF0.1142435297369957
aa(lp114
F4.8957843780517578
aF-0.16839805245399481
aF0.1137328892946243
aa(lp115
F4.9012575149536133
aF-0.1831473708152771
aF0.113872155547142
aa(lp116
F4.8947677612304688
aF-0.19573850929737091
aF0.1137328892946243
aa(lp117
F4.8881359100341797
aF-0.21085637807846069
aF0.1135936304926872
aa(lp118
F4.8814969062805176
aF-0.22508253157138819
aF0.1134543642401695
aa(lp119
F4.8867983818054199
aF-0.23985928297042849
aF0.1135936304926872
aa(lp120
F4.870091438293457
aF-0.25352606177330023
aF0.1132222563028336
aa(lp121
F4.8654179573059082
aF-0.26605668663978582
aF0.1131294146180153
aa(lp122
F4.8586673736572266
aF-0.27929818630218511
aF0.1129901483654976
aa(lp123
F4.8497829437255859
aF-0.29407668113708502
aF0.1128044575452805
aa(lp124
F4.848942756652832
aF-0.307618647813797
aF0.1128044575452805
aa(lp125
F4.8380894660949707
aF-0.3204974234104157
aF0.1125723496079445
aa(lp126
F4.8590588569641113
aF-0.33636981248855591
aF0.1130829900503159
aaa(lp127
(lp128
F4.9076042175292969
aF-0.15337029099464419
aF0
aa(lp129
F4.8931355476379403
aF-0.16745191812515259
aF0
aa(lp130
F4.8966145515441903
aF-0.18211805820465091
aF0
aa(lp131
F4.874138355255127
aF-0.19406150281429291
aF0
aa(lp132
F4.8755025863647461
aF-0.2094589173793793
aF0
aa(lp133
F4.8588767051696777
aF-0.2231897115707398
aF0
aa(lp134
F4.8462071418762207
aF-0.23701907694339749
aF0
aa(lp135
F4.8574666976928711
aF-0.25201874971389771
aF0
aa(lp136
F4.8448081016540527
aF-0.2640815675258637
aF0
aa(lp137
F4.8400583267211914
aF-0.27738091349601751
aF0
aaa.