(lp1
(lp2
(lp3
F-5.3350110054016113
aF2.0116772651672359
aF1.0742524862289431
aa(lp4
F-5.3268275260925293
aF2.0277285575866699
aF1.073882102966309
aa(lp5
F-5.3162527084350586
aF2.076997041702271
aF1.075363397598267
aa(lp6
F-5.3045811653137207
aF2.090599536895752
aF1.0742524862289431
aa(lp7
F-5.2954363822937012
aF2.1030287742614751
aF1.0735118389129641
aa(lp8
F-5.2928223609924316
aF2.120193243026733
aF1.0742524862289431
aa(lp9
F-5.2883305549621582
aF2.1366240978240971
aF1.074622750282288
aa(lp10
F-5.2801475524902344
aF2.1515638828277588
aF1.0742524862289431
aa(lp11
F-5.2704825401306152
aF2.1648068428039551
aF1.0735118389129641
aa(lp12
F-5.2672872543334961
aF2.182858943939209
aF1.0742524862289431
aa(lp13
F-5.2615542411804199
aF2.1966409683227539
aF1.0742524862289431
aa(lp14
F-5.2564387321472168
aF2.2139227390289311
aF1.074622750282288
aa(lp15
F-5.2470059394836426
aF2.226141214370728
aF1.073882102966309
aa(lp16
F-5.2318987846374512
aF2.2564599514007568
aF1.0735118389129641
aa(lp17
F-5.229182243347168
aF2.2726280689239502
aF1.0742524862289431
aa(lp18
F-5.2220168113708496
aF2.2890448570251469
aF1.0742524862289431
aa(lp19
F-5.2174019813537598
aF2.3044126033782959
aF1.074622750282288
aa(lp20
F-5.2123374938964844
aF2.320682048797607
aF1.0749930143356321
aa(lp21
F-5.2044506072998047
aF2.333515882492065
aF1.074622750282288
aa(lp22
F-5.193511962890625
aF2.348235130310059
aF1.073882102966309
aa(lp23
F-5.1873469352722168
aF2.361823558807373
aF1.073882102966309
aa(lp24
F-5.1789445877075204
aF2.3754808902740479
aF1.0735118389129641
aa(lp25
F-5.1794276237487793
aF2.3932313919067378
aF1.0749930143356321
aa(lp26
F-5.1696815490722656
aF2.409563541412354
aF1.074622750282288
aa(lp27
F-5.1597967147827148
aF2.421419620513916
aF1.073882102966309
aa(lp28
F-5.1565685272216797
aF2.4374988079071049
aF1.074622750282288
aa(lp29
F-5.1435627937316903
aF2.4511501789093022
aF1.0735118389129641
aa(lp30
F-5.1402416229248047
aF2.4672050476074219
aF1.0742524862289431
aa(lp31
F-5.1364374160766602
aF2.4841570854187012
aF1.0749930143356321
aa(lp32
F-5.1290440559387207
aF2.4993860721588139
aF1.0749930143356321
aa(lp33
F-5.1291022300720224
aF2.5171630382537842
aF1.0764743089675901
aa(lp34
F-5.1114811897277832
aF2.5262513160705571
aF1.0742524862289431
aa(lp35
F-5.1065940856933594
aF2.5449409484863281
aF1.0749930143356321
aa(lp36
F-5.1047368049621582
aF2.5618360042572021
aF1.0761039257049561
aa(lp37
F-5.0905466079711914
aF2.5725352764129639
aF1.074622750282288
aa(lp38
F-5.0894451141357422
aF2.5920829772949219
aF1.0761039257049561
aa(lp39
F-5.0817317962646484
aF2.6071722507476811
aF1.0761039257049561
aa(lp40
F-5.0779237747192383
aF2.6231570243835449
aF1.0768445730209351
aa(lp41
F-5.071861743927002
aF2.639119148254395
aF1.07721483707428
aa(lp42
F-5.0609903335571289
aF2.651448011398315
aF1.0764743089675901
aa(lp43
F-5.0627241134643564
aF2.66927170753479
aF1.078325748443604
aa(lp44
F-5.0577850341796884
aF2.6870076656341548
aF1.079066395759583
aa(lp45
F-5.0428586006164551
aF2.6982936859130859
aF1.0775852203369141
aa(lp46
F-5.0365605354309082
aF2.7141766548156738
aF1.077955484390259
aa(lp47
F-5.0393266677856454
aF2.7338540554046631
aF1.080177307128906
aa(lp48
F-5.0242938995361328
aF2.745024681091309
aF1.078696131706238
aa(lp49
F-5.0148868560791016
aF2.7580971717834468
aF1.078325748443604
aa(lp50
F-5.0152778625488281
aF2.7777256965637211
aF1.080177307128906
aa(lp51
F-5.0155963897705078
aF2.797380924224854
aF1.082028865814209
aa(lp52
F-4.9876880645751953
aF2.7989599704742432
aF1.0775852203369141
aa(lp53
F-4.9918317794799814
aF2.8196437358856201
aF1.080177307128906
aa(lp54
F-4.9795322418212891
aF2.8333680629730229
aF1.079436659812927
aa(lp55
F-4.976219654083252
aF2.851061344146729
aF1.080547571182251
aa(lp56
F-4.9750490188598633
aF2.8688738346099849
aF1.082028865814209
aa(lp57
F-4.9507160186767578
aF2.875604629516602
aF1.078696131706238
aa(lp58
F-4.9596343040466309
aF2.899337530136108
aF1.0823991298675539
aa(lp59
F-4.9503326416015634
aF2.9113154411315918
aF1.082028865814209
aa(lp60
F-4.941162109375
aF2.926852941513062
aF1.082028865814209
aa(lp61
F-4.9363455772399902
aF2.942652702331543
aF1.082769393920898
aa(lp62
F-4.9360189437866211
aF2.9623429775238042
aF1.0846209526062009
aa(lp63
F-4.9294099807739258
aF2.977131605148315
aF1.084991335868835
aa(lp64
F-4.9233908653259277
aF2.9946458339691162
aF1.0857318639755249
aa(lp65
F-4.9188871383666992
aF3.0095763206481929
aF1.0864725112915039
aa(lp66
F-4.9015688896179199
aF3.019004106521606
aF1.0846209526062009
aa(lp67
F-4.8942599296569824
aF3.0345697402954102
aF1.084991335868835
aa(lp68
F-4.8818998336791992
aF3.0469965934753418
aF1.084250688552856
aa(lp69
F-4.8828234672546387
aF3.0677416324615479
aF1.0864725112915039
aa(lp70
F-4.8675923347473153
aF3.0771641731262211
aF1.084991335868835
aa(lp71
F-4.8705887794494629
aF3.098129034042358
aF1.0875834226608281
aa(lp72
F-4.8696513175964364
aF3.1178655624389648
aF1.0894349813461299
aa(lp73
F-4.8565282821655273
aF3.1310186386108398
aF1.0886943340301509
aa(lp74
F-4.8461170196533203
aF3.1434988975524898
aF1.0883240699768071
aa(lp75
F-4.8537788391113281
aF3.1677613258361821
aF1.092027068138123
aa(lp76
F-4.8372330665588379
aF3.1786768436431889
aF1.0905458927154541
aa(lp77
F-4.8212523460388184
aF3.185070276260376
aF1.0886943340301509
aa(lp78
F-4.8292236328125
aF3.2121744155883789
aF1.092767715454102
aa(lp79
F-4.818601131439209
aF3.2245545387268071
aF1.0923973321914671
aa(lp80
F-4.8182268142700204
aF3.2462658882141109
aF1.094619154930115
aa(lp81
F-4.7977547645568848
aF3.2519888877868648
aF1.092027068138123
aa(lp82
F-4.8081402778625488
aF3.2786614894866939
aF1.0964707136154179
aa(lp83
F-4.783233642578125
aF3.2837390899658199
aF1.0931379795074461
aa(lp84
F-4.7913718223571777
aF3.3065803050994869
aF1.096840977668762
aa(lp85
F-4.7696614265441903
aF3.313766717910767
aF1.09424889087677
aa(lp86
F-4.7732768058776864
aF3.3360803127288818
aF1.0972113609313969
aa(lp87
F-4.7751965522766113
aF3.3573098182678218
aF1.0998034477233889
aa(lp88
F-4.7587966918945312
aF3.3669226169586182
aF1.09832227230072
aa(lp89
F-4.7519879341125488
aF3.3833072185516362
aF1.0990628004074099
aa(lp90
F-4.7259516716003418
aF3.3859448432922359
aF1.095359802246094
aa(lp91
F-4.7312321662902832
aF3.4122722148895259
aF1.0990628004074099
aa(lp92
F-4.7169122695922852
aF3.4220085144042969
aF1.0979518890380859
aa(lp93
F-4.7079372406005859
aF3.4343454837799068
aF1.0979518890380859
aa(lp94
F-4.7097983360290527
aF3.4584252834320068
aF1.100914359092712
aa(lp95
F-4.7102146148681641
aF3.4777481555938721
aF1.1031361818313601
aa(lp96
F-4.6882233619689941
aF3.4843218326568599
aF1.1005440950393679
aa(lp97
F-4.6863460540771484
aF3.503284215927124
aF1.1023955345153811
aa(lp98
F-4.6658940315246582
aF3.5108990669250488
aF1.100173711776733
aa(lp99
F-4.6811466217041016
aF3.542892694473267
aF1.1060986518859861
aa(lp100
F-4.6759262084960938
aF3.5595226287841801
aF1.1072095632553101
aa(lp101
F-4.679387092590332
aF3.5841364860534668
aF1.110542297363281
aa(lp102
F-4.6341729164123544
aF3.5687935352325439
aF1.1020252704620359
aa(lp103
F-4.6508994102478027
aF3.6050078868865971
aF1.108690738677979
aa(lp104
F-4.6532144546508789
aF3.6276488304138179
aF1.111653208732605
aa(lp105
F-4.629425048828125
aF3.6325433254241939
aF1.108690738677979
aa(lp106
F-4.6325106620788574
aF3.6572237014770508
aF1.1120234727859499
aa(lp107
F-4.5796141624450684
aF3.6794731616973881
aF1.106839179992676
aa(lp108
F-4.5824337005615234
aF3.704164981842041
aF1.110171914100647
aa(lp109
F-4.5729475021362314
aF3.7189850807189941
aF1.110542297363281
aa(lp110
F-4.5625443458557129
aF3.7317404747009282
aF1.110542297363281
aa(lp111
F-4.5566592216491699
aF3.7482128143310551
aF1.111653208732605
aa(lp112
F-4.549403190612793
aF3.766269445419312
aF1.1127641201019289
aa(lp113
F-4.5425491333007812
aF3.7806813716888432
aF1.1135046482086179
aa(lp114
F-4.5351696014404297
aF3.7987196445465088
aF1.1146155595779419
aa(lp115
F-4.5253815650939941
aF3.8134255409240718
aF1.1149859428405759
aa(lp116
F-4.5265488624572754
aF3.8333628177642818
aF1.1175780296325679
aa(lp117
F-4.5189714431762704
aF3.8513891696929932
aF1.1186889410018921
aa(lp118
F-4.5134921073913574
aF3.8698973655700679
aF1.120170116424561
aa(lp119
F-4.5011792182922363
aF3.8812029361724849
aF1.119799852371216
aa(lp120
F-4.5171685218811044
aF3.9197990894317631
aF1.1268357038497929
aa(lp121
F-4.5121464729309082
aF3.9584395885467529
aF1.1309089660644529
aa(lp122
F-4.5100021362304688
aF3.9817008972167969
aF1.1335011720657351
aa(lp123
F-4.4724102020263672
aF3.9707915782928471
aF1.1268357038497929
aa(lp124
F-4.4855284690856934
aF4.0063009262084961
aF1.133130788803101
aa(lp125
F-4.464087963104248
aF4.0096182823181152
aF1.130538702011108
aa(lp126
F-4.4732928276062012
aF4.0405125617980957
aF1.1357229948043821
aa(lp127
F-4.4518508911132812
aF4.0466136932373047
aF1.1335011720657351
aa(lp128
F-4.4521389007568359
aF4.0696382522583008
aF1.136463522911072
aa(lp129
F-4.4509038925170898
aF4.0942497253417969
aF1.139425992965698
aa(lp130
F-4.4481096267700204
aF4.1146707534790039
aF1.1416478157043459
aa(lp131
F-4.4366021156311044
aF4.1270761489868164
aF1.1416478157043459
aa(lp132
F-4.4257721900939941
aF4.1415643692016602
aF1.14201807975769
aa(lp133
F-4.4335250854492188
aF4.1706438064575204
aF1.1468321084976201
aa(lp134
F-4.4204006195068359
aF4.1845517158508301
aF1.1468321084976201
aa(lp135
F-4.4115447998046884
aF4.199589729309082
aF1.1475726366043091
aa(lp136
F-4.4153609275817871
aF4.229743480682373
aF1.152016282081604
aa(lp137
F-4.4007010459899902
aF4.2393298149108887
aF1.151275753974915
aa(lp138
F-4.3993949890136719
aF4.263310432434082
aF1.1542381048202519
aa(lp139
F-4.3685088157653809
aF4.255612850189209
aF1.1490539312362671
aa(lp140
F-4.3762640953063974
aF4.287050724029541
aF1.1542381048202519
aa(lp141
F-4.3487772941589364
aF4.286980152130127
aF1.150535106658936
aa(lp142
F-4.3444118499755859
aF4.3081679344177246
aF1.152756929397583
aa(lp143
F-4.3476729393005371
aF4.3355488777160653
aF1.156830310821533
aa(lp144
F-4.3535909652709961
aF4.3657650947570801
aF1.1616442203521731
aa(lp145
F-4.3274030685424814
aF4.366856575012207
aF1.1583114862442021
aa(lp146
F-4.3421716690063477
aF4.4047641754150391
aF1.1653473377227781
aa(lp147
F-4.3076815605163574
aF4.3973240852355957
aF1.1597927808761599
aa(lp148
F-4.2953848838806152
aF4.4093360900878906
aF1.1597927808761599
aa(lp149
F-4.2973232269287109
aF4.4375920295715332
aF1.1638660430908201
aa(lp150
F-4.2985477447509766
aF4.4637322425842294
aF1.167569160461426
aa(lp151
F-4.2703342437744141
aF4.4608492851257324
aF1.163495779037476
aa(lp152
F-4.2836084365844727
aF4.4998044967651367
aF1.1705315113067629
aa(lp153
F-4.2526764869689941
aF4.4939360618591309
aF1.165717601776123
aa(lp154
F-4.2581772804260254
aF4.526576042175293
aF1.170901894569397
aa(lp155
F-4.2635221481323242
aF4.5592880249023438
aF1.1760860681533809
aa(lp156
F-4.2534503936767578
aF4.5740547180175781
aF1.1768267154693599
aa(lp157
F-4.2451963424682617
aF4.5924277305603027
aF1.178307890892029
aa(lp158
F-4.221714973449707
aF4.592689037322998
aF1.1753455400466919
aa(lp159
F-4.2292823791503906
aF4.6284093856811523
aF1.1812703609466551
aa(lp160
F-4.1925492286682129
aF4.6140189170837402
aF1.1746048927307129
aa(lp161
F-4.1788411140441903
aF4.6264376640319824
aF1.1746048927307129
aaa(lp162
(lp163
F-4.6496801376342773
aF3.7117908000946049
aF0.83615201711654663
aa(lp164
F-4.6266837120056152
aF3.7372646331787109
aF0.83587366342544556
aa(lp165
F-4.6232595443725586
aF3.7572212219238281
aF0.83726537227630615
aa(lp166
F-4.6112160682678223
aF3.7688639163970952
aF0.83698701858520508
aa(lp167
F-4.6098532676696777
aF3.7892718315124512
aF0.83865708112716675
aa(lp168
F-4.6040306091308594
aF3.808785200119019
aF0.83977049589157104
aa(lp169
F-4.6077475547790527
aF3.8322234153747559
aF0.84227561950683594
aa(lp170
F-4.586573600769043
aF3.8390529155731201
aF0.84060555696487427
aa(lp171
F-4.5781922340393066
aF3.8551959991455078
aF0.84116220474243164
aa(lp172
F-4.56573486328125
aF3.8638122081756592
aF0.84060555696487427
aa(lp173
F-4.555081844329834
aF3.8794209957122798
aF0.84088385105133057
aaa(lp174
(lp175
F-5.0443086624145508
aF2.8284192085266109
aF0.81277090311050415
aa(lp176
F-5.0260415077209473
aF2.8366537094116211
aF0.81110084056854248
aa(lp177
F-5.0205488204956064
aF2.8543872833251949
aF0.81165754795074463
aa(lp178
F-5.0034632682800293
aF2.8643510341644292
aF0.81026577949523926
aa(lp179
F-5.01947021484375
aF2.8921549320220952
aF0.81416261196136475
aa(lp180
F-4.9949426651000977
aF2.898962259292603
aF0.81165754795074463
aa(lp181
F-4.9851179122924814
aF2.911900520324707
aF0.81137919425964355
aa(lp182
F-4.9655246734619141
aF2.9179177284240718
aF0.80943077802658081
aa(lp183
F-4.9580373764038086
aF2.934511661529541
aF0.80970907211303711
aa(lp184
F-4.9532265663146973
aF2.950372695922852
aF0.81026577949523926
aa(lp185
F-4.9529438018798828
aF2.970149040222168
aF0.81165754795074463
aa(lp186
F-4.9497170448303223
aF2.9870386123657231
aF0.81249254941940308
aa(lp187
F-4.9301538467407227
aF2.9964020252227779
aF0.81082248687744141
aa(lp188
F-4.929051399230957
aF3.013431072235107
aF0.81193584203720093
aa(lp189
F-4.9184021949768066
aF3.027004718780518
aF0.81165754795074463
aaa(lp190
(lp191
F-4.635650634765625
aF3.700591087341309
aF0.69365197420120239
aa(lp192
F-4.6188955307006836
aF3.7309737205505371
aF0.69434887170791626
aa(lp193
F-4.6170549392700204
aF3.7521786689758301
aF0.69574266672134399
aa(lp194
F-4.6219396591186523
aF3.7776284217834468
aF0.69806569814682007
aa(lp195
F-4.6083035469055176
aF3.787997961044312
aF0.6976010799407959
aa(lp196
F-4.6086249351501474
aF3.8125863075256352
aF0.6994594931602478
aa(lp197
F-4.5925188064575204
aF3.8195576667785649
aF0.69853031635284424
aa(lp198
F-4.5942063331604004
aF3.8454418182373051
aF0.70062100887298584
aa(lp199
F-4.5812568664550781
aF3.8577766418457031
aF0.70038872957229614
aa(lp200
F-4.5703005790710449
aF3.8676760196685791
aF0.70015639066696167
aa(lp201
F-4.5445165634155273
aF3.8704228401184082
aF0.69806569814682007
aaa(lp202
(lp203
F-5.0507411956787109
aF2.8320260047912602
aF0.67715859413146973
aa(lp204
F-5.0220532417297363
aF2.8344027996063228
aF0.67437094449996948
aa(lp205
F-5.0148510932922363
aF2.8511476516723628
aF0.67460328340530396
aa(lp206
F-5.0029215812683114
aF2.8640406131744389
aF0.67413866519927979
aa(lp207
F-4.9983463287353516
aF2.8799839019775391
aF0.67460328340530396
aa(lp208
F-4.9978642463684082
aF2.9006578922271729
aF0.67576479911804199
aa(lp209
F-4.9880294799804688
aF2.913601398468018
aF0.67553246021270752
aa(lp210
F-4.9598326683044434
aF2.914572954177856
aF0.67274487018585205
aa(lp211
F-4.9591994285583496
aF2.9351992607116699
aF0.67390638589859009
aa(lp212
F-4.9543967247009277
aF2.951069831848145
aF0.67437094449996948
aa(lp213
F-4.9575443267822266
aF2.9729080200195308
aF0.67599707841873169
aa(lp214
F-4.9373178482055664
aF2.9795558452606201
aF0.67437094449996948
aa(lp215
F-4.9245376586914062
aF2.9929888248443599
aF0.67390638589859009
aa(lp216
F-4.9251594543457031
aF3.0110516548156738
aF0.67506784200668335
aa(lp217
F-4.9246625900268564
aF3.0308575630187988
aF0.67622935771942139
aaa(lp218
(lp219
F-4.6247196197509766
aF3.7343442440032959
aF0.55456483364105225
aa(lp220
F-4.6167101860046387
aF3.750560998916626
aF0.55493640899658203
aa(lp221
F-4.6062188148498544
aF3.7634387016296391
aF0.55493640899658203
aa(lp222
F-4.6018457412719727
aF3.781343936920166
aF0.5556795597076416
aa(lp223
F-4.6068239212036133
aF3.8097419738769531
aF0.55772316455841064
aa(lp224
F-4.5907092094421387
aF3.816697359085083
aF0.55698001384735107
aa(lp225
F-4.5771689414978027
aF3.8298227787017818
aF0.55679422616958618
aa(lp226
F-4.5718793869018564
aF3.8485162258148189
aF0.55753737688064575
aa(lp227
F-4.5655026435852051
aF3.8622481822967529
aF0.55790895223617554
aa(lp228
F-4.5533461570739746
aF3.8765721321105961
aF0.55790895223617554
aaa(lp229
(lp230
F-5.015831470489502
aF2.8297369480133061
aF0.53728693723678589
aa(lp231
F-5.0069169998168954
aF2.8454806804656978
aF0.53728693723678589
aa(lp232
F-5.0019092559814453
aF2.8623020648956299
aF0.53765851259231567
aa(lp233
F-4.9990735054016113
aF2.8792405128478999
aF0.53821587562561035
aa(lp234
F-4.9848356246948242
aF2.8919334411621089
aF0.53765851259231567
aa(lp235
F-4.983619213104248
aF2.9098589420318599
aF0.53840166330337524
aa(lp236
F-4.9656820297241211
aF2.916844367980957
aF0.53728693723678589
aa(lp237
F-4.9616355895996094
aF2.9354720115661621
aF0.53784430027008057
aa(lp238
F-4.9482855796813974
aF2.946259737014771
aF0.53728693723678589
aa(lp239
F-4.9548940658569336
aF2.97014307975769
aF0.53895902633666992
aa(lp240
F-4.9397602081298828
aF2.9798538684844971
aF0.53821587562561035
aa(lp241
F-4.9371819496154794
aF2.9994935989379878
aF0.53895902633666992
aa(lp242
F-4.9327106475830078
aF3.0144855976104741
aF0.53933054208755493
aa(lp243
F-4.9169602394104004
aF3.0249342918396001
aF0.53858745098114014
aaa(lp244
(lp245
F-4.6217212677001953
aF3.7305910587310791
aF0.41533005237579351
aa(lp246
F-4.6152782440185547
aF3.7480607032775879
aF0.41574859619140631
aa(lp247
F-4.6063389778137207
aF3.76219630241394
aF0.41588810086250311
aa(lp248
F-4.5988984107971191
aF3.7775778770446782
aF0.41616711020469671
aa(lp249
F-4.6039228439331064
aF3.8059902191162109
aF0.41770175099372858
aa(lp250
F-4.5939431190490723
aF3.8180301189422612
aF0.41770175099372858
aa(lp251
F-4.5712132453918457
aF3.8234834671020508
aF0.41672518849372858
aa(lp252
F-4.5690078735351562
aF3.8447370529174809
aF0.41756224632263178
aa(lp253
F-4.5565533638000488
aF3.8533132076263432
aF0.41728323698043818
aa(lp254
F-4.5535411834716797
aF3.875367403030396
aF0.41812029480934138
aaa(lp255
(lp256
F-5.0550427436828613
aF2.8147563934326172
aF0.40458753705024719
aa(lp257
F-5.0250287055969238
aF2.8153035640716548
aF0.40277388691902161
aa(lp258
F-5.0099687576293954
aF2.8460583686828609
aF0.40291339159011841
aa(lp259
F-4.9876480102539062
aF2.8529858589172359
aF0.40179729461669922
aa(lp260
F-4.9831194877624512
aF2.8688936233520508
aF0.40207630395889282
aa(lp261
F-4.9861636161804199
aF2.89154052734375
aF0.40305289626121521
aa(lp262
F-4.9763460159301758
aF2.9044475555419922
aF0.40291339159011841
aa(lp263
F-4.9492316246032724
aF2.9269673824310298
aF0.40207630395889282
aa(lp264
F-4.9444675445556641
aF2.9428176879882808
aF0.40235534310340881
aa(lp265
F-4.9545397758483887
aF2.9687554836273189
aF0.4038899838924408
aa(lp266
F-4.944521427154541
aF2.9815492630004878
aF0.40375047922134399
aa(lp267
F-4.9231934547424316
aF2.989818811416626
aF0.40277388691902161
aa(lp268
F-4.9255647659301758
aF3.0089378356933589
aF0.4036109447479248
aa(lp269
F-4.9200143814086914
aF3.0256292819976811
aF0.4038899838924408
aaa(lp270
(lp271
F-4.6161909103393564
aF3.7247965335845952
aF0.27661240100860601
aa(lp272
F-4.611323356628418
aF3.7435133457183838
aF0.27698507905006409
aa(lp273
F-4.6132316589355469
aF3.7664840221405029
aF0.27773040533065801
aa(lp274
F-4.6042399406433114
aF3.7806196212768559
aF0.27782356739044189
aa(lp275
F-4.6046600341796884
aF3.8052468299865718
aF0.27856889367103582
aa(lp276
F-4.5823888778686523
aF3.8070752620697021
aF0.27782356739044189
aa(lp277
F-4.5811347961425781
aF3.83042311668396
aF0.27847573161125178
aa(lp278
F-4.5651626586914062
aF3.840140581130981
aF0.27819624543190002
aa(lp279
F-4.5588173866271973
aF3.8538634777069092
aF0.2783825695514679
aa(lp280
F-4.5497307777404794
aF3.8707554340362549
aF0.27856889367103582
aaa(lp281
(lp282
F-5.001612663269043
aF2.8401567935943599
aF0.26822736859321589
aa(lp283
F-4.9983663558959961
aF2.8579592704772949
aF0.26850688457489008
aa(lp284
F-4.9903659820556641
aF2.8719062805175781
aF0.26850688457489008
aa(lp285
F-4.9934182167053223
aF2.8945832252502441
aF0.26915904879570007
aa(lp286
F-4.9715104103088379
aF2.9004621505737309
aF0.2684137225151062
aa(lp287
F-4.9449472427368164
aF2.90234375
aF0.26738888025283808
aa(lp288
F-4.944404125213623
aF2.9229476451873779
aF0.2678547203540802
aa(lp289
F-4.9448070526123047
aF2.941851139068604
aF0.26832056045532232
aa(lp290
F-4.9480538368225098
aF2.9636955261230469
aF0.2689727246761322
aa(lp291
F-4.9380474090576172
aF2.9764702320098881
aF0.26887956261634832
aa(lp292
F-4.9320878982543954
aF2.9940421581268311
aF0.26906588673591608
aa(lp293
F-4.9259376525878906
aF3.0079853534698491
aF0.26915904879570007
aa(lp294
F-4.9186930656433114
aF3.0236339569091801
aF0.26925221085548401
aaa(lp295
(lp296
F-4.646693229675293
aF3.704098224639893
aF0.13796496391296389
aa(lp297
F-4.633063793182373
aF3.7370762825012211
aF0.13819706439971921
aa(lp298
F-4.6250600814819336
aF3.7533261775970459
aF0.1382899135351181
aa(lp299
F-4.6161098480224609
aF3.767491340637207
aF0.13833633065223691
aa(lp300
F-4.6132988929748544
aF3.786710262298584
aF0.1385684460401535
aa(lp301
F-4.6090869903564453
aF3.8075516223907471
aF0.1388005465269089
aa(lp302
F-4.589874267578125
aF3.8119404315948491
aF0.1385220140218735
aa(lp303
F-4.5886149406433114
aF3.8353171348571782
aF0.1388469785451889
aa(lp304
F-4.5879273414611816
aF3.8579227924346919
aF0.13917192816734311
aa(lp305
F-4.5769600868225098
aF3.8678309917449951
aF0.13912549614906311
aa(lp306
F-4.5693554878234863
aF3.886076927185059
aF0.13926476240158081
aaa(lp307
(lp308
F-4.8545017242431641
aF3.2830390930175781
aF0.13606168329715729
aa(lp309
F-4.8486208915710449
aF3.2988319396972661
aF0.13615451753139499
aa(lp310
F-4.8415327072143564
aF3.3163080215454102
aF0.1362473666667938
aa(lp311
F-4.8350615501403809
aF3.3292620182037349
aF0.13629378378391269
aa(lp312
F-4.8262219429016113
aF3.3455746173858638
aF0.13634020090103149
aa(lp313
F-4.8250608444213867
aF3.3647572994232182
aF0.13657231628894809
aa(lp314
F-4.820556640625
aF3.3816630840301509
aF0.13671158254146579
aa(lp315
F-4.808868408203125
aF3.394797801971436
aF0.1366651505231857
aa(lp316
F-4.8036646842956543
aF3.412524938583374
aF0.1368044167757034
aa(lp317
F-4.79351806640625
aF3.4267628192901611
aF0.1368044167757034
aa(lp318
F-4.7843518257141113
aF3.4429731369018559
aF0.13685084879398349
aa(lp319
F-4.7795777320861816
aF3.4598371982574458
aF0.13699011504650119
aa(lp320
F-4.7785863876342773
aF3.4782216548919682
aF0.1372222155332565
aa(lp321
F-4.7660226821899414
aF3.4920351505279541
aF0.1371757984161377
aa(lp322
F-4.7649130821228027
aF3.5104303359985352
aF0.13740789890289309
aa(lp323
F-4.744225025177002
aF3.518236398696899
aF0.13712936639785769
aa(lp324
F-4.7407927513122559
aF3.5362529754638672
aF0.1373150646686554
aaa(lp325
(lp326
F-5.011629581451416
aF2.864382266998291
aF0.13401912152767179
aa(lp327
F-5.0070772171020508
aF2.8803601264953609
aF0.13411197066307071
aa(lp328
F-4.9997339248657227
aF2.8970785140991211
aF0.13415838778018949
aa(lp329
F-4.9864425659179688
aF2.9080073833465581
aF0.13401912152767179
aa(lp330
F-4.9684648513793954
aF2.9149811267852779
aF0.13374060392379761
aa(lp331
F-4.9610042572021484
aF2.931592702865601
aF0.13378702104091639
aa(lp332
F-4.9631094932556152
aF2.9515671730041499
aF0.13406555354595179
aa(lp333
F-4.9543299674987793
aF2.9662799835205078
aF0.13406555354595179
aa(lp334
F-4.9631533622741699
aF2.990422248840332
aF0.13452976942062381
aa(lp335
F-4.9537343978881836
aF3.0059998035430908
aF0.13452976942062381
aa(lp336
F-4.9441409111022949
aF3.0179164409637451
aF0.13448333740234381
aa(lp337
F-4.9300541877746582
aF3.0294322967529301
aF0.13434407114982611
aaa(lp338
(lp339
F-5.0117435455322266
aF2.863286972045898
aF0
aa(lp340
F-5.0054616928100586
aF2.8782682418823242
aF0
aa(lp341
F-4.9842801094055176
aF2.8869621753692631
aF0
aa(lp342
F-4.9692873954772949
aF2.8968405723571782
aF0
aa(lp343
F-4.9668622016906738
aF2.912875652313232
aF0
aa(lp344
F-4.9576864242553711
aF2.9284651279449458
aF0
aa(lp345
F-4.9529275894165039
aF2.9443421363830571
aF0
aa(lp346
F-4.9630475044250488
aF2.9703226089477539
aF0
aa(lp347
F-4.9547333717346191
aF2.9841704368591309
aF0
aa(lp348
F-4.9436240196228027
aF2.9986841678619389
aF0
aa(lp349
F-4.9425854682922363
aF3.0157830715179439
aF0
aa(lp350
F-4.9267988204956064
aF3.0262477397918701
aF0
aaa(lp351
(lp352
F-4.8398137092590332
aF3.2718749046325679
aF0
aa(lp353
F-4.8389272689819336
aF3.2910013198852539
aF0
aa(lp354
F-4.8285641670227051
aF3.3061869144439702
aF0
aa(lp355
F-4.825413703918457
aF3.321377277374268
aF0
aa(lp356
F-4.8231749534606934
aF3.342216014862061
aF0
aa(lp357
F-4.8154635429382324
aF3.3568155765533452
aF0
aa(lp358
F-4.8175334930419922
aF3.378287792205811
aF0
aa(lp359
F-4.8042201995849609
aF3.3902604579925542
aF0
aa(lp360
F-4.7974014282226562
aF3.4068160057067871
aF0
aa(lp361
F-4.7905263900756836
aF3.4233608245849609
aF0
aa(lp362
F-4.7829952239990234
aF3.4407296180725102
aF0
aa(lp363
F-4.7749886512756348
aF3.4552452564239502
aF0
aa(lp364
F-4.7643094062805176
aF3.4665577411651611
aF0
aa(lp365
F-4.7630763053894043
aF3.4885985851287842
aF0
aa(lp366
F-4.7587580680847168
aF3.5046143531799321
aF0
aa(lp367
F-4.7380843162536621
aF3.51240086555481
aF0
aaa(lp368
(lp369
F-4.6814389228820801
aF3.730459451675415
aF0
aa(lp370
F-4.6098766326904297
aF3.739670038223267
aF0
aa(lp371
F-4.6102633476257324
aF3.7613790035247798
aF0
aa(lp372
F-4.6059260368347168
aF3.779313325881958
aF0
aa(lp373
F-4.6001987457275391
aF3.798858642578125
aF0
aa(lp374
F-4.5902376174926758
aF3.8108887672424321
aF0
aa(lp375
F-4.5843820571899414
aF3.8304200172424321
aF0
aa(lp376
F-4.5775895118713379
aF3.8478660583496089
aF0
aa(lp377
F-4.5697016716003418
aF3.86033034324646
aF0
aa(lp378
F-4.5545039176940918
aF3.8720765113830571
aF0
aaa(lp379
(lp380
F-5.0155906677246094
aF2.8249869346618648
aF-0.13364775478839869
aa(lp381
F-5.0206031799316406
aF2.848623514175415
aF-0.13401912152767179
aa(lp382
F-5.0051846504211426
aF2.8595399856567378
aF-0.13383343815803531
aa(lp383
F-4.9971799850463867
aF2.8735060691833501
aF-0.13383343815803531
aa(lp384
F-4.9950485229492188
aF2.8931994438171391
aF-0.13401912152767179
aa(lp385
F-4.976585865020752
aF2.9010951519012451
aF-0.13374060392379761
aa(lp386
F-4.9672489166259766
aF2.913102388381958
aF-0.13369417190551761
aa(lp387
F-4.9563508033752441
aF2.9276762008666992
aF-0.13364775478839869
aa(lp388
F-4.9601869583129883
aF2.9486572742462158
aF-0.13397270441055301
aa(lp389
F-4.9634261131286621
aF2.9705491065978999
aF-0.13429765403270719
aa(lp390
F-4.9568243026733398
aF2.9854297637939449
aF-0.13434407114982611
aa(lp391
F-4.9491300582885742
aF3.0020241737365718
aF-0.13439050316810611
aa(lp392
F-4.9429607391357422
aF3.0160121917724609
aF-0.13443692028522489
aa(lp393
F-4.933990478515625
aF3.0306649208068852
aF-0.13443692028522489
aaa(lp394
(lp395
F-4.7232232093811044
aF3.7395555973052979
aF-0.1398682445287705
aa(lp396
F-4.6676678657531738
aF3.719485759735107
aF-0.1385684460401535
aa(lp397
F-4.6195039749145508
aF3.747480154037476
aF-0.1381042301654816
aa(lp398
F-4.619865894317627
aF3.7692136764526372
aF-0.1384291797876358
aa(lp399
F-4.6139593124389648
aF3.7859048843383789
aF-0.1385684460401535
aa(lp400
F-4.6005010604858398
aF3.7991082668304439
aF-0.1385220140218735
aa(lp401
F-4.5920777320861816
aF3.8124165534973149
aF-0.1385684460401535
aa(lp402
F-4.5862154960632324
aF3.8319520950317378
aF-0.13875412940979001
aa(lp403
F-4.5778870582580566
aF3.8481159210205078
aF-0.1388469785451889
aa(lp404
F-4.574580192565918
aF3.86445164680481
aF-0.13903266191482541
aa(lp405
F-4.5654640197753906
aF3.8813941478729248
aF-0.13912549614906311
aa(lp406
F-4.5265765190124512
aF3.8715300559997559
aF-0.1382899135351181
aa(lp407
F-4.5248427391052246
aF3.8919787406921391
aF-0.1385684460401535
aaa(lp408
(lp409
F-4.988767147064209
aF2.7732918262481689
aF-0.2661777138710022
aa(lp410
F-5.0048365592956543
aF2.838523149490356
aF-0.26832056045532232
aa(lp411
F-4.9981274604797363
aF2.8543510437011719
aF-0.2684137225151062
aa(lp412
F-4.9849410057067871
aF2.865310430526733
aF-0.26813420653343201
aa(lp413
F-4.9811015129089364
aF2.8839600086212158
aF-0.2684137225151062
aa(lp414
F-4.9782071113586426
aF2.9008762836456299
aF-0.26869320869445801
aa(lp415
F-4.9533605575561523
aF2.903795480728149
aF-0.26776155829429632
aa(lp416
F-4.9424929618835449
aF2.918326854705811
aF-0.26766836643218989
aa(lp417
F-4.9429116249084473
aF2.9372203350067139
aF-0.26813420653343201
aa(lp418
F-4.9496049880981454
aF2.9611043930053711
aF-0.2689727246761322
aa(lp419
F-4.943028450012207
aF2.9759452342987061
aF-0.26906588673591608
aa(lp420
F-4.93365478515625
aF2.9914593696594238
aF-0.26906588673591608
aa(lp421
F-4.9292173385620117
aF3.0064461231231689
aF-0.26925221085548401
aa(lp422
F-4.9134654998779297
aF3.0168766975402832
aF-0.26887956261634832
aaa(lp423
(lp424
F-4.5901427268981934
aF3.699811697006226
aF-0.27493539452552801
aa(lp425
F-4.6059141159057617
aF3.756491899490356
aF-0.27717140316963201
aa(lp426
F-4.6000399589538574
aF3.7731404304504399
aF-0.27745088934898382
aa(lp427
F-4.5797696113586426
aF3.8008477687835689
aF-0.27754408121109009
aa(lp428
F-4.5693397521972656
aF3.8164975643157959
aF-0.27763724327087402
aa(lp429
F-4.5641136169433594
aF3.835179328918457
aF-0.27800989151000982
aa(lp430
F-4.5669403076171884
aF3.856631755828857
aF-0.27875524759292603
aa(lp431
F-4.5563240051269531
aF3.8722541332244869
aF-0.27884840965271002
aa(lp432
F-4.4901494979858398
aF3.8390176296234131
aF-0.27549439668655401
aa(lp433
F-4.5036487579345703
aF3.8723819255828862
aF-0.27698507905006409
aaa(lp434
(lp435
F-5.0592408180236816
aF2.8113129138946529
aF-0.40472707152366638
aa(lp436
F-5.0003013610839844
aF2.834797620773315
aF-0.40193679928779602
aa(lp437
F-5.0022644996643066
aF2.8555560111999512
aF-0.40277388691902161
aa(lp438
F-4.9890809059143066
aF2.8665318489074711
aF-0.40235534310340881
aa(lp439
F-4.9869580268859863
aF2.8861889839172359
aF-0.40291339159011841
aa(lp440
F-4.9719829559326172
aF2.8960871696472168
aF-0.40235534310340881
aa(lp441
F-4.9540557861328134
aF2.9030416011810298
aF-0.40151825547218323
aa(lp442
F-4.946629524230957
aF2.919605016708374
aF-0.40165778994560242
aa(lp443
F-4.9556102752685547
aF2.9435961246490479
aF-0.40305289626121521
aa(lp444
F-4.9502792358398438
aF2.9603347778320308
aF-0.4033319354057312
aa(lp445
F-4.9522500038146973
aF2.980319499969482
aF-0.40416902303695679
aa(lp446
F-4.9428625106811523
aF2.995862722396851
aF-0.40416902303695679
aa(lp447
F-4.9332990646362314
aF3.0077540874481201
aF-0.4040294885635376
aa(lp448
F-4.926053524017334
aF3.023422002792358
aF-0.40416902303695679
aaa(lp449
(lp450
F-4.6666512489318848
aF3.7160134315490718
aF-0.41714370250701899
aa(lp451
F-4.5986371040344238
aF3.6828854084014888
aF-0.4119817316532135
aa(lp452
F-4.6216468811035156
aF3.746544361114502
aF-0.41602760553359991
aa(lp453
F-4.6111669540405273
aF3.759435892105103
aF-0.41602760553359991
aa(lp454
F-4.6037359237670898
aF3.7748279571533199
aF-0.41630664467811579
aa(lp455
F-4.6041650772094727
aF3.799431324005127
aF-0.41742274165153498
aa(lp456
F-4.5849895477294922
aF3.8038287162780762
aF-0.4165856540203095
aa(lp457
F-4.5791425704956064
aF3.823328971862793
aF-0.41714370250701899
aa(lp458
F-4.5693058967590332
aF3.8381819725036621
aF-0.41728323698043818
aa(lp459
F-4.5736351013183594
aF3.8609180450439449
aF-0.41853883862495422
aa(lp460
F-4.5508394241333008
aF3.8662252426147461
aF-0.41756224632263178
aa(lp461
F-4.4891576766967773
aF3.8585591316223149
aF-0.41393491625785828
aaa(lp462
(lp463
F-5.0240435600280762
aF2.790607213973999
aF-0.53617221117019653
aa(lp464
F-5.0173196792602539
aF2.8432886600494389
aF-0.53803008794784546
aa(lp465
F-5.0071320533752441
aF2.8571758270263672
aF-0.53784430027008057
aa(lp466
F-5.0077676773071289
aF2.8761060237884521
aF-0.53877323865890503
aa(lp467
F-4.9935364723205566
aF2.888832807540894
aF-0.53821587562561035
aa(lp468
F-4.9854497909545898
aF2.9027659893035889
aF-0.53821587562561035
aa(lp469
F-4.9692420959472656
aF2.9107754230499272
aF-0.53728693723678589
aa(lp470
F-4.9669332504272461
aF2.930419921875
aF-0.53803008794784546
aa(lp471
F-4.9621553421020508
aF2.9463121891021729
aF-0.53840166330337524
aa(lp472
F-4.9636468887329102
aF2.96715259552002
aF-0.53951632976531982
aa(lp473
F-4.9706993103027344
aF2.9902408123016362
aF-0.54118841886520386
aa(lp474
F-4.9629836082458496
aF3.0068738460540771
aF-0.54137420654296875
aa(lp475
F-4.9567952156066903
aF3.020892858505249
aF-0.54155999422073364
aa(lp476
F-4.9562969207763672
aF3.0407934188842769
aF-0.54248887300491333
aaa(lp477
(lp478
F-4.7263221740722656
aF3.7379851341247559
aF-0.56218200922012329
aa(lp479
F-4.6522350311279297
aF3.70320725440979
aF-0.55475062131881714
aa(lp480
F-4.6278848648071289
aF3.7049834728240971
aF-0.55307859182357788
aa(lp481
F-4.6290245056152344
aF3.7511863708496089
aF-0.55586534738540649
aa(lp482
F-4.6262493133544922
aF3.7703888416290279
aF-0.55679422616958618
aa(lp483
F-4.6172428131103516
aF3.7845554351806641
aF-0.55698001384735107
aa(lp484
F-4.6145472526550293
aF3.806645393371582
aF-0.55809473991394043
aa(lp485
F-4.5999670028686523
aF3.8148994445800781
aF-0.55753737688064575
aa(lp486
F-4.5864310264587402
aF3.828055858612061
aF-0.55735158920288086
aa(lp487
F-4.5826778411865234
aF3.8480498790740971
aF-0.55828052759170532
aa(lp488
F-4.5793490409851074
aF3.8643732070922852
aF-0.55902367830276489
aa(lp489
F-4.5808467864990234
aF3.8903417587280269
aF-0.56069570779800415
aaa(lp490
(lp491
F-5.0677695274353027
aF2.8137373924255371
aF-0.67785549163818359
aa(lp492
F-5.0230364799499512
aF2.8245632648468022
aF-0.67390638589859009
aa(lp493
F-5.0245084762573242
aF2.8462042808532719
aF-0.67530018091201782
aa(lp494
F-5.0160417556762704
aF2.8610997200012211
aF-0.67530018091201782
aa(lp495
F-5.0080323219299316
aF2.8750958442687988
aF-0.67530018091201782
aa(lp496
F-4.9989752769470224
aF2.8908150196075439
aF-0.67530018091201782
aa(lp497
F-4.9822988510131836
aF2.899767160415649
aF-0.67413866519927979
aa(lp498
F-4.9678335189819336
aF2.9087860584259029
aF-0.67320942878723145
aa(lp499
F-4.9620928764343262
aF2.9263968467712398
aF-0.67367404699325562
aa(lp500
F-4.9641509056091309
aF2.946325302124023
aF-0.67506784200668335
aa(lp501
F-4.9690289497375488
aF2.969192743301392
aF-0.67692625522613525
aa(lp502
F-4.9505038261413574
aF2.9769151210784912
aF-0.67553246021270752
aa(lp503
F-4.9547204971313477
aF3.0006852149963379
aF-0.67739087343215942
aa(lp504
F-4.93157958984375
aF3.0043449401855469
aF-0.67530018091201782
aa(lp505
F-4.9260306358337402
aF3.0210411548614502
aF-0.67576479911804199
aaa(lp506
(lp507
F-4.7200436592102051
aF3.7316806316375728
aF-0.70364093780517578
aa(lp508
F-4.6725459098815918
aF3.718042373657227
aF-0.69829803705215454
aa(lp509
F-4.5970048904418954
aF3.6789453029632568
aF-0.68854135274887085
aa(lp510
F-4.6309394836425781
aF3.7286970615386958
aF-0.6952781081199646
aa(lp511
F-4.6213994026184082
aF3.7436714172363281
aF-0.6955103874206543
aa(lp512
F-4.6124672889709473
aF3.7578167915344238
aF-0.69574266672134399
aa(lp513
F-4.6096382141113281
aF3.7769775390625
aF-0.69690418243408203
aa(lp514
F-4.6100106239318848
aF3.8015508651733398
aF-0.69876259565353394
aa(lp515
F-4.5954546928405762
aF3.8098034858703609
aF-0.69806569814682007
aa(lp516
F-4.5926146507263184
aF3.831857442855835
aF-0.6994594931602478
aa(lp517
F-4.5827465057373047
aF3.846744298934937
aF-0.69969183206558228
aa(lp518
F-4.5778884887695312
aF3.861773014068604
aF-0.70038872957229614
aa(lp519
F-4.5642194747924814
aF3.8748502731323242
aF-0.70015639066696167
aa(lp520
F-4.5088977813720703
aF3.8509624004364009
aF-0.6934196949005127
aa(lp521
F-4.4770293235778809
aF3.8454182147979741
aF-0.69016748666763306
aaa(lp522
(lp523
F-5.0133090019226074
aF2.7823550701141362
aF-0.80581223964691162
aa(lp524
F-4.9835281372070312
aF2.7829172611236568
aF-0.80219376087188721
aa(lp525
F-5.0137200355529794
aF2.8181726932525639
aF-0.80831736326217651
aa(lp526
F-5.0134587287902832
aF2.8387892246246338
aF-0.80970907211303711
aa(lp527
F-5.0118961334228516
aF2.8575758934021001
aF-0.81082248687744141
aa(lp528
F-4.9987435340881348
aF2.8686032295227051
aF-0.80998742580413818
aa(lp529
F-4.993135929107666
aF2.8862755298614502
aF-0.81054413318634033
aa(lp530
F-4.9713616371154794
aF2.892240047454834
aF-0.80831736326217651
aa(lp531
F-4.9603538513183594
aF2.903244256973267
aF-0.80776065587997437
aa(lp532
F-4.9546208381652832
aF2.9208247661590581
aF-0.80831736326217651
aa(lp533
F-4.9685883522033691
aF2.9477865695953369
aF-0.81193584203720093
aa(lp534
F-4.9598202705383301
aF2.9625155925750728
aF-0.81193584203720093
aa(lp535
F-4.9413433074951172
aF2.970232486724854
aF-0.81026577949523926
aa(lp536
F-4.9201278686523438
aF2.978561639785767
aF-0.80831736326217651
aa(lp537
F-4.9309201240539551
aF3.0027635097503662
aF-0.81137919425964355
aa(lp538
F-4.893284797668457
aF2.9997835159301758
aF-0.80664730072021484
aaa(lp539
(lp540
F-4.7268099784851074
aF3.7356894016265869
aF-0.84672915935516357
aa(lp541
F-4.656151294708252
aF3.7036697864532471
aF-0.83615201711654663
aa(lp542
F-4.5932083129882812
aF3.6745917797088619
aF-0.82668823003768921
aa(lp543
F-4.6193137168884277
aF3.7180075645446782
aF-0.83336853981018066
aa(lp544
F-4.6251926422119141
aF3.745407342910767
aF-0.83643031120300293
aa(lp545
F-4.6177868843078613
aF3.7608098983764648
aF-0.83698701858520508
aa(lp546
F-4.607266902923584
aF3.7736907005310059
aF-0.83698701858520508
aa(lp547
F-4.606086254119873
aF3.7969646453857422
aF-0.83893543481826782
aa(lp548
F-4.591555118560791
aF3.8052189350128169
aF-0.83810043334960938
aa(lp549
F-4.5871829986572266
aF3.8259677886962891
aF-0.83949214220046997
aa(lp550
F-4.5803623199462891
aF3.843380451202393
aF-0.84032720327377319
aa(lp551
F-4.5649013519287109
aF3.8494539260864258
aF-0.8392137885093689
aa(lp552
F-4.5361752510070801
aF3.8496792316436772
aF-0.83615201711654663
aa(lp553
F-4.4795455932617188
aF3.824541568756104
aF-0.82780158519744873
aa(lp554
F-4.5034089088439941
aF3.8667104244232182
aF-0.83420354127883911
aaa(lp555
(lp556
F-5.034055233001709
aF2.7927200794219971
aF-0.94581109285354614
aa(lp557
F-5.0119895935058594
aF2.8160488605499272
aF-0.94451409578323364
aa(lp558
F-5.013422966003418
aF2.8376133441925049
aF-0.94645953178405762
aa(lp559
F-4.9998373985290527
aF2.8495442867279048
aF-0.94548684358596802
aa(lp560
F-5.0038437843322754
aF2.8703694343566899
aF-0.94775652885437012
aa(lp561
F-4.9999279975891113
aF2.8890373706817631
aF-0.94872921705245972
aa(lp562
F-4.9696626663208008
aF2.890090703964233
aF-0.94451409578323364
aa(lp563
F-4.9620790481567383
aF2.9030914306640629
aF-0.94451409578323364
aa(lp564
F-4.9444327354431152
aF2.9136559963226318
aF-0.94289290904998779
aa(lp565
F-4.9583444595336914
aF2.9405391216278081
aF-0.94710803031921387
aa(lp566
F-4.9479036331176758
aF2.9542262554168701
aF-0.94678378105163574
aa(lp567
F-4.944709300994873
aF2.971081018447876
aF-0.94775652885437012
aa(lp568
F-4.9285974502563477
aF2.9825136661529541
aF-0.94645953178405762
aa(lp569
F-4.9207720756530762
aF2.9954063892364502
aF-0.94645953178405762
aa(lp570
F-4.9152283668518066
aF3.0120558738708501
aF-0.94710803031921387
aaa(lp571
(lp572
F-4.5884156227111816
aF3.66944432258606
aF-0.96526551246643066
aa(lp573
F-4.6051850318908691
aF3.7053112983703609
aF-0.97110188007354736
aa(lp574
F-4.6110444068908691
aF3.7326178550720219
aF-0.97466850280761719
aa(lp575
F-4.606724739074707
aF3.750463724136353
aF-0.97596549987792969
aa(lp576
F-4.6023416519165039
aF3.7683145999908452
aF-0.97726243734359741
aa(lp577
F-4.5965723991394043
aF3.7877748012542729
aF-0.97855943441390991
aa(lp578
F-4.5760021209716797
aF3.7909822463989258
aF-0.97628974914550781
aa(lp579
F-4.5777120590209961
aF3.816713809967041
aF-0.97920787334442139
aa(lp580
F-4.5709037780761719
aF3.834084272384644
aF-0.98018062114715576
aa(lp581
F-4.5705752372741699
aF3.8528735637664799
aF-0.98212605714797974
aa(lp582
F-4.5524287223815918
aF3.862106561660767
aF-0.98082911968231201
aaa(lp583
(lp584
F-4.9658184051513672
aF2.7696177959442139
aF-1.071290016174316
aa(lp585
F-5.0099697113037109
aF2.8114640712738042
aF-1.0823991298675539
aa(lp586
F-5.0003881454467773
aF2.824476957321167
aF-1.082028865814209
aa(lp587
F-4.996614933013916
aF2.8430881500244141
aF-1.0831397771835329
aa(lp588
F-4.9932732582092294
aF2.8608319759368901
aF-1.084250688552856
aa(lp589
F-4.9847064018249512
aF2.8953478336334229
aF-1.086102247238159
aa(lp590
F-4.9681177139282227
aF2.9042971134185791
aF-1.084250688552856
aa(lp591
F-4.9655799865722656
aF2.9202826023101811
aF-1.08536159992218
aa(lp592
F-4.9546899795532227
aF2.934866189956665
aF-1.084991335868835
aa(lp593
F-4.9430985450744629
aF2.9466781616210942
aF-1.084250688552856
aa(lp594
F-4.9360189437866211
aF2.9623429775238042
aF-1.0846209526062009
aa(lp595
F-4.9193153381347656
aF2.9710350036621089
aF-1.082769393920898
aa(lp596
F-4.9133157730102539
aF2.9885175228118901
aF-1.083510041236877
aa(lp597
F-4.9155340194702148
aF3.007524967193604
aF-1.0857318639755249
aaa(lp598
(lp599
F-4.5898714065551758
aF3.6666700839996338
aF-1.106839179992676
aa(lp600
F-4.6071929931640634
aF3.7016313076019292
aF-1.1135046482086179
aa(lp601
F-4.6099462509155273
aF3.7264046669006352
aF-1.1168373823165889
aa(lp602
F-4.5942950248718262
aF3.7363460063934331
aF-1.1157264709472661
aa(lp603
F-4.5899291038513184
aF3.7541384696960449
aF-1.1172077655792241
aa(lp604
F-4.590052604675293
aF3.7756812572479248
aF-1.119799852371216
aa(lp605
F-4.5887660980224609
aF3.7988560199737549
aF-1.122392058372498
aa(lp606
F-4.5697407722473153
aF3.8033127784728999
aF-1.120170116424561
aa(lp607
F-4.5607833862304688
aF3.8201742172241211
aF-1.12091076374054
aa(lp608
F-4.5719728469848633
aF3.852686882019043
aF-1.126465320587158
aa(lp609
F-4.5505466461181641
aF3.853685617446899
aF-1.1235029697418211
aa(lp610
F-4.5309381484985352
aF3.8615880012512211
aF-1.121651411056519
aa(lp611
F-4.4627623558044434
aF3.826400995254517
aF-1.107579827308655
aaa(lp612
(lp613
F-4.9996323585510254
aF2.7873330116271968
aF-1.2166992425918579
aa(lp614
F-5.0281476974487314
aF2.820511102676392
aF-1.225431561470032
aa(lp615
F-5.015141487121582
aF2.831655740737915
aF-1.224184036254883
aa(lp616
F-5.011322021484375
aF2.8502988815307622
aF-1.225431561470032
aa(lp617
F-5.002842903137207
aF2.8651552200317378
aF-1.225431561470032
aa(lp618
F-4.9880428314208984
aF2.8752067089080811
aF-1.2237682342529299
aa(lp619
F-4.9756021499633789
aF2.8888983726501469
aF-1.2229365110397341
aa(lp620
F-4.9742717742919922
aF2.9067296981811519
aF-1.2245998382568359
aa(lp621
F-4.9700179100036621
aF2.9217250347137451
aF-1.225431561470032
aa(lp622
F-4.970914363861084
aF2.9433047771453862
aF-1.22792649269104
aa(lp623
F-4.9643564224243164
aF2.9581761360168461
aF-1.2283422946929929
aa(lp624
F-4.9538798332214364
aF2.971886157989502
aF-1.22792649269104
aa(lp625
F-4.9522604942321777
aF2.9897527694702148
aF-1.229589700698853
aa(lp626
F-4.9495296478271484
aF3.0093612670898442
aF-1.231253027915955
aa(lp627
F-4.9533166885375977
aF3.0294537544250488
aF-1.234163761138916
aaa.