(lp1
(lp2
(lp3
F15.129
aF-9.3877000000000006
aF2.5023
aa(lp4
F15.039
aF-9.3901000000000003
aF2.4918
aa(lp5
F15.08
aF-9.5368999999999993
aF2.5076000000000001
aa(lp6
F15.048
aF-9.5831999999999997
aF2.5072999999999999
aa(lp7
F15.08
aF-9.6587999999999994
aF2.5167999999999999
aa(lp8
F15.164
aF-9.7765000000000004
aF2.5356999999999998
aaa(lp9
(lp10
F15.021000000000001
aF-9.6212999999999997
aF2.0861000000000001
aa(lp11
F14.853999999999999
aF-9.5764999999999993
aF2.0668000000000002
aa(lp12
F14.784000000000001
aF-9.5935000000000006
aF2.0609999999999999
aa(lp13
F14.77
aF-9.6397999999999993
aF2.0626000000000002
aa(lp14
F14.845000000000001
aF-9.7512000000000008
aF2.077
aa(lp15
F14.996
aF-9.9146000000000001
aF2.1023000000000001
aa(lp16
F15.048
aF-10.013
aF2.1137000000000001
aa(lp17
F15.029999999999999
aF-10.061999999999999
aF2.1151
aaa(lp18
(lp19
F14.978
aF-9.4068000000000005
aF1.6500999999999999
aa(lp20
F14.93
aF-9.4420999999999999
aF1.6480999999999999
aa(lp21
F15
aF-9.5520999999999994
aF1.659
aa(lp22
F14.981
aF-9.5955999999999992
aF1.6597999999999999
aa(lp23
F14.933999999999999
aF-9.6280999999999999
aF1.6577
aa(lp24
F14.981999999999999
aF-9.7223000000000006
aF1.6662999999999999
aa(lp25
F15.109
aF-9.8605
aF1.6832
aa(lp26
F15.269
aF-10.029999999999999
aF1.7043999999999999
aa(lp27
F15.234
aF-10.071999999999999
aF1.7038
aaa(lp28
(lp29
F15.276
aF-8.9304000000000006
aF1.6509
aa(lp30
F15.291
aF-8.9999000000000002
aF1.6553
aa(lp31
F15.263999999999999
aF-9.0451999999999995
aF1.6553
aa(lp32
F15.220000000000001
aF-9.0838999999999999
aF1.6536999999999999
aa(lp33
F15.145
aF-9.0967000000000002
aF1.6483000000000001
aa(lp34
F15.084
aF-9.1173000000000002
aF1.6444000000000001
aa(lp35
F15.042999999999999
aF-9.1501000000000001
aF1.6427
aa(lp36
F15.15
aF-9.2730999999999995
aF1.6572
aa(lp37
F15.231
aF-9.3886000000000003
aF1.6693
aa(lp38
F15.173999999999999
aF-9.4159000000000006
aF1.6660999999999999
aa(lp39
F15.241
aF-9.5162999999999993
aF1.6762999999999999
aaa.