(lp1
(lp2
(lp3
F-5.4932999999999996
aF9.4269999999999996
aF1.5334000000000001
aa(lp4
F-5.4291999999999998
aF9.3772000000000002
aF1.5227999999999999
aa(lp5
F-5.3815999999999997
aF9.3589000000000002
aF1.5173000000000001
aa(lp6
F-5.3322000000000003
aF9.3369999999999997
aF1.5111000000000001
aa(lp7
F-5.2878999999999996
aF9.3234999999999992
aF1.5064
aa(lp8
F-5.2434000000000003
aF9.3055000000000003
aF1.5011000000000001
aa(lp9
F-5.1932
aF9.2768999999999995
aF1.4942
aa(lp10
F-5.1498999999999997
aF9.2601999999999993
aF1.4892000000000001
aa(lp11
F-5.0997000000000003
aF9.2382000000000009
aF1.4830000000000001
aa(lp12
F-5.0552000000000001
aF9.2219999999999995
aF1.478
aa(lp13
F-5.0117000000000003
aF9.2073999999999998
aF1.4733000000000001
aa(lp14
F-4.9634
aF9.1795000000000009
aF1.4665999999999999
aa(lp15
F-4.9264999999999999
aF9.1723999999999997
aF1.4633
aa(lp16
F-4.8775000000000004
aF9.1424000000000003
aF1.4562999999999999
aa(lp17
F-4.8342999999999998
aF9.1227999999999998
aF1.4510000000000001
aa(lp18
F-4.7937000000000003
aF9.1151
aF1.4474
aa(lp19
F-4.7507999999999999
aF9.0951000000000004
aF1.4420999999999999
aa(lp20
F-4.7099000000000002
aF9.0785
aF1.4374
aa(lp21
F-4.6665999999999999
aF9.0607000000000006
aF1.4323999999999999
aa(lp22
F-4.6197999999999997
aF9.0357000000000003
aF1.4261999999999999
aa(lp23
F-4.5823
aF9.0282
aF1.4229000000000001
aa(lp24
F-4.5376000000000003
aF9.0063999999999993
aF1.4173
aa(lp25
F-4.4955999999999996
aF8.9854000000000003
aF1.4120999999999999
aa(lp26
F-4.4531000000000001
aF8.9666999999999994
aF1.407
aa(lp27
F-4.4123999999999999
aF8.9514999999999993
aF1.4026000000000001
aa(lp28
F-4.3742000000000001
aF8.9328000000000003
aF1.3978999999999999
aaa(lp29
(lp30
F-5.4776999999999996
aF9.4002999999999997
aF1.2723
aa(lp31
F-5.4265999999999996
aF9.3726000000000003
aF1.2665
aa(lp32
F-5.3799000000000001
aF9.3559000000000001
aF1.2621
aa(lp33
F-5.3304999999999998
aF9.3338999999999999
aF1.2569999999999999
aa(lp34
F-5.2831000000000001
aF9.3150999999999993
aF1.2523
aa(lp35
F-5.2394999999999996
aF9.2987000000000002
aF1.2482
aa(lp36
F-5.1942000000000004
aF9.2786000000000008
aF1.2435
aa(lp37
F-5.1517999999999997
aF9.2636000000000003
aF1.2396
aa(lp38
F-5.0995999999999997
aF9.2379999999999995
aF1.234
aa(lp39
F-5.0522
aF9.2164999999999999
aF1.2291000000000001
aa(lp40
F-5.0067000000000004
aF9.1982999999999997
aF1.2246999999999999
aa(lp41
F-4.9659000000000004
aF9.1843000000000004
aF1.2210000000000001
aa(lp42
F-4.9223999999999997
aF9.1648999999999994
aF1.2165999999999999
aa(lp43
F-4.8780999999999999
aF9.1434999999999995
aF1.2119
aa(lp44
F-4.8376000000000001
aF9.1289999999999996
aF1.2081999999999999
aa(lp45
F-4.7914000000000003
aF9.1107999999999993
aF1.2038
aa(lp46
F-4.7511999999999999
aF9.0959000000000003
aF1.2000999999999999
aa(lp47
F-4.7074999999999996
aF9.0739000000000001
aF1.1954
aa(lp48
F-4.6669
aF9.0612999999999992
aF1.1919
aa(lp49
F-4.6200999999999999
aF9.0361999999999991
aF1.1868000000000001
aa(lp50
F-4.5780000000000003
aF9.0198
aF1.1829000000000001
aa(lp51
F-4.5350999999999999
aF9.0014000000000003
aF1.1787000000000001
aa(lp52
F-4.4974999999999996
aF8.9892000000000003
aF1.1754
aa(lp53
F-4.4531999999999998
aF8.9669000000000008
aF1.1708000000000001
aa(lp54
F-4.4097999999999997
aF8.9461999999999993
aF1.1664000000000001
aa(lp55
F-4.3742000000000001
aF8.9327000000000005
aF1.1631
aaa(lp56
(lp57
F-5.4951999999999996
aF9.4303000000000008
aF1.0183
aa(lp58
F-5.4298999999999999
aF9.3783999999999992
aF1.0109999999999999
aa(lp59
F-5.3802000000000003
aF9.3565000000000005
aF1.0068999999999999
aa(lp60
F-5.3367000000000004
aF9.3447999999999993
aF1.004
aa(lp61
F-5.2843
aF9.3172999999999995
aF0.99933000000000005
aa(lp62
F-5.2427000000000001
aF9.3041999999999998
aF0.99636000000000002
aa(lp63
F-5.1943000000000001
aF9.2789000000000001
aF0.99209000000000003
aa(lp64
F-5.1500000000000004
aF9.2603000000000009
aF0.98855999999999999
aa(lp65
F-5.1016000000000004
aF9.2415000000000003
aF0.98484000000000005
aa(lp66
F-5.0549999999999997
aF9.2217000000000002
aF0.98111999999999999
aa(lp67
F-5.0105000000000004
aF9.2051999999999996
aF0.97777999999999998
aa(lp68
F-4.9619999999999997
aF9.1770999999999994
aF0.97331999999999996
aa(lp69
F-4.9231999999999996
aF9.1663999999999994
aF0.97072000000000003
aa(lp70
F-4.8834999999999997
aF9.1537000000000006
aF0.96792999999999996
aa(lp71
F-4.8384
aF9.1303999999999998
aF0.96403000000000005
aa(lp72
F-4.7892999999999999
aF9.1067999999999998
aF0.95994999999999997
aa(lp73
F-4.7491000000000003
aF9.0919000000000008
aF0.95696999999999999
aa(lp74
F-4.7089999999999996
aF9.0768000000000004
aF0.95399999999999996
aa(lp75
F-4.6646999999999998
aF9.0571000000000002
aF0.95047000000000004
aa(lp76
F-4.6223999999999998
aF9.0408000000000008
aF0.94730999999999999
aa(lp77
F-4.5784000000000002
aF9.0206999999999997
aF0.94377999999999995
aa(lp78
F-4.5354999999999999
aF9.0022000000000002
aF0.94044000000000005
aa(lp79
F-4.4969999999999999
aF8.9880999999999993
aF0.93764999999999998
aa(lp80
F-4.4508000000000001
aF8.9621999999999993
aF0.93355999999999995
aa(lp81
F-4.4127999999999998
aF8.9521999999999995
aF0.93115000000000003
aa(lp82
F-4.3753000000000002
aF8.9351000000000003
aF0.92818000000000001
aaa(lp83
(lp84
F-5.4794999999999998
aF9.4033999999999995
aF0.76104000000000005
aa(lp85
F-5.4211999999999998
aF9.3634000000000004
aF0.75658000000000003
aa(lp86
F-5.3724999999999996
aF9.3430999999999997
aF0.75365000000000004
aa(lp87
F-5.3239999999999998
aF9.3226999999999993
aF0.75072000000000005
aa(lp88
F-5.2747000000000002
aF9.3002000000000002
aF0.74765000000000004
aa(lp89
F-5.2310999999999996
aF9.2835999999999999
aF0.74514000000000002
aa(lp90
F-5.1856
aF9.2634000000000007
aF0.74234999999999995
aa(lp91
F-5.1413000000000002
aF9.2446999999999999
aF0.73970000000000002
aa(lp92
F-5.0910000000000002
aF9.2224000000000004
aF0.73663000000000001
aa(lp93
F-5.0472999999999999
aF9.2077000000000009
aF0.73426000000000002
aa(lp94
F-5.0008999999999997
aF9.1875999999999998
aF0.73146999999999995
aa(lp95
F-4.9619999999999997
aF9.1769999999999996
aF0.72950999999999999
aa(lp96
F-4.9165000000000001
aF9.1539000000000001
aF0.72658
aa(lp97
F-4.8720999999999997
aF9.1324000000000005
aF0.72379000000000004
aa(lp98
F-4.8326000000000002
aF9.1195000000000004
aF0.72170000000000001
aa(lp99
F-4.7843999999999998
aF9.0975000000000001
aF0.71877000000000002
aa(lp100
F-4.7432999999999996
aF9.0808
aF0.71640000000000004
aa(lp101
F-4.6994999999999996
aF9.0586000000000002
aF0.71360999999999997
aa(lp102
F-4.6580000000000004
aF9.0441000000000003
aF0.71138000000000001
aa(lp103
F-4.6157000000000004
aF9.0276999999999994
aF0.70899999999999996
aa(lp104
F-4.5744999999999996
aF9.0129000000000001
aF0.70677000000000001
aa(lp105
F-4.5332999999999997
aF8.9978999999999996
aF0.70454000000000006
aa(lp106
F-4.4912000000000001
aF8.9765999999999995
aF0.70189000000000001
aa(lp107
F-4.4459999999999997
aF8.9524000000000008
aF0.69896000000000003
aa(lp108
F-4.4053000000000004
aF8.9368999999999996
aF0.69672999999999996
aa(lp109
F-4.3696000000000002
aF8.9232999999999993
aF0.69477
aaa(lp110
(lp111
F-5.4779
aF9.4006000000000007
aF0.50739000000000001
aa(lp112
F-5.4226000000000001
aF9.3657000000000004
aF0.50468000000000002
aa(lp113
F-5.3708999999999998
aF9.3401999999999994
aF0.50244999999999995
aa(lp114
F-5.3253000000000004
aF9.3248999999999995
aF0.50077000000000005
aa(lp115
F-5.2778999999999998
aF9.3058999999999994
aF0.49891000000000002
aa(lp116
F-5.2323000000000004
aF9.2858000000000001
aF0.49704999999999999
aa(lp117
F-5.1839000000000004
aF9.2601999999999993
aF0.49490000000000001
aa(lp118
F-5.1395
aF9.2415000000000003
aF0.49313000000000001
aa(lp119
F-5.0960000000000001
aF9.2314000000000007
aF0.49173
aa(lp120
F-5.0454999999999997
aF9.2043999999999997
aF0.48949999999999999
aa(lp121
F-5.0048000000000004
aF9.1948000000000008
aF0.48819000000000001
aa(lp122
F-4.9611000000000001
aF9.1753
aF0.48642000000000002
aa(lp123
F-4.9118000000000004
aF9.1450999999999993
aF0.48409000000000002
aa(lp124
F-4.8768000000000002
aF9.1411999999999995
aF0.48315999999999998
aa(lp125
F-4.8345000000000002
aF9.1229999999999993
aF0.48148999999999997
aa(lp126
F-4.7769000000000004
aF9.0832999999999995
aF0.47860000000000003
aa(lp127
F-4.7442000000000002
aF9.0824999999999996
aF0.47785
aa(lp128
F-4.7031000000000001
aF9.0655000000000001
aF0.47627000000000003
aa(lp129
F-4.6578999999999997
aF9.0439000000000007
aF0.47441
aa(lp130
F-4.6165000000000003
aF9.0291999999999994
aF0.47291
aa(lp131
F-4.5734000000000004
aF9.0107999999999997
aF0.47123999999999999
aa(lp132
F-4.5286999999999997
aF8.9886999999999997
aF0.46937000000000001
aa(lp133
F-4.4928999999999997
aF8.9797999999999991
aF0.46826000000000001
aa(lp134
F-4.444
aF8.9483999999999995
aF0.46593000000000001
aa(lp135
F-4.4058999999999999
aF8.9382999999999999
aF0.46472000000000002
aa(lp136
F-4.3737000000000004
aF8.9318000000000008
aF0.46378000000000003
aaa(lp137
(lp138
F-5.4793000000000003
aF9.4031000000000002
aF0.25267000000000001
aa(lp139
F-5.4249999999999998
aF9.3698999999999995
aF0.25136999999999998
aa(lp140
F-5.3802000000000003
aF9.3565000000000005
aF0.25058000000000002
aa(lp141
F-5.3305999999999996
aF9.3341999999999992
aF0.24956
aa(lp142
F-5.2842000000000002
aF9.3169000000000004
aF0.24868000000000001
aa(lp143
F-5.2413999999999996
aF9.3020999999999994
aF0.24789
aa(lp144
F-5.1890999999999998
aF9.2696000000000005
aF0.24664
aa(lp145
F-5.1496000000000004
aF9.2594999999999992
aF0.24598999999999999
aa(lp146
F-5.1002000000000001
aF9.2388999999999992
aF0.24501000000000001
aa(lp147
F-5.0545
aF9.2207000000000008
aF0.24413000000000001
aa(lp148
F-5.0069999999999997
aF9.1988000000000003
aF0.24315999999999999
aa(lp149
F-4.9603999999999999
aF9.1739999999999995
aF0.24213999999999999
aa(lp150
F-4.9215
aF9.1631999999999998
aF0.24149000000000001
aa(lp151
F-4.8771000000000004
aF9.1416000000000004
aF0.24056
aa(lp152
F-4.8356000000000003
aF9.1251999999999995
aF0.23977000000000001
aa(lp153
F-4.7919999999999998
aF9.1120000000000001
aF0.23902000000000001
aa(lp154
F-4.7462
aF9.0862999999999996
aF0.23799999999999999
aa(lp155
F-4.7050999999999998
aF9.0693999999999999
aF0.23721
aa(lp156
F-4.6626000000000003
aF9.0531000000000006
aF0.23643
aa(lp157
F-4.6212
aF9.0383999999999993
aF0.23568
aa(lp158
F-4.5772000000000004
aF9.0182000000000002
aF0.23480000000000001
aa(lp159
F-4.5359999999999996
aF9.0031999999999996
aF0.23405999999999999
aa(lp160
F-4.4965000000000002
aF8.9871999999999996
aF0.23330999999999999
aa(lp161
F-4.4520999999999997
aF8.9647000000000006
aF0.23239000000000001
aa(lp162
F-4.4112999999999998
aF8.9490999999999996
aF0.23164000000000001
aa(lp163
F-4.3738000000000001
aF8.9319000000000006
aF0.23089999999999999
aaa(lp164
(lp165
F-5.4837999999999996
aF9.4108000000000001
aF0
aa(lp166
F-5.4214000000000002
aF9.3637999999999995
aF0
aa(lp167
F-5.3757000000000001
aF9.3485999999999994
aF0
aa(lp168
F-5.3281000000000001
aF9.3298000000000005
aF0
aa(lp169
F-5.2786999999999997
aF9.3072999999999997
aF0
aa(lp170
F-5.234
aF9.2888999999999999
aF0
aa(lp171
F-5.1826999999999996
aF9.2581000000000007
aF0
aa(lp172
F-5.1421999999999999
aF9.2462999999999997
aF0
aa(lp173
F-5.0976999999999997
aF9.2344000000000008
aF0
aa(lp174
F-5.0519999999999996
aF9.2162000000000006
aF0
aa(lp175
F-5.0026000000000002
aF9.1906999999999996
aF0
aa(lp176
F-4.9569999999999999
aF9.1677
aF0
aa(lp177
F-4.9161999999999999
aF9.1532999999999998
aF0
aa(lp178
F-4.8746
aF9.1370000000000005
aF0
aa(lp179
F-4.8303000000000003
aF9.1151999999999997
aF0
aa(lp180
F-4.7877000000000001
aF9.1037999999999997
aF0
aa(lp181
F-4.7427999999999999
aF9.0799000000000003
aF0
aa(lp182
F-4.7046000000000001
aF9.0683000000000007
aF0
aa(lp183
F-4.6612
aF9.0502000000000002
aF0
aa(lp184
F-4.617
aF9.0302000000000007
aF0
aa(lp185
F-4.5747999999999998
aF9.0135000000000005
aF0
aa(lp186
F-4.5335999999999999
aF8.9984000000000002
aF0
aa(lp187
F-4.4905999999999997
aF8.9753000000000007
aF0
aa(lp188
F-4.4488000000000003
aF8.9581
aF0
aa(lp189
F-4.4107000000000003
aF8.9480000000000004
aF0
aa(lp190
F-4.3723000000000001
aF8.9290000000000003
aF0
aaa(lp191
(lp192
F-5.4733000000000001
aF9.3926999999999996
aF-0.25239
aa(lp193
F-5.4210000000000003
aF9.3629999999999995
aF-0.25119000000000002
aa(lp194
F-5.3731999999999998
aF9.3444000000000003
aF-0.25025999999999998
aa(lp195
F-5.3247
aF9.3238000000000003
aF-0.24928
aa(lp196
F-5.2812000000000001
aF9.3117000000000001
aF-0.24854000000000001
aa(lp197
F-5.2346000000000004
aF9.2898999999999994
aF-0.24757000000000001
aa(lp198
F-5.1871
aF9.2660999999999998
aF-0.24654999999999999
aa(lp199
F-5.1436999999999999
aF9.2491000000000003
aF-0.24571000000000001
aa(lp200
F-5.0933999999999999
aF9.2266999999999992
aF-0.24468999999999999
aa(lp201
F-5.0496999999999996
aF9.2119
aF-0.24390000000000001
aa(lp202
F-5.0041000000000002
aF9.1935000000000002
aF-0.24302000000000001
aa(lp203
F-4.9584999999999999
aF9.1705000000000005
aF-0.24204000000000001
aa(lp204
F-4.9157999999999999
aF9.1525999999999996
aF-0.24121000000000001
aa(lp205
F-4.8733000000000004
aF9.1344999999999992
aF-0.24037
aa(lp206
F-4.8319000000000001
aF9.1181000000000001
aF-0.23957999999999999
aa(lp207
F-4.7835999999999999
aF9.0960999999999999
aF-0.23860999999999999
aa(lp208
F-4.7405999999999997
aF9.0756999999999994
aF-0.23771999999999999
aa(lp209
F-4.7004999999999999
aF9.0604999999999993
aF-0.23698
aa(lp210
F-4.6589999999999998
aF9.0459999999999994
aF-0.23624000000000001
aa(lp211
F-4.6147999999999998
aF9.0259
aF-0.23536000000000001
aa(lp212
F-4.5698999999999996
aF9.0038999999999998
aF-0.23443
aa(lp213
F-4.5315000000000003
aF8.9941999999999993
aF-0.23383000000000001
aa(lp214
F-4.4885000000000002
aF8.9710999999999999
aF-0.2329
aa(lp215
F-4.4493999999999998
aF8.9593000000000007
aF-0.23225000000000001
aa(lp216
F-4.4095000000000004
aF8.9456000000000007
aF-0.23155000000000001
aa(lp217
F-4.3676000000000004
aF8.9193999999999996
aF-0.23058000000000001
aaa(lp218
(lp219
F-5.4698000000000002
aF9.3867999999999991
aF-0.50663999999999998
aa(lp220
F-5.4215999999999998
aF9.3640000000000008
aF-0.50458999999999998
aa(lp221
F-5.3718000000000004
aF9.3419000000000008
aF-0.50253999999999999
aa(lp222
F-5.3223000000000003
aF9.3196999999999992
aF-0.50048999999999999
aa(lp223
F-5.2769000000000004
aF9.3041
aF-0.49881999999999999
aa(lp224
F-5.2302999999999997
aF9.2822999999999993
aF-0.49686000000000002
aa(lp225
F-5.1867999999999999
aF9.2654999999999994
aF-0.49518000000000001
aa(lp226
F-5.1375999999999999
aF9.2379999999999995
aF-0.49295
aa(lp227
F-5.0902000000000003
aF9.2209000000000003
aF-0.49118000000000001
aa(lp228
F-5.0454999999999997
aF9.2043999999999997
aF-0.48949999999999999
aa(lp229
F-5.0019999999999998
aF9.1895000000000007
aF-0.48791000000000001
aa(lp230
F-4.9562999999999997
aF9.1664999999999992
aF-0.48596
aa(lp231
F-4.9165000000000001
aF9.1539000000000001
aF-0.48455999999999999
aa(lp232
F-4.8673999999999999
aF9.1235999999999997
aF-0.48222999999999999
aa(lp233
F-4.8278999999999996
aF9.1105999999999998
aF-0.48082999999999998
aa(lp234
F-4.7797000000000001
aF9.0885999999999996
aF-0.47887999999999997
aa(lp235
F-4.7385999999999999
aF9.0717999999999996
aF-0.47728999999999999
aa(lp236
F-4.6976000000000004
aF9.0548999999999999
aF-0.47571000000000002
aa(lp237
F-4.6524000000000001
aF9.0333000000000006
aF-0.47384999999999999
aa(lp238
F-4.6120000000000001
aF9.0203000000000007
aF-0.47244999999999998
aa(lp239
F-4.5707000000000004
aF9.0054999999999996
aF-0.47095999999999999
aa(lp240
F-4.5278
aF8.9869000000000003
aF-0.46927999999999997
aa(lp241
F-4.4884000000000004
aF8.9709000000000003
aF-0.46778999999999998
aa(lp242
F-4.444
aF8.9483999999999995
aF-0.46593000000000001
aa(lp243
F-4.4032999999999998
aF8.9329000000000001
aF-0.46444000000000002
aa(lp244
F-4.3684000000000003
aF8.9210999999999991
aF-0.46322999999999998
aaa(lp245
(lp246
F-5.4725000000000001
aF9.3912999999999993
aF-0.76007000000000002
aa(lp247
F-5.4241999999999999
aF9.3686000000000007
aF-0.75700000000000001
aa(lp248
F-5.3734999999999999
aF9.3449000000000009
aF-0.75378999999999996
aa(lp249
F-5.327
aF9.3278999999999996
aF-0.75114000000000003
aa(lp250
F-5.2796000000000003
aF9.3088999999999995
aF-0.74834999999999996
aa(lp251
F-5.234
aF9.2888999999999999
aF-0.74556
aa(lp252
F-5.1866000000000003
aF9.2651000000000003
aF-0.74248999999999998
aa(lp253
F-5.1441999999999997
aF9.2499000000000002
aF-0.74012
aa(lp254
F-5.0949
aF9.2294
aF-0.73719000000000001
aa(lp255
F-5.0492999999999997
aF9.2111999999999998
aF-0.73453999999999997
aa(lp256
F-5.0027999999999997
aF9.1911000000000005
aF-0.73175000000000001
aa(lp257
F-4.9581999999999997
aF9.1699000000000002
aF-0.72896000000000005
aa(lp258
F-4.9146000000000001
aF9.1503999999999994
aF-0.72629999999999995
aa(lp259
F-4.8739999999999997
aF9.1358999999999995
aF-0.72406999999999999
aa(lp260
F-4.8289
aF9.1123999999999992
aF-0.72114
aa(lp261
F-4.7853000000000003
aF9.0992999999999995
aF-0.71891000000000005
aa(lp262
F-4.7423999999999999
aF9.0790000000000006
aF-0.71626000000000001
aa(lp263
F-4.7013999999999996
aF9.0620999999999992
aF-0.71389000000000002
aa(lp264
F-4.6589
aF9.0458999999999996
aF-0.71152000000000004
aa(lp265
F-4.6147999999999998
aF9.0259
aF-0.70887
aa(lp266
F-4.5717999999999996
aF9.0075000000000003
aF-0.70635000000000003
aa(lp267
F-4.5316000000000001
aF8.9943000000000008
aF-0.70426
aa(lp268
F-4.4912000000000001
aF8.9765999999999995
aF-0.70189000000000001
aa(lp269
F-4.4467999999999996
aF8.9542000000000002
aF-0.69910000000000005
aa(lp270
F-4.407
aF8.9405000000000001
aF-0.69701000000000002
aa(lp271
F-4.3704000000000001
aF8.9251000000000005
aF-0.69491000000000003
aaa(lp272
(lp273
F-5.4650999999999996
aF9.3787000000000003
aF-1.0126999999999999
aa(lp274
F-5.4199999999999999
aF9.3612000000000002
aF-1.0092000000000001
aa(lp275
F-5.3693
aF9.3375000000000004
aF-1.0048999999999999
aa(lp276
F-5.3288000000000002
aF9.3308999999999997
aF-1.0024999999999999
aa(lp277
F-5.2765000000000004
aF9.3033999999999999
aF-0.99785000000000001
aa(lp278
F-5.2339000000000002
aF9.2886000000000006
aF-0.99468999999999996
aa(lp279
F-5.1864999999999997
aF9.2650000000000006
aF-0.99060000000000004
aa(lp280
F-5.1460999999999997
aF9.2532999999999994
aF-0.98780999999999997
aa(lp281
F-5.0938999999999997
aF9.2276000000000007
aF-0.98334999999999995
aa(lp282
F-5.0511999999999997
aF9.2147000000000006
aF-0.98038000000000003
aa(lp283
F-5.0067000000000004
aF9.1981999999999999
aF-0.97704000000000002
aa(lp284
F-4.9611000000000001
aF9.1753999999999998
aF-0.97314000000000001
aa(lp285
F-4.9146999999999998
aF9.1506000000000007
aF-0.96904999999999997
aa(lp286
F-4.8750999999999998
aF9.1379000000000001
aF-0.96626000000000001
aa(lp287
F-4.8327999999999998
aF9.1197999999999997
aF-0.96292
aa(lp288
F-4.7846000000000002
aF9.0978999999999992
aF-0.95901999999999998
aa(lp289
F-4.7462999999999997
aF9.0866000000000007
aF-0.95642000000000005
aa(lp290
F-4.7016
aF9.0626999999999995
aF-0.95250999999999997
aa(lp291
F-4.6619999999999999
aF9.0518000000000001
aF-0.94991000000000003
aa(lp292
F-4.6161000000000003
aF9.0282999999999998
aF-0.94601000000000002
aa(lp293
F-4.5730000000000004
aF9.0099999999999998
aF-0.94267000000000001
aa(lp294
F-4.5327999999999999
aF8.9969000000000001
aF-0.93988000000000005
aa(lp295
F-4.4951999999999996
aF8.9846000000000004
aF-0.93728
aa(lp296
F-4.4463999999999997
aF8.9533000000000005
aF-0.93264000000000002
aa(lp297
F-4.4119000000000002
aF8.9504000000000001
aF-0.93096000000000001
aa(lp298
F-4.3735999999999997
aF8.9314999999999998
aF-0.92779999999999996
aaa(lp299
(lp300
F-5.4767000000000001
aF9.3986000000000001
aF-1.2721
aa(lp301
F-5.4236000000000004
aF9.3673999999999999
aF-1.2658
aa(lp302
F-5.3769
aF9.3507999999999996
aF-1.2614000000000001
aa(lp303
F-5.3254999999999999
aF9.3253000000000004
aF-1.2558
aa(lp304
F-5.2801999999999998
aF9.3099000000000007
aF-1.2516
aa(lp305
F-5.2347000000000001
aF9.2899999999999991
aF-1.2470000000000001
aa(lp306
F-5.1912000000000003
aF9.2734000000000005
aF-1.2427999999999999
aa(lp307
F-5.1421999999999999
aF9.2462
aF-1.2372000000000001
aa(lp308
F-5.0976999999999997
aF9.2345000000000006
aF-1.2335
aa(lp309
F-5.0502000000000002
aF9.2129999999999992
aF-1.2285999999999999
aa(lp310
F-5.0010000000000003
aF9.1877999999999993
aF-1.2233000000000001
aa(lp311
F-4.9640000000000004
aF9.1807999999999996
aF-1.2204999999999999
aa(lp312
F-4.9196
aF9.1595999999999993
aF-1.2159
aa(lp313
F-4.8734000000000002
aF9.1348000000000003
aF-1.2108000000000001
aa(lp314
F-4.8338999999999999
aF9.1219999999999999
aF-1.2073
aa(lp315
F-4.7885999999999997
aF9.1054999999999993
aF-1.2031000000000001
aa(lp316
F-4.7493999999999996
aF9.0923999999999996
aF-1.1996
aa(lp317
F-4.7028999999999996
aF9.0650999999999993
aF-1.1942999999999999
aa(lp318
F-4.6650999999999998
aF9.0578000000000003
aF-1.1915
aa(lp319
F-4.6182999999999996
aF9.0327000000000002
aF-1.1863999999999999
aa(lp320
F-4.5770999999999997
aF9.0180000000000007
aF-1.1826000000000001
aa(lp321
F-4.5359999999999996
aF9.0031999999999996
aF-1.1789000000000001
aa(lp322
F-4.4947999999999997
aF8.9838000000000005
aF-1.1747000000000001
aa(lp323
F-4.4576000000000002
aF8.9757999999999996
aF-1.1719999999999999
aa(lp324
F-4.4134000000000002
aF8.9533000000000005
aF-1.1673
aa(lp325
F-4.375
aF8.9344999999999999
aF-1.1634
aaa.