(lp1
(lp2
(lp3
F-14.147
aF12.083
aF2.6147999999999998
aa(lp4
F-14.118
aF12.125999999999999
aF2.6156000000000001
aa(lp5
F-14.092000000000001
aF12.180999999999999
aF2.6177999999999999
aa(lp6
F-14.064
aF12.226000000000001
aF2.6190000000000002
aa(lp7
F-14.051
aF12.282999999999999
aF2.6229
aa(lp8
F-14.026999999999999
aF12.34
aF2.6255999999999999
aaa(lp9
(lp10
F-15.262
aF9.4258000000000006
aF2.5209999999999999
aa(lp11
F-15.237
aF9.4731000000000005
aF2.5215000000000001
aa(lp12
F-15.221
aF9.5256000000000007
aF2.5234999999999999
aa(lp13
F-15.206
aF9.5754999999999999
aF2.5253999999999999
aa(lp14
F-15.175000000000001
aF9.6195000000000004
aF2.5251999999999999
aa(lp15
F-15.164
aF9.6677
aF2.5274000000000001
aa(lp16
F-15.145
aF9.7190999999999992
aF2.5291000000000001
aa(lp17
F-15.119
aF9.7660999999999998
aF2.5295999999999998
aa(lp18
F-15.102
aF9.8222000000000005
aF2.5318000000000001
aa(lp19
F-15.083
aF9.8697999999999997
aF2.5331999999999999
aa(lp20
F-15.06
aF9.9151000000000007
aF2.5341
aa(lp21
F-15.039
aF9.9614999999999991
aF2.5352000000000001
aa(lp22
F-15.013999999999999
aF10.006
aF2.5356999999999998
aa(lp23
F-14.993
aF10.055999999999999
aF2.5371000000000001
aa(lp24
F-14.964
aF10.105
aF2.5377000000000001
aa(lp25
F-14.880000000000001
aF10.109
aF2.5282
aa(lp26
F-14.895
aF10.249000000000001
aF2.5409999999999999
aa(lp27
F-14.896000000000001
aF10.307
aF2.5457999999999998
aa(lp28
F-14.865
aF10.355
aF2.5459999999999998
aa(lp29
F-14.846
aF10.403
aF2.5476999999999999
aa(lp30
F-14.833
aF10.456
aF2.5505
aa(lp31
F-14.803000000000001
aF10.505000000000001
aF2.5510000000000002
aa(lp32
F-14.785
aF10.550000000000001
aF2.5527000000000002
aa(lp33
F-14.77
aF10.609
aF2.5558000000000001
aa(lp34
F-14.747
aF10.654999999999999
aF2.5569000000000002
aa(lp35
F-14.728999999999999
aF10.709
aF2.5594000000000001
aa(lp36
F-14.707000000000001
aF10.76
aF2.5611000000000002
aa(lp37
F-14.683
aF10.805999999999999
aF2.5621999999999998
aa(lp38
F-14.664
aF10.855
aF2.5640999999999998
aa(lp39
F-14.645
aF10.904
aF2.5661
aa(lp40
F-14.625
aF10.957000000000001
aF2.5682999999999998
aa(lp41
F-14.6
aF11.01
aF2.5699999999999998
aa(lp42
F-14.571
aF11.055999999999999
aF2.5705
aa(lp43
F-14.555
aF11.1
aF2.5724999999999998
aa(lp44
F-14.528
aF11.151
aF2.5739000000000001
aa(lp45
F-14.516999999999999
aF11.208
aF2.5775000000000001
aa(lp46
F-14.481999999999999
aF11.249000000000001
aF2.5771999999999999
aa(lp47
F-14.324
aF11.191000000000001
aF2.5547
aa(lp48
F-14.348000000000001
aF11.282999999999999
aF2.5651999999999999
aa(lp49
F-14.423999999999999
aF11.404
aF2.5842000000000001
aaa(lp50
(lp51
F-15.106999999999999
aF9.3924000000000003
aF2.0802999999999998
aa(lp52
F-15.090999999999999
aF9.4444999999999997
aF2.0819000000000001
aa(lp53
F-15.07
aF9.4898000000000007
aF2.0825999999999998
aa(lp54
F-15.045999999999999
aF9.5376999999999992
aF2.0832999999999999
aa(lp55
F-15.025
aF9.5792000000000002
aF2.0836999999999999
aa(lp56
F-15.013
aF9.6343999999999994
aF2.0861000000000001
aa(lp57
F-14.984
aF9.6789000000000005
aF2.0861000000000001
aa(lp58
F-14.967000000000001
aF9.7346000000000004
aF2.0878999999999999
aa(lp59
F-14.942
aF9.7774999999999999
aF2.0882000000000001
aa(lp60
F-14.919
aF9.8224
aF2.0889000000000002
aa(lp61
F-14.903
aF9.8717000000000006
aF2.0905
aa(lp62
F-14.882
aF9.9177
aF2.0914000000000001
aa(lp63
F-14.866
aF9.9707000000000008
aF2.0933000000000002
aa(lp64
F-14.837999999999999
aF10.02
aF2.0937000000000001
aa(lp65
F-14.826000000000001
aF10.071999999999999
aF2.0960999999999999
aa(lp66
F-14.785
aF10.105
aF2.0941999999999998
aa(lp67
F-14.781000000000001
aF10.17
aF2.0981000000000001
aa(lp68
F-14.756
aF10.210000000000001
aF2.0983999999999998
aa(lp69
F-14.731999999999999
aF10.262
aF2.0994999999999999
aa(lp70
F-14.726000000000001
aF10.319000000000001
aF2.1027999999999998
aa(lp71
F-14.692
aF10.356999999999999
aF2.1021000000000001
aa(lp72
F-14.673
aF10.412000000000001
aF2.1040000000000001
aa(lp73
F-14.654999999999999
aF10.457000000000001
aF2.1053000000000002
aa(lp74
F-14.630000000000001
aF10.509
aF2.1065
aa(lp75
F-14.612
aF10.558
aF2.1080999999999999
aa(lp76
F-14.595000000000001
aF10.612
aF2.1101999999999999
aa(lp77
F-14.567
aF10.657
aF2.1107
aa(lp78
F-14.551
aF10.709
aF2.1128
aa(lp79
F-14.525
aF10.750999999999999
aF2.1132
aa(lp80
F-14.509
aF10.803000000000001
aF2.1153
aa(lp81
F-14.483000000000001
aF10.85
aF2.1162999999999998
aa(lp82
F-14.458
aF10.903
aF2.1177000000000001
aa(lp83
F-14.442
aF10.958
aF2.1200000000000001
aa(lp84
F-14.420999999999999
aF10.997999999999999
aF2.1208999999999998
aa(lp85
F-14.395
aF11.048999999999999
aF2.1221000000000001
aa(lp86
F-14.375
aF11.098000000000001
aF2.1236999999999999
aa(lp87
F-14.34
aF11.138999999999999
aF2.1234999999999999
aa(lp88
F-14.303000000000001
aF11.247999999999999
aF2.1278999999999999
aa(lp89
F-14.282999999999999
aF11.292
aF2.1293000000000002
aaa(lp90
(lp91
F-14.042999999999999
aF11.994
aF1.7230000000000001
aa(lp92
F-14.026
aF12.047000000000001
aF1.7250000000000001
aa(lp93
F-13.996
aF12.098000000000001
aF1.7259
aa(lp94
F-13.983000000000001
aF12.154999999999999
aF1.7284999999999999
aa(lp95
F-13.962
aF12.206
aF1.7302
aa(lp96
F-13.928000000000001
aF12.254
aF1.7307999999999999
aaa(lp97
(lp98
F-15.125
aF9.3412000000000006
aF1.6585000000000001
aa(lp99
F-15.095000000000001
aF9.3849999999999998
aF1.6583000000000001
aa(lp100
F-15.079000000000001
aF9.4370999999999992
aF1.6596
aa(lp101
F-15.058
aF9.4824000000000002
aF1.6601999999999999
aa(lp102
F-15.041
aF9.5344999999999995
aF1.6615
aa(lp103
F-15.026
aF9.5802999999999994
aF1.6626000000000001
aa(lp104
F-15.003
aF9.6280000000000001
aF1.6631
aa(lp105
F-14.981
aF9.6768000000000001
aF1.6638999999999999
aa(lp106
F-14.957000000000001
aF9.7281999999999993
aF1.6646000000000001
aa(lp107
F-14.938000000000001
aF9.7753999999999994
aF1.6656
aa(lp108
F-14.920999999999999
aF9.8236000000000008
aF1.6667000000000001
aa(lp109
F-14.895
aF9.8663000000000007
aF1.6669
aa(lp110
F-14.877000000000001
aF9.9145000000000003
aF1.6679999999999999
aa(lp111
F-14.859999999999999
aF9.9664000000000001
aF1.6693
aa(lp112
F-14.827999999999999
aF10.013
aF1.6693
aa(lp113
F-14.813000000000001
aF10.063000000000001
aF1.6708000000000001
aa(lp114
F-14.782
aF10.102
aF1.6704000000000001
aa(lp115
F-14.771000000000001
aF10.163
aF1.6728000000000001
aa(lp116
F-14.750999999999999
aF10.207000000000001
aF1.6735
aa(lp117
F-14.728999999999999
aF10.26
aF1.6747000000000001
aa(lp118
F-14.708
aF10.307
aF1.6756
aa(lp119
F-14.683
aF10.35
aF1.6759999999999999
aa(lp120
F-14.664999999999999
aF10.406000000000001
aF1.6776
aa(lp121
F-14.654
aF10.456
aF1.6795
aa(lp122
F-14.621
aF10.502000000000001
aF1.6795
aa(lp123
F-14.601000000000001
aF10.550000000000001
aF1.6806000000000001
aa(lp124
F-14.579000000000001
aF10.6
aF1.6817
aa(lp125
F-14.550000000000001
aF10.645
aF1.6819
aa(lp126
F-14.531000000000001
aF10.694000000000001
aF1.6832
aa(lp127
F-14.512
aF10.742000000000001
aF1.6845000000000001
aa(lp128
F-14.497999999999999
aF10.795
aF1.6863999999999999
aa(lp129
F-14.477
aF10.846
aF1.6877
aa(lp130
F-14.446
aF10.894
aF1.6879999999999999
aa(lp131
F-14.425000000000001
aF10.945
aF1.6893
aa(lp132
F-14.422000000000001
aF10.999000000000001
aF1.6920999999999999
aa(lp133
F-14.401999999999999
aF11.055
aF1.6938
aa(lp134
F-14.377000000000001
aF11.1
aF1.6944999999999999
aa(lp135
F-14.353
aF11.15
aF1.6956
aa(lp136
F-14.324999999999999
aF11.192
aF1.696
aa(lp137
F-14.298999999999999
aF11.244
aF1.6971000000000001
aa(lp138
F-14.292999999999999
aF11.300000000000001
aF1.6999
aaa.