(lp1
(lp2
(lp3
F-4.5011999999999999
aF-3.1225999999999998
aF0.51109000000000004
aa(lp4
F-4.4851000000000001
aF-3.0722
aF0.50719000000000003
aa(lp5
F-4.4760999999999997
aF-3.0499999999999998
aF0.50532999999999995
aa(lp6
F-4.4577
aF-3.0169000000000001
aF0.50217000000000001
aa(lp7
F-4.4550000000000001
aF-2.9958999999999998
aF0.50087000000000004
aa(lp8
F-4.4467999999999996
aF-2.9723999999999999
aF0.49902000000000002
aa(lp9
F-4.4428999999999998
aF-2.9496000000000002
aF0.49752999999999997
aa(lp10
F-4.4344999999999999
aF-2.9262000000000001
aF0.49567
aa(lp11
F-4.4255000000000004
aF-2.9037000000000002
aF0.49381000000000003
aa(lp12
F-4.4161999999999999
aF-2.8778000000000001
aF0.49176999999999998
aa(lp13
F-4.4080000000000004
aF-2.8538999999999999
aF0.48991000000000001
aa(lp14
F-4.4042000000000003
aF-2.8340000000000001
aF0.48860999999999999
aa(lp15
F-4.3959000000000001
aF-2.8102
aF0.48675000000000002
aa(lp16
F-4.3822999999999999
aF-2.7833000000000001
aF0.48433999999999999
aa(lp17
F-4.3743999999999996
aF-2.7622
aF0.48266999999999999
aa(lp18
F-4.3724999999999996
aF-2.7429000000000001
aF0.48154999999999998
aa(lp19
F-4.3676000000000004
aF-2.7206999999999999
aF0.48007
aa(lp20
F-4.3577000000000004
aF-2.6987999999999999
aF0.47821000000000002
aa(lp21
F-4.3525999999999998
aF-2.6766999999999999
aF0.47671999999999998
aa(lp22
F-4.3476999999999997
aF-2.6579999999999999
aF0.47542000000000001
aa(lp23
F-4.3334999999999999
aF-2.6316999999999999
aF0.47300999999999999
aa(lp24
F-4.3310000000000004
aF-2.6126
aF0.47188999999999998
aa(lp25
F-4.3285
aF-2.5935999999999999
aF0.47077999999999998
aa(lp26
F-4.3169000000000004
aF-2.5703
aF0.46872999999999998
aa(lp27
F-4.3125
aF-2.5503999999999998
aF0.46743000000000001
aa(lp28
F-4.3007
aF-2.5272999999999999
aF0.46539000000000003
aa(lp29
F-4.2927
aF-2.5055000000000001
aF0.46372000000000002
aa(lp30
F-4.2897999999999996
aF-2.4866999999999999
aF0.46260000000000001
aa(lp31
F-4.2812000000000001
aF-2.4658000000000002
aF0.46093000000000001
aa(lp32
F-4.2751000000000001
aF-2.4443999999999999
aF0.45944000000000002
aa(lp33
F-4.2698
aF-2.4256000000000002
aF0.45813999999999999
aa(lp34
F-4.2634999999999996
aF-2.4043000000000001
aF0.45666000000000001
aa(lp35
F-4.2519999999999998
aF-2.3841999999999999
aF0.45479999999999998
aa(lp36
F-4.2473000000000001
aF-2.3639999999999999
aF0.45350000000000001
aa(lp37
F-4.2434000000000003
aF-2.3464
aF0.45238
aa(lp38
F-4.2385999999999999
aF-2.3262999999999998
aF0.45107999999999998
aa(lp39
F-4.2310999999999996
aF-2.3069000000000002
aF0.4496
aa(lp40
F-4.2234999999999996
aF-2.2873999999999999
aF0.44811000000000001
aa(lp41
F-4.218
aF-2.2683
aF0.44680999999999998
aa(lp42
F-4.2070999999999996
aF-2.2464
aF0.44495000000000001
aa(lp43
F-4.2011000000000003
aF-2.2281
aF0.44364999999999999
aa(lp44
F-4.1985000000000001
aF-2.2117
aF0.44272
aa(lp45
F-4.1923000000000004
aF-2.1934999999999998
aF0.44141999999999998
aa(lp46
F-4.1849999999999996
aF-2.173
aF0.43994
aa(lp47
F-4.1768999999999998
aF-2.1539999999999999
aF0.43845000000000001
aa(lp48
F-4.1687000000000003
aF-2.1351
aF0.43696000000000002
aa(lp49
F-4.1616
aF-2.1139999999999999
aF0.43547999999999998
aa(lp50
F-4.1585999999999999
aF-2.0979000000000001
aF0.43454999999999999
aa(lp51
F-4.1551
aF-2.0825999999999998
aF0.43362000000000001
aa(lp52
F-4.1492000000000004
aF-2.0632999999999999
aF0.43231999999999998
aa(lp53
F-4.1421000000000001
aF-2.0461999999999998
aF0.43102000000000001
aa(lp54
F-4.1376999999999997
aF-2.028
aF0.4299
aa(lp55
F-4.1344000000000003
aF-2.012
aF0.42897000000000002
aa(lp56
F-4.1281999999999996
aF-1.9930000000000001
aF0.42766999999999999
aa(lp57
F-4.1230000000000002
aF-1.9762999999999999
aF0.42655999999999999
aa(lp58
F-4.1177000000000001
aF-1.9596
aF0.42544999999999999
aa(lp59
F-4.1055000000000001
aF-1.9389000000000001
aF0.42359000000000002
aa(lp60
F-4.1003999999999996
aF-1.9216
aF0.42247000000000001
aa(lp61
F-4.0930999999999997
aF-1.9043000000000001
aF0.42116999999999999
aa(lp62
F-4.0896999999999997
aF-1.8879999999999999
aF0.42024
aa(lp63
F-4.0843999999999996
aF-1.8709
aF0.41913
aa(lp64
F-4.0754000000000001
aF-1.8521000000000001
aF0.41764000000000001
aa(lp65
F-4.0712000000000002
aF-1.8373999999999999
aF0.41671000000000002
aa(lp66
F-4.0621
aF-1.8188
aF0.41522999999999999
aa(lp67
F-4.0529000000000002
aF-1.8002
aF0.41374
aa(lp68
F-4.0509000000000004
aF-1.7849999999999999
aF0.41299999999999998
aa(lp69
F-4.0507
aF-1.7706
aF0.41243999999999997
aa(lp70
F-4.0444000000000004
aF-1.7552000000000001
aF0.41132999999999997
aa(lp71
F-4.0426000000000002
aF-1.7393000000000001
aF0.41058
aa(lp72
F-4.0343
aF-1.7233000000000001
aF0.40927999999999998
aa(lp73
F-4.0317999999999996
aF-1.7089000000000001
aF0.40854000000000001
aa(lp74
F-4.0243000000000002
aF-1.6908000000000001
aF0.40723999999999999
aa(lp75
F-4.0160999999999998
aF-1.6741999999999999
aF0.40594000000000002
aa(lp76
F-4.0096999999999996
aF-1.6584000000000001
aF0.40482000000000001
aa(lp77
F-4.0057
aF-1.6419999999999999
aF0.40389000000000003
aa(lp78
F-4.0012999999999996
aF-1.6264000000000001
aF0.40296999999999999
aa(lp79
F-3.9948000000000001
aF-1.6108
aF0.40184999999999998
aa(lp80
F-3.9958
aF-1.5973999999999999
aF0.40148
aa(lp81
F-3.9857999999999998
aF-1.5797000000000001
aF0.39999000000000001
aa(lp82
F-3.9824999999999999
aF-1.5663
aF0.39924999999999999
aa(lp83
F-3.9777999999999998
aF-1.5508999999999999
aF0.39832000000000001
aa(lp84
F-3.9731000000000001
aF-1.5355000000000001
aF0.39739000000000002
aa(lp85
F-3.9664999999999999
aF-1.5194000000000001
aF0.39628000000000002
aa(lp86
F-3.9598
aF-1.5034000000000001
aF0.39516000000000001
aaa(lp87
(lp88
F-4.4949000000000003
aF-3.1181999999999999
aF0.38253999999999999
aa(lp89
F-4.4722
aF-3.0632999999999999
aF0.37906000000000001
aa(lp90
F-4.4599000000000002
aF-3.0388999999999999
aF0.37737999999999999
aa(lp91
F-4.4512
aF-3.0125999999999999
aF0.37585000000000002
aa(lp92
F-4.4420000000000002
aF-2.9870999999999999
aF0.37430999999999998
aa(lp93
F-4.4386999999999999
aF-2.9668999999999999
aF0.37334000000000001
aa(lp94
F-4.4297000000000004
aF-2.9407999999999999
aF0.37180000000000002
aa(lp95
F-4.4196
aF-2.9163999999999999
aF0.37026999999999999
aa(lp96
F-4.4071999999999996
aF-2.8917000000000002
aF0.36858999999999997
aa(lp97
F-4.4028999999999998
aF-2.8691
aF0.36747999999999997
aa(lp98
F-4.3945999999999996
aF-2.8452000000000002
aF0.36608000000000002
aa(lp99
F-4.3891
aF-2.8241999999999998
aF0.36497000000000002
aa(lp100
F-4.3789999999999996
aF-2.7993999999999999
aF0.36342999999999998
aa(lp101
F-4.3654000000000002
aF-2.7725
aF0.36162
aa(lp102
F-4.3658999999999999
aF-2.7568000000000001
aF0.36105999999999999
aa(lp103
F-4.3639000000000001
aF-2.7374999999999998
aF0.36021999999999998
aa(lp104
F-4.3589000000000002
aF-2.7153
aF0.35910999999999998
aa(lp105
F-4.3490000000000002
aF-2.6934
aF0.35770999999999997
aa(lp106
F-4.3422000000000001
aF-2.6703000000000001
aF0.35646
aa(lp107
F-4.3320999999999996
aF-2.6484999999999999
aF0.35505999999999999
aa(lp108
F-4.3212000000000002
aF-2.6242000000000001
aF0.35353000000000001
aa(lp109
F-4.3170000000000002
aF-2.6042000000000001
aF0.35254999999999997
aa(lp110
F-4.3109999999999999
aF-2.5832000000000002
aF0.35143000000000002
aa(lp111
F-4.3061999999999996
aF-2.5640000000000001
aF0.35045999999999999
aa(lp112
F-4.2949000000000002
aF-2.54
aF0.34892000000000001
aa(lp113
F-4.2882999999999996
aF-2.5198999999999998
aF0.34781000000000001
aa(lp114
F-4.2836999999999996
aF-2.5002
aF0.34683000000000003
aa(lp115
F-4.2771999999999997
aF-2.4794
aF0.34571000000000002
aa(lp116
F-4.2755000000000001
aF-2.4624999999999999
aF0.34501999999999999
aa(lp117
F-4.2675999999999998
aF-2.4401000000000002
aF0.34376000000000001
aa(lp118
F-4.2571000000000003
aF-2.4184000000000001
aF0.34236
aa(lp119
F-4.2473000000000001
aF-2.3952
aF0.34097
aa(lp120
F-4.2392000000000003
aF-2.3769999999999998
aF0.33984999999999999
aa(lp121
F-4.2362000000000002
aF-2.3578000000000001
aF0.33901999999999999
aa(lp122
F-4.2323000000000004
aF-2.3401999999999998
aF0.33817999999999998
aa(lp123
F-4.2221000000000002
aF-2.3172999999999999
aF0.33678000000000002
aa(lp124
F-4.2215999999999996
aF-2.3016999999999999
aF0.33622999999999997
aa(lp125
F-4.2069000000000001
aF-2.2785000000000002
aF0.33455000000000001
aa(lp126
F-4.2013999999999996
aF-2.2593999999999999
aF0.33357999999999999
aa(lp127
F-4.1957000000000004
aF-2.2403
aF0.33260000000000001
aa(lp128
F-4.1932
aF-2.2239
aF0.33189999999999997
aa(lp129
F-4.1887999999999996
aF-2.2065999999999999
aF0.33106000000000002
aa(lp130
F-4.1807999999999996
aF-2.1875
aF0.32995000000000002
aa(lp131
F-4.1734999999999998
aF-2.1669999999999998
aF0.32883000000000001
aa(lp132
F-4.1653000000000002
aF-2.1480000000000001
aF0.32772000000000001
aa(lp133
F-4.1623999999999999
aF-2.1318000000000001
aF0.32701999999999998
aa(lp134
F-4.1534000000000004
aF-2.1099000000000001
aF0.32575999999999999
aa(lp135
F-4.1468999999999996
aF-2.0920000000000001
aF0.32479000000000002
aa(lp136
F-4.1433999999999997
aF-2.0767000000000002
aF0.32408999999999999
aa(lp137
F-4.1391999999999998
aF-2.0583
aF0.32324999999999998
aa(lp138
F-4.1266999999999996
aF-2.0386000000000002
aF0.32185999999999998
aa(lp139
F-4.1204999999999998
aF-2.0194999999999999
aF0.32088
aa(lp140
F-4.1189999999999998
aF-2.0045000000000002
aF0.32031999999999999
aa(lp141
F-4.1127000000000002
aF-1.9855
aF0.31935000000000002
aa(lp142
F-4.1109999999999998
aF-1.9704999999999999
aF0.31879000000000002
aa(lp143
F-4.1021000000000001
aF-1.9521999999999999
aF0.31767000000000001
aa(lp144
F-4.0987999999999998
aF-1.9358
aF0.31696999999999997
aa(lp145
F-4.0937000000000001
aF-1.9185000000000001
aF0.31613999999999998
aa(lp146
F-4.0827999999999998
aF-1.8995
aF0.31487999999999999
aa(lp147
F-4.0792999999999999
aF-1.8832
aF0.31418000000000001
aa(lp148
F-4.0704000000000002
aF-1.8644000000000001
aF0.31307000000000001
aa(lp149
F-4.0686
aF-1.849
aF0.31251000000000001
aa(lp150
F-4.0589000000000004
aF-1.8318000000000001
aF0.31139
aa(lp151
F-4.0552000000000001
aF-1.8157000000000001
aF0.31069999999999998
aa(lp152
F-4.0514999999999999
aF-1.7996000000000001
aF0.31
aa(lp153
F-4.0422000000000002
aF-1.7810999999999999
aF0.30887999999999999
aa(lp154
F-4.0347
aF-1.7635000000000001
aF0.30791000000000002
aa(lp155
F-4.0301
aF-1.7490000000000001
aF0.30720999999999998
aa(lp156
F-4.0228000000000002
aF-1.7307999999999999
aF0.30623
aa(lp157
F-4.0198999999999998
aF-1.7171000000000001
aF0.30567
aa(lp158
F-4.0137
aF-1.7012
aF0.30484
aa(lp159
F-4.0190000000000001
aF-1.6886000000000001
aF0.30484
aa(lp160
F-4.0182000000000002
aF-1.6751
aF0.30442000000000002
aaa(lp161
(lp162
F-4.4977
aF-3.1202000000000001
aF0.25528000000000001
aa(lp163
F-4.4686000000000003
aF-3.0815000000000001
aF0.25313000000000002
aa(lp164
F-4.4749999999999996
aF-3.0651999999999999
aF0.25295000000000001
aa(lp165
F-4.4676
aF-3.0442
aF0.25211
aa(lp166
F-4.4523000000000001
aF-3.0133000000000001
aF0.25070999999999999
aa(lp167
F-4.4512999999999998
aF-2.9933999999999998
aF0.25014999999999998
aa(lp168
F-4.4429999999999996
aF-2.9698000000000002
aF0.24922
aa(lp169
F-4.4372999999999996
aF-2.9459
aF0.24837999999999999
aa(lp170
F-4.4305000000000003
aF-2.9236
aF0.24754000000000001
aa(lp171
F-4.4165000000000001
aF-2.8978000000000002
aF0.24632999999999999
aa(lp172
F-4.4088000000000003
aF-2.8730000000000002
aF0.24540000000000001
aa(lp173
F-4.4021999999999997
aF-2.8500999999999999
aF0.24456
aa(lp174
F-4.3967000000000001
aF-2.8292000000000002
aF0.24382000000000001
aa(lp175
F-4.3865999999999996
aF-2.8043
aF0.24279000000000001
aa(lp176
F-4.3762999999999996
aF-2.7793999999999999
aF0.24177000000000001
aa(lp177
F-4.3734999999999999
aF-2.7616000000000001
aF0.24121000000000001
aa(lp178
F-4.3697999999999997
aF-2.7412000000000001
aF0.24056
aa(lp179
F-4.3631000000000002
aF-2.7179000000000002
aF0.23971999999999999
aa(lp180
F-4.3548999999999998
aF-2.6970000000000001
aF0.23888000000000001
aa(lp181
F-4.3446999999999996
aF-2.6718000000000002
aF0.23785000000000001
aa(lp182
F-4.3346
aF-2.6499999999999999
aF0.23691999999999999
aa(lp183
F-4.3288000000000002
aF-2.6288
aF0.23618
aa(lp184
F-4.3246000000000002
aF-2.6088
aF0.23552999999999999
aa(lp185
F-4.3169000000000004
aF-2.5867
aF0.23469000000000001
aa(lp186
F-4.3103999999999996
aF-2.5663999999999998
aF0.23394000000000001
aa(lp187
F-4.3025000000000002
aF-2.5445000000000002
aF0.2331
aa(lp188
F-4.2941000000000003
aF-2.5232999999999999
aF0.23225999999999999
aa(lp189
F-4.2929000000000004
aF-2.5055999999999998
aF0.23180000000000001
aa(lp190
F-4.2847999999999997
aF-2.4838
aF0.23096
aa(lp191
F-4.2760999999999996
aF-2.4628000000000001
aF0.23011999999999999
aa(lp192
F-4.2717000000000001
aF-2.4424999999999999
aF0.22947000000000001
aa(lp193
F-4.2645999999999997
aF-2.4226000000000001
aF0.22872000000000001
aa(lp194
F-4.2548000000000004
aF-2.3994
aF0.22778999999999999
aa(lp195
F-4.2449000000000003
aF-2.3801999999999999
aF0.22695000000000001
aa(lp196
F-4.2401999999999997
aF-2.3601000000000001
aF0.2263
aa(lp197
F-4.2328000000000001
aF-2.3405
aF0.22556000000000001
aa(lp198
F-4.2278000000000002
aF-2.3203999999999998
aF0.22489999999999999
aa(lp199
F-4.2220000000000004
aF-2.3018999999999998
aF0.22425
aa(lp200
F-4.2073999999999998
aF-2.2787000000000002
aF0.22313
aa(lp201
F-4.2035
aF-2.2605
aF0.22258
aa(lp202
F-4.1978999999999997
aF-2.2414999999999998
aF0.22192000000000001
aa(lp203
F-4.1935000000000002
aF-2.2241
aF0.22136
aa(lp204
F-4.1837999999999997
aF-2.2040000000000002
aF0.22053
aa(lp205
F-4.1776
aF-2.1858
aF0.21987000000000001
aa(lp206
F-4.1738
aF-2.1671999999999998
aF0.21931
aa(lp207
F-4.1656000000000004
aF-2.1482000000000001
aF0.21856999999999999
aa(lp208
F-4.1574
aF-2.1293000000000002
aF0.21782000000000001
aa(lp209
F-4.1519000000000004
aF-2.1091000000000002
aF0.21717
aa(lp210
F-4.1506999999999996
aF-2.0939000000000001
aF0.21679999999999999
aa(lp211
F-4.1454000000000004
aF-2.0777000000000001
aF0.21623999999999999
aa(lp212
F-4.1412000000000004
aF-2.0592999999999999
aF0.21568000000000001
aa(lp213
F-4.1375999999999999
aF-2.044
aF0.21521999999999999
aa(lp214
F-4.1315
aF-2.0249000000000001
aF0.21456
aa(lp215
F-4.1317000000000004
aF-2.0106999999999999
aF0.21428
aa(lp216
F-4.1200000000000001
aF-1.9890000000000001
aF0.21335000000000001
aa(lp217
F-4.1184000000000003
aF-1.9741
aF0.21298
aa(lp218
F-4.1058000000000003
aF-1.954
aF0.21204999999999999
aa(lp219
F-4.0880999999999998
aF-1.9307000000000001
aF0.21084
aaa(lp220
(lp221
F-4.4802999999999997
aF-3.0689000000000002
aF0.12608
aa(lp222
F-4.4679000000000002
aF-3.0444
aF0.12551999999999999
aa(lp223
F-4.4641999999999999
aF-3.0213999999999999
aF0.12515000000000001
aa(lp224
F-4.4532999999999996
aF-2.9946999999999999
aF0.1246
aa(lp225
F-4.4500000000000002
aF-2.9744999999999999
aF0.12427000000000001
aa(lp226
F-4.4443000000000001
aF-2.9506000000000001
aF0.12385
aa(lp227
F-4.4341999999999997
aF-2.9260000000000002
aF0.12334000000000001
aa(lp228
F-4.4268000000000001
aF-2.9045000000000001
aF0.12292
aa(lp229
F-4.4207999999999998
aF-2.8807999999999998
aF0.12250999999999999
aa(lp230
F-4.4092000000000002
aF-2.8546
aF0.12195
aa(lp231
F-4.4020000000000001
aF-2.8325
aF0.12153
aa(lp232
F-4.3952
aF-2.8098000000000001
aF0.12111
aa(lp233
F-4.3899999999999997
aF-2.7881999999999998
aF0.12074
aa(lp234
F-4.3803999999999998
aF-2.766
aF0.12028
aa(lp235
F-4.3734000000000002
aF-2.7433999999999998
aF0.11985999999999999
aa(lp236
F-4.3632999999999997
aF-2.718
aF0.11935
aa(lp237
F-4.3585000000000003
aF-2.6991999999999998
aF0.11902
aa(lp238
F-4.3498999999999999
aF-2.6749999999999998
aF0.11856
aa(lp239
F-4.3433000000000002
aF-2.6553
aF0.11819
aa(lp240
F-4.3357000000000001
aF-2.6331000000000002
aF0.11777
aa(lp241
F-4.3297999999999996
aF-2.6118999999999999
aF0.1174
aa(lp242
F-4.3220999999999998
aF-2.5897999999999999
aF0.11698
aa(lp243
F-4.3173000000000004
aF-2.5706000000000002
aF0.11666
aa(lp244
F-4.3094000000000001
aF-2.5486
aF0.11624
aa(lp245
F-4.3045
aF-2.5295000000000001
aF0.11591
aa(lp246
F-4.2930000000000001
aF-2.5055999999999998
aF0.1154
aa(lp247
F-4.2847999999999997
aF-2.4838
aF0.11498999999999999
aa(lp248
F-4.2744
aF-2.4619
aF0.11452
aa(lp249
F-4.2717000000000001
aF-2.4424999999999999
aF0.11423999999999999
aa(lp250
F-4.2663000000000002
aF-2.4236
aF0.11391999999999999
aa(lp251
F-4.2617000000000003
aF-2.4033000000000002
aF0.11359
aa(lp252
F-4.2571000000000003
aF-2.387
aF0.11332
aa(lp253
F-4.2470999999999997
aF-2.3639000000000001
aF0.11285000000000001
aa(lp254
F-4.2362000000000002
aF-2.3424
aF0.11239
aa(lp255
F-4.2347999999999999
aF-2.3243
aF0.11215
aa(lp256
F-4.2271999999999998
aF-2.3048000000000002
aF0.11178
aa(lp257
F-4.2248999999999999
aF-2.2881999999999998
aF0.11155
aa(lp258
F-4.2192999999999996
aF-2.2690000000000001
aF0.11123
aa(lp259
F-4.2084000000000001
aF-2.2471000000000001
aF0.11076
aa(lp260
F-4.2023000000000001
aF-2.2286999999999999
aF0.11044
aa(lp261
F-4.1925999999999997
aF-2.2086000000000001
aF0.11002000000000001
aa(lp262
F-4.1898
aF-2.1922999999999999
aF0.10979
aa(lp263
F-4.1860999999999997
aF-2.1736
aF0.10951
aa(lp264
F-4.1760999999999999
aF-2.1536
aF0.10909000000000001
aa(lp265
F-4.1714000000000002
aF-2.1364999999999998
aF0.10881
aa(lp266
F-4.1642000000000001
aF-2.1154000000000002
aF0.10843999999999999
aa(lp267
F-4.1593999999999998
aF-2.0983000000000001
aF0.10816000000000001
aa(lp268
F-4.1524000000000001
aF-2.0811999999999999
aF0.10784000000000001
aa(lp269
F-4.1321000000000003
aF-2.0548000000000002
aF0.10714
aaa(lp270
(lp271
F-4.4800000000000004
aF-3.0893999999999999
aF0
aa(lp272
F-4.4798
aF-3.0686
aF0
aa(lp273
F-4.4707999999999997
aF-3.0463
aF0
aa(lp274
F-4.4621000000000004
aF-3.0198999999999998
aF0
aa(lp275
F-4.4593999999999996
aF-2.9988999999999999
aF0
aa(lp276
F-4.4462000000000002
aF-2.972
aF0
aa(lp277
F-4.4421999999999997
aF-2.9491000000000001
aF0
aa(lp278
F-4.4320000000000004
aF-2.9245999999999999
aF0
aa(lp279
F-4.4229000000000003
aF-2.9020000000000001
aF0
aa(lp280
F-4.4237000000000002
aF-2.8826000000000001
aF0
aa(lp281
F-4.4154
aF-2.8586
aF0
aa(lp282
F-4.3997999999999999
aF-2.8311000000000002
aF0
aa(lp283
F-4.4015000000000004
aF-2.8138000000000001
aF0
aa(lp284
F-4.3845000000000001
aF-2.7846000000000002
aF0
aa(lp285
F-4.3747999999999996
aF-2.7624
aF0
aa(lp286
F-4.3711000000000002
aF-2.742
aF0
aa(lp287
F-4.3611000000000004
aF-2.7166000000000001
aF0
aa(lp288
F-4.3512000000000004
aF-2.6947000000000001
aF0
aa(lp289
F-4.3528000000000002
aF-2.6768000000000001
aF0
aa(lp290
F-4.3460999999999999
aF-2.6570999999999998
aF0
aa(lp291
F-4.3385999999999996
aF-2.6347999999999998
aF0
aa(lp292
F-4.3343999999999996
aF-2.6147
aF0
aa(lp293
F-4.3198999999999996
aF-2.5884999999999998
aF0
aa(lp294
F-4.3201999999999998
aF-2.5722999999999998
aF0
aa(lp295
F-4.3071999999999999
aF-2.5472000000000001
aF0
aa(lp296
F-4.2900999999999998
aF-2.5209999999999999
aF0
aa(lp297
F-4.2888999999999999
aF-2.5032000000000001
aF0
aa(lp298
F-4.2842000000000002
aF-2.4834999999999998
aF0
aa(lp299
F-4.2755999999999998
aF-2.4624999999999999
aF0
aa(lp300
F-4.2763
aF-2.4451000000000001
aF0
aa(lp301
F-4.2691999999999997
aF-2.4253
aF0
aa(lp302
F-4.2576999999999998
aF-2.4009999999999998
aF0
aa(lp303
F-4.2512999999999996
aF-2.3837999999999999
aF0
aa(lp304
F-4.2447999999999997
aF-2.3626
aF0
aa(lp305
F-4.2443999999999997
aF-2.3469000000000002
aF0
aa(lp306
F-4.2359
aF-2.3249
aF0
aa(lp307
F-4.2230999999999996
aF-2.3025000000000002
aF0
aa(lp308
F-4.2137000000000002
aF-2.2820999999999998
aF0
aa(lp309
F-4.2099000000000002
aF-2.2639
aF0
aa(lp310
F-4.2060000000000004
aF-2.2458
aF0
aa(lp311
F-4.1981000000000002
aF-2.2265000000000001
aF0
aa(lp312
F-4.1901000000000002
aF-2.2073
aF0
aa(lp313
F-4.1839000000000004
aF-2.1890999999999998
aF0
aa(lp314
F-4.1818999999999997
aF-2.1714000000000002
aF0
aa(lp315
F-4.1755000000000004
aF-2.1533000000000002
aF0
aa(lp316
F-4.1600999999999999
aF-2.1307
aF0
aa(lp317
F-4.1421999999999999
aF-2.1042000000000001
aF0
aaa(lp318
(lp319
F-4.5113000000000003
aF-3.1295999999999999
aF-0.12747
aa(lp320
F-4.4886999999999997
aF-3.0954000000000002
aF-0.12659000000000001
aa(lp321
F-4.4802999999999997
aF-3.0689000000000002
aF-0.12608
aa(lp322
F-4.4711999999999996
aF-3.0466000000000002
aF-0.12562000000000001
aa(lp323
F-4.4626000000000001
aF-3.0203000000000002
aF-0.12511
aa(lp324
F-4.4565999999999999
aF-2.9969999999999999
aF-0.12469
aa(lp325
F-4.4516
aF-2.9756
aF-0.12432
aa(lp326
F-4.4425999999999997
aF-2.9493999999999998
aF-0.12381
aa(lp327
F-4.4325000000000001
aF-2.9249000000000001
aF-0.12330000000000001
aa(lp328
F-4.4234
aF-2.9022999999999999
aF-0.12282999999999999
aa(lp329
F-4.4173999999999998
aF-2.8786
aF-0.12241
aa(lp330
F-4.4124999999999996
aF-2.8567999999999998
aF-0.12204
aa(lp331
F-4.4020000000000001
aF-2.8325
aF-0.12153
aa(lp332
F-4.3968999999999996
aF-2.8109000000000002
aF-0.12116
aa(lp333
F-4.3867000000000003
aF-2.786
aF-0.12064999999999999
aa(lp334
F-4.3737000000000004
aF-2.7616999999999998
aF-0.12009
aa(lp335
F-4.3716999999999997
aF-2.7423000000000002
aF-0.11981
aa(lp336
F-4.3666999999999998
aF-2.7201
aF-0.11944
aa(lp337
F-4.3585000000000003
aF-2.6991999999999998
aF-0.11902
aa(lp338
F-4.3550000000000004
aF-2.6781999999999999
aF-0.1187
aa(lp339
F-4.3433000000000002
aF-2.6553
aF-0.11819
aa(lp340
F-4.3357000000000001
aF-2.6331000000000002
aF-0.11777
aa(lp341
F-4.3315000000000001
aF-2.613
aF-0.11745
aa(lp342
F-4.3255999999999997
aF-2.5918999999999999
aF-0.11708
aa(lp343
F-4.3121999999999998
aF-2.5674999999999999
aF-0.11652
aa(lp344
F-4.3094000000000001
aF-2.5486
aF-0.11624
aa(lp345
F-4.2992999999999997
aF-2.5264000000000002
aF-0.11577999999999999
aa(lp346
F-4.2911999999999999
aF-2.5045999999999999
aF-0.11536
aa(lp347
F-4.2847999999999997
aF-2.4838
aF-0.11498999999999999
aa(lp348
F-4.2760999999999996
aF-2.4628999999999999
aF-0.11457000000000001
aa(lp349
F-4.2682000000000002
aF-2.4405000000000001
aF-0.11415
aa(lp350
F-4.2629000000000001
aF-2.4216000000000002
aF-0.11383
aa(lp351
F-4.2582000000000004
aF-2.4014000000000002
aF-0.1135
aa(lp352
F-4.2502000000000004
aF-2.3831000000000002
aF-0.11312999999999999
aa(lp353
F-4.2470999999999997
aF-2.3639000000000001
aF-0.11285000000000001
aa(lp354
F-4.2362000000000002
aF-2.3424
aF-0.11239
aa(lp355
F-4.2313000000000001
aF-2.3222999999999998
aF-0.11206000000000001
aa(lp356
F-4.2306999999999997
aF-2.3067000000000002
aF-0.11187999999999999
aa(lp357
F-4.2213000000000003
aF-2.2863000000000002
aF-0.11146
aa(lp358
F-4.2122999999999999
aF-2.2652000000000001
aF-0.11104
aa(lp359
F-4.2047999999999996
aF-2.2452000000000001
aF-0.11067
aa(lp360
F-4.2004999999999999
aF-2.2277999999999998
aF-0.11039
aa(lp361
F-4.1925999999999997
aF-2.2086000000000001
aF-0.11002000000000001
aa(lp362
F-4.1881000000000004
aF-2.1913
aF-0.10974
aa(lp363
F-4.1825000000000001
aF-2.1717
aF-0.10942
aa(lp364
F-4.1744000000000003
aF-2.1526999999999998
aF-0.10904
aaa(lp365
(lp366
F-4.4686000000000003
aF-3.0815000000000001
aF-0.25313000000000002
aa(lp367
F-4.4717000000000002
aF-3.0630000000000002
aF-0.25275999999999998
aa(lp368
F-4.4592999999999998
aF-3.0385
aF-0.25163999999999997
aa(lp369
F-4.4489999999999998
aF-3.0110999999999999
aF-0.25052999999999997
aa(lp370
F-4.4413
aF-2.9866999999999999
aF-0.24959000000000001
aa(lp371
F-4.4397000000000002
aF-2.9676
aF-0.24904000000000001
aa(lp372
F-4.4306999999999999
aF-2.9415
aF-0.24801000000000001
aa(lp373
F-4.4204999999999997
aF-2.9169999999999998
aF-0.24698999999999999
aa(lp374
F-4.4115000000000002
aF-2.8944999999999999
aF-0.24604999999999999
aa(lp375
F-4.4004000000000003
aF-2.8675000000000002
aF-0.24493999999999999
aa(lp376
F-4.3989000000000003
aF-2.8479000000000001
aF-0.24437999999999999
aa(lp377
F-4.3899999999999997
aF-2.8248000000000002
aF-0.24343999999999999
aa(lp378
F-4.3849
aF-2.8031999999999999
aF-0.2427
aa(lp379
F-4.3762999999999996
aF-2.7793999999999999
aF-0.24177000000000001
aa(lp380
F-4.3684000000000003
aF-2.7584
aF-0.24093000000000001
aa(lp381
F-4.3596000000000004
aF-2.7347999999999999
aF-0.23999999999999999
aa(lp382
F-4.3529
aF-2.7115999999999998
aF-0.23916000000000001
aa(lp383
F-4.3464
aF-2.6918000000000002
aF-0.23841000000000001
aa(lp384
F-4.343
aF-2.6707999999999998
aF-0.23776
aa(lp385
F-4.3329000000000004
aF-2.649
aF-0.23683000000000001
aa(lp386
F-4.3219000000000003
aF-2.6246999999999998
aF-0.23580999999999999
aa(lp387
F-4.3194999999999997
aF-2.6057000000000001
aF-0.23524999999999999
aa(lp388
F-4.3066000000000004
aF-2.5804999999999998
aF-0.23413
aa(lp389
F-4.3018000000000001
aF-2.5613000000000001
aF-0.23347999999999999
aa(lp390
F-4.2990000000000004
aF-2.5424000000000002
aF-0.23291999999999999
aa(lp391
F-4.2906000000000004
aF-2.5213000000000001
aF-0.23208000000000001
aa(lp392
F-4.2895000000000003
aF-2.5034999999999998
aF-0.23161000000000001
aa(lp393
F-4.2778999999999998
aF-2.4798
aF-0.23058999999999999
aa(lp394
F-4.2674000000000003
aF-2.4579
aF-0.22966
aa(lp395
F-4.2613000000000003
aF-2.4365000000000001
aF-0.22891
aa(lp396
F-4.2594000000000003
aF-2.4197000000000002
aF-0.22844999999999999
aa(lp397
F-4.2496
aF-2.3965000000000001
aF-0.22750999999999999
aa(lp398
F-4.2415000000000003
aF-2.3782000000000001
aF-0.22677
aa(lp399
F-4.2384000000000004
aF-2.3591000000000002
aF-0.22620999999999999
aa(lp400
F-4.2275
aF-2.3376000000000001
aF-0.22528000000000001
aa(lp401
F-4.2225999999999999
aF-2.3174999999999999
aF-0.22463
aa(lp402
F-4.2133000000000003
aF-2.2970999999999999
aF-0.22378999999999999
aa(lp403
F-4.2073999999999998
aF-2.2787000000000002
aF-0.22313
aa(lp404
F-4.2070999999999996
aF-2.2624
aF-0.22276000000000001
aa(lp405
F-4.1997
aF-2.2423999999999999
aF-0.22202
aa(lp406
F-4.1900000000000004
aF-2.2222
aF-0.22117999999999999
aaa.