(lp1
(lp2
(lp3
F-4.3041999999999998
aF-2.5790999999999999
aF-0.35088000000000003
aa(lp4
F-4.2995000000000001
aF-2.5245000000000002
aF-0.34864000000000001
aa(lp5
F-4.2965999999999998
aF-2.5057
aF-0.34781000000000001
aa(lp6
F-4.2880000000000003
aF-2.4847000000000001
aF-0.34655000000000002
aa(lp7
F-4.2793999999999999
aF-2.4636999999999998
aF-0.34528999999999999
aa(lp8
F-4.2694000000000001
aF-2.4411
aF-0.34389999999999998
aa(lp9
F-4.2644000000000002
aF-2.4216000000000002
aF-0.34292
aa(lp10
F-4.2599
aF-2.4013
aF-0.34194999999999998
aa(lp11
F-4.2534999999999998
aF-2.3839999999999999
aF-0.34097
aa(lp12
F-4.2484000000000002
aF-2.3645999999999998
aF-0.33999000000000001
aa(lp13
F-4.2362000000000002
aF-2.3414000000000001
aF-0.33845999999999998
aa(lp14
F-4.2309000000000001
aF-2.3220999999999998
aF-0.33748
aa(lp15
F-4.2215999999999996
aF-2.3016999999999999
aF-0.33622999999999997
aa(lp16
F-4.2195999999999998
aF-2.2844000000000002
aF-0.33552999999999999
aa(lp17
F-4.2137000000000002
aF-2.266
aF-0.33455000000000001
aa(lp18
F-4.2081
aF-2.2469000000000001
aF-0.33357999999999999
aa(lp19
F-4.2037000000000004
aF-2.2294999999999998
aF-0.33273999999999998
aa(lp20
F-4.1962000000000002
aF-2.2096
aF-0.33162000000000003
aa(lp21
F-4.1890000000000001
aF-2.1890000000000001
aF-0.33051000000000003
aa(lp22
F-4.1787999999999998
aF-2.1698
aF-0.32924999999999999
aa(lp23
F-4.1745000000000001
aF-2.1518999999999999
aF-0.32840999999999998
aa(lp24
F-4.1719999999999997
aF-2.1349
aF-0.32772000000000001
aa(lp25
F-4.1654999999999998
aF-2.117
aF-0.32673999999999997
aa(lp26
F-4.1578999999999997
aF-2.0966999999999998
aF-0.32562000000000002
aa(lp27
F-4.1529999999999996
aF-2.0796999999999999
aF-0.32479000000000002
aa(lp28
F-4.1448999999999998
aF-2.0602999999999998
aF-0.32367000000000001
aa(lp29
F-4.1378000000000004
aF-2.0432000000000001
aF-0.32268999999999998
aa(lp30
F-4.1313000000000004
aF-2.0247999999999999
aF-0.32172000000000001
aa(lp31
F-4.1300999999999997
aF-2.0089999999999999
aF-0.32116
aa(lp32
F-4.1212999999999997
aF-1.9904999999999999
aF-0.32003999999999999
aa(lp33
F-4.1146000000000003
aF-1.9722999999999999
aF-0.31907000000000002
aa(lp34
F-4.1078000000000001
aF-1.954
aF-0.31808999999999998
aa(lp35
F-4.1024000000000003
aF-1.9375
aF-0.31724999999999998
aa(lp36
F-4.0952000000000002
aF-1.9200999999999999
aF-0.31628000000000001
aa(lp37
F-4.0867000000000004
aF-1.9005000000000001
aF-0.31516
aa(lp38
F-4.0884
aF-1.8874
aF-0.31487999999999999
aa(lp39
F-4.0846
aF-1.8717999999999999
aF-0.31418000000000001
aa(lp40
F-4.0758999999999999
aF-1.8523000000000001
aF-0.31307000000000001
aa(lp41
F-4.0720000000000001
aF-1.8369
aF-0.31236999999999998
aa(lp42
F-4.0628000000000002
aF-1.8182
aF-0.31125000000000003
aa(lp43
F-4.0606
aF-1.8036000000000001
aF-0.31069999999999998
aa(lp44
F-4.0513000000000003
aF-1.7851999999999999
aF-0.30958000000000002
aa(lp45
F-4.0456000000000003
aF-1.7683
aF-0.30874000000000001
aa(lp46
F-4.0399000000000003
aF-1.7516
aF-0.30791000000000002
aa(lp47
F-4.0370999999999997
aF-1.7378
aF-0.30735000000000001
aa(lp48
F-4.0331000000000001
aF-1.7219
aF-0.30664999999999998
aa(lp49
F-4.0271999999999997
aF-1.7053
aF-0.30581000000000003
aa(lp50
F-4.0209000000000001
aF-1.6894
aF-0.30497999999999997
aa(lp51
F-4.0164
aF-1.6742999999999999
aF-0.30427999999999999
aa(lp52
F-4.0136000000000003
aF-1.6599999999999999
aF-0.30371999999999999
aa(lp53
F-4.0077999999999996
aF-1.6429
aF-0.30287999999999998
aa(lp54
F-3.9977999999999998
aF-1.625
aF-0.30176999999999998
aa(lp55
F-3.9931000000000001
aF-1.6101000000000001
aF-0.30107
aaa(lp56
(lp57
F-4.3564999999999996
aF-2.6779999999999999
aF-0.47709000000000001
aa(lp58
F-4.3474000000000004
aF-2.6547000000000001
aF-0.47524
aa(lp59
F-4.3429000000000002
aF-2.6353
aF-0.47393000000000002
aa(lp60
F-4.3365999999999998
aF-2.6150000000000002
aF-0.47244999999999998
aa(lp61
F-4.3234000000000004
aF-2.5905999999999998
aF-0.47022000000000003
aa(lp62
F-4.3174000000000001
aF-2.5695999999999999
aF-0.46872999999999998
aa(lp63
F-4.3099999999999996
aF-2.5468999999999999
aF-0.46705999999999998
aa(lp64
F-4.3033000000000001
aF-2.5268000000000002
aF-0.46556999999999998
aa(lp65
F-4.2971000000000004
aF-2.5059999999999998
aF-0.46409
aa(lp66
F-4.2919999999999998
aF-2.4870000000000001
aF-0.46278999999999998
aa(lp67
F-4.2834000000000003
aF-2.4660000000000002
aF-0.46111999999999997
aa(lp68
F-4.2803000000000004
aF-2.4474
aF-0.46000000000000002
aa(lp69
F-4.2685000000000004
aF-2.4239000000000002
aF-0.45795999999999998
aa(lp70
F-4.2656999999999998
aF-2.4045999999999998
aF-0.45684000000000002
aa(lp71
F-4.2576000000000001
aF-2.3864000000000001
aF-0.45535999999999999
aa(lp72
F-4.2525000000000004
aF-2.3668999999999998
aF-0.45406000000000002
aa(lp73
F-4.2439
aF-2.3456000000000001
aF-0.45238
aa(lp74
F-4.2385999999999999
aF-2.3262999999999998
aF-0.45107999999999998
aa(lp75
F-4.2293000000000003
aF-2.3058999999999998
aF-0.44940999999999998
aa(lp76
F-4.2221000000000002
aF-2.2858000000000001
aF-0.44791999999999998
aa(lp77
F-4.218
aF-2.2683
aF-0.44680999999999998
aa(lp78
F-4.2159000000000004
aF-2.2511000000000001
aF-0.44588
aa(lp79
F-4.2062999999999997
aF-2.2309000000000001
aF-0.44420999999999999
aa(lp80
F-4.2023999999999999
aF-2.2128000000000001
aF-0.44308999999999998
aa(lp81
F-4.1933999999999996
aF-2.1913
aF-0.44141999999999998
aa(lp82
F-4.1832000000000003
aF-2.1720999999999999
aF-0.43974999999999997
aa(lp83
F-4.1807999999999996
aF-2.1551
aF-0.43881999999999999
aa(lp84
F-4.1748000000000003
aF-2.1362999999999999
aF-0.43752000000000002
aa(lp85
F-4.1718000000000002
aF-2.1202000000000001
aF-0.43658999999999998
aa(lp86
F-4.1624999999999996
aF-2.0990000000000002
aF-0.43491999999999997
aa(lp87
F-4.1593999999999998
aF-2.0829
aF-0.43398999999999999
aa(lp88
F-4.1494999999999997
aF-2.0626000000000002
aF-0.43231999999999998
aa(lp89
F-4.1478000000000002
aF-2.0482
aF-0.43158000000000002
aa(lp90
F-4.1376999999999997
aF-2.028
aF-0.4299
aa(lp91
F-4.133
aF-2.0104000000000002
aF-0.42879
aa(lp92
F-4.1260000000000003
aF-1.9927999999999999
aF-0.42748999999999998
aa(lp93
F-4.1230000000000002
aF-1.9762999999999999
aF-0.42655999999999999
aa(lp94
F-4.1143999999999998
aF-1.9572000000000001
aF-0.42507
aa(lp95
F-4.1090999999999998
aF-1.9406000000000001
aF-0.42396
aa(lp96
F-4.1055000000000001
aF-1.9249000000000001
aF-0.42303000000000002
aa(lp97
F-4.1006999999999998
aF-1.9069
aF-0.42192000000000002
aa(lp98
F-4.0933000000000002
aF-1.8895999999999999
aF-0.42060999999999998
aa(lp99
F-4.0895000000000001
aF-1.8741000000000001
aF-0.41969000000000001
aa(lp100
F-4.0808999999999997
aF-1.8546
aF-0.41820000000000002
aa(lp101
F-4.077
aF-1.8391
aF-0.41726999999999997
aa(lp102
F-4.0732999999999997
aF-1.8229
aF-0.41633999999999999
aa(lp103
F-4.0674999999999999
aF-1.8067
aF-0.41522999999999999
aa(lp104
F-4.0618999999999996
aF-1.7898000000000001
aF-0.41410999999999998
aa(lp105
F-4.0579999999999998
aF-1.7738
aF-0.41317999999999999
aa(lp106
F-4.0522999999999998
aF-1.7569999999999999
aF-0.41206999999999999
aa(lp107
F-4.0423
aF-1.74
aF-0.41058
aa(lp108
F-4.0419
aF-1.7257
aF-0.41003000000000001
aa(lp109
F-4.0324
aF-1.7075
aF-0.40854000000000001
aa(lp110
F-4.0151000000000003
aF-1.6870000000000001
aF-0.40631
aaa(lp111
(lp112
F-4.4051
aF-2.8161
aF-0.61141999999999996
aa(lp113
F-4.3937999999999997
aF-2.7894999999999999
aF-0.60863
aa(lp114
F-4.3830999999999998
aF-2.7656000000000001
aF-0.60607
aa(lp115
F-4.3739999999999997
aF-2.7427999999999999
aF-0.60375000000000001
aa(lp116
F-4.3681999999999999
aF-2.7221000000000002
aF-0.60189000000000004
aa(lp117
F-4.3615000000000004
aF-2.6989999999999998
aF-0.5998
aa(lp118
F-4.3593000000000002
aF-2.6798000000000002
aF-0.59841
aa(lp119
F-4.3486000000000002
aF-2.6554000000000002
aF-0.59584999999999999
aa(lp120
F-4.3390000000000004
aF-2.633
aF-0.59353
aa(lp121
F-4.3345000000000002
aF-2.6137000000000001
aF-0.59189999999999998
aa(lp122
F-4.3281000000000001
aF-2.5933999999999999
aF-0.59004999999999996
aa(lp123
F-4.3238000000000003
aF-2.5733999999999999
aF-0.58842000000000005
aa(lp124
F-4.3131000000000004
aF-2.5487000000000002
aF-0.58586000000000005
aa(lp125
F-4.3048000000000002
aF-2.5276000000000001
aF-0.58377000000000001
aa(lp126
F-4.3002000000000002
aF-2.5078
aF-0.58214999999999995
aa(lp127
F-4.2918000000000003
aF-2.4868000000000001
aF-0.58006000000000002
aa(lp128
F-4.2849000000000004
aF-2.4668999999999999
aF-0.57820000000000005
aa(lp129
F-4.2766999999999999
aF-2.4453
aF-0.57611000000000001
aa(lp130
F-4.2717999999999998
aF-2.4258000000000002
aF-0.57447999999999999
aa(lp131
F-4.2690999999999999
aF-2.4064999999999999
aF-0.57308999999999999
aa(lp132
F-4.2576000000000001
aF-2.3862999999999999
aF-0.57076000000000005
aa(lp133
F-4.2507999999999999
aF-2.3658999999999999
aF-0.56891000000000003
aa(lp134
F-4.2420999999999998
aF-2.3447
aF-0.56681999999999999
aa(lp135
F-4.2420999999999998
aF-2.3283
aF-0.56589
aa(lp136
F-4.2310999999999996
aF-2.3069000000000002
aF-0.56355999999999995
aa(lp137
F-4.2256999999999998
aF-2.2877000000000001
aF-0.56194
aa(lp138
F-4.2180999999999997
aF-2.2684000000000002
aF-0.56008000000000002
aa(lp139
F-4.2107999999999999
aF-2.2484000000000002
aF-0.55822000000000005
aa(lp140
F-4.2030000000000003
aF-2.2290999999999999
aF-0.55635999999999997
aa(lp141
F-4.2008000000000001
aF-2.2120000000000002
aF-0.55520000000000003
aa(lp142
F-4.1954000000000002
aF-2.1924000000000001
aF-0.55357000000000001
aa(lp143
F-4.1905999999999999
aF-2.1758999999999999
aF-0.55218
aa(lp144
F-4.1863999999999999
aF-2.1579999999999999
aF-0.55079
aa(lp145
F-4.1734
aF-2.1356000000000002
aF-0.54823
aa(lp146
F-4.1704999999999997
aF-2.1194999999999999
aF-0.54706999999999995
aa(lp147
F-4.1646999999999998
aF-2.1000999999999999
aF-0.54544000000000004
aa(lp148
F-4.1581000000000001
aF-2.0821999999999998
aF-0.54381999999999997
aa(lp149
F-4.1536
aF-2.0646
aF-0.54242000000000001
aa(lp150
F-4.1447000000000003
aF-2.0466000000000002
aF-0.54056999999999999
aa(lp151
F-4.1401000000000003
aF-2.0291000000000001
aF-0.53917000000000004
aa(lp152
F-4.1318000000000001
aF-2.0099
aF-0.53730999999999995
aa(lp153
F-4.1249000000000002
aF-1.9923
aF-0.53569
aa(lp154
F-4.1181999999999999
aF-1.974
aF-0.53405999999999998
aa(lp155
F-4.1169000000000002
aF-1.9583999999999999
aF-0.53312999999999999
aa(lp156
F-4.1079999999999997
aF-1.9400999999999999
aF-0.53127000000000002
aa(lp157
F-4.1044
aF-1.9244000000000001
aF-0.53010999999999997
aa(lp158
F-4.0995999999999997
aF-1.9064000000000001
aF-0.52871999999999997
aaa(lp159
(lp160
F-3.8445999999999998
aF-2.5844
aF-0.65105000000000002
aa(lp161
F-3.8254000000000001
aF-2.5560999999999998
aF-0.64659999999999995
aa(lp162
F-3.8252000000000002
aF-2.5386000000000002
aF-0.64520999999999995
aa(lp163
F-3.8157000000000001
aF-2.5169999999999999
aF-0.64241999999999999
aa(lp164
F-3.8115999999999999
aF-2.4980000000000002
aF-0.64046999999999998
aa(lp165
F-3.8065000000000002
aF-2.4805000000000001
aF-0.63853000000000004
aa(lp166
F-3.7989000000000002
aF-2.4594999999999998
aF-0.63602000000000003
aa(lp167
F-3.7928000000000002
aF-2.4396
aF-0.63378999999999996
aa(lp168
F-3.7879
aF-2.4216000000000002
aF-0.63185000000000002
aa(lp169
F-3.7805
aF-2.4001000000000001
aF-0.62934000000000001
aa(lp170
F-3.7738
aF-2.3811
aF-0.62710999999999995
aa(lp171
F-3.7804000000000002
aF-2.3704999999999998
aF-0.62710999999999995
aaa(lp172
(lp173
F-4.1405000000000003
aF-2.5451999999999999
aF-0.68306
aa(lp174
F-4.1547999999999998
aF-2.5371000000000001
aF-0.68416999999999994
aa(lp175
F-4.1889000000000003
aF-2.5419
aF-0.68862999999999996
aa(lp176
F-4.1858000000000004
aF-2.5240999999999998
aF-0.68696000000000002
aa(lp177
F-4.1826999999999996
aF-2.5063
aF-0.68528999999999995
aa(lp178
F-4.1917999999999997
aF-2.4948999999999999
aF-0.68557000000000001
aa(lp179
F-4.1877000000000004
aF-2.4746000000000001
aF-0.68362000000000001
aa(lp180
F-4.1757999999999997
aF-2.4519000000000002
aF-0.68056000000000005
aa(lp181
F-4.2190000000000003
aF-2.4603999999999999
aF-0.68640000000000001
aa(lp182
F-4.2327000000000004
aF-2.4525999999999999
aF-0.68752000000000002
aa(lp183
F-4.2121000000000004
aF-2.4249999999999998
aF-0.68306
aa(lp184
F-4.2054999999999998
aF-2.4045999999999998
aF-0.68083000000000005
aa(lp185
F-4.2091000000000003
aF-2.3902000000000001
aF-0.68028
aa(lp186
F-4.1908000000000003
aF-2.3622999999999998
aF-0.67610000000000003
aa(lp187
F-4.181
aF-2.3433999999999999
aF-0.67359999999999998
aa(lp188
F-4.1741000000000001
aF-2.3233000000000001
aF-0.67137000000000002
aa(lp189
F-4.1791999999999998
aF-2.3098999999999998
aF-0.67108999999999996
aa(lp190
F-4.1738999999999997
aF-2.2907999999999999
aF-0.66913999999999996
aa(lp191
F-4.1698000000000004
aF-2.2734999999999999
aF-0.66747000000000001
aa(lp192
F-4.1661000000000001
aF-2.2553999999999998
aF-0.66579999999999995
aa(lp193
F-4.1584000000000003
aF-2.2363
aF-0.66357999999999995
aaa.