(lp1
(lp2
(lp3
F4.5439999999999996
aF-0.98824999999999996
aF0.87614000000000003
aa(lp4
F4.5312000000000001
aF-1.0004
aF0.87429000000000001
aa(lp5
F4.5208000000000004
aF-1.0113000000000001
aF0.87280999999999997
aa(lp6
F4.5061
aF-1.0228999999999999
aF0.87058999999999997
aa(lp7
F4.5072000000000001
aF-1.0356000000000001
aF0.87133000000000005
aa(lp8
F4.5115999999999996
aF-1.0515000000000001
aF0.87280999999999997
aa(lp9
F4.4954000000000001
aF-1.0602
aF0.87021000000000004
aa(lp10
F4.4846000000000004
aF-1.0717000000000001
aF0.86873
aa(lp11
F4.4661
aF-1.0812999999999999
aF0.86577000000000004
aa(lp12
F4.4741999999999997
aF-1.0981000000000001
aF0.86799000000000004
aa(lp13
F4.4619
aF-1.1067
aF0.86614000000000002
aa(lp14
F4.4908000000000001
aF-1.1289
aF0.87243999999999999
aa(lp15
F4.4781000000000004
aF-1.139
aF0.87058999999999997
aa(lp16
F4.4710999999999999
aF-1.1505000000000001
aF0.86983999999999995
aa(lp17
F4.4789000000000003
aF-1.1675
aF0.87207000000000001
aa(lp18
F4.4603999999999999
aF-1.1759999999999999
aF0.86909999999999998
aa(lp19
F4.4589999999999996
aF-1.1890000000000001
aF0.86946999999999997
aa(lp20
F4.4535999999999998
aF-1.2017
aF0.86909999999999998
aa(lp21
F4.4652000000000003
aF-1.2190000000000001
aF0.87207000000000001
aaa(lp22
(lp23
F4.5171999999999999
aF-0.99729999999999996
aF0.76002000000000003
aa(lp24
F4.5278999999999998
aF-1.0128999999999999
aF0.76229000000000002
aa(lp25
F4.5208000000000004
aF-1.0263
aF0.76163999999999998
aa(lp26
F4.5046999999999997
aF-1.0349999999999999
aF0.75936999999999999
aa(lp27
F4.4995000000000003
aF-1.0487
aF0.75905
aa(lp28
F4.4985999999999997
aF-1.0609
aF0.75936999999999999
aa(lp29
F4.5088999999999997
aF-1.0774999999999999
aF0.76163999999999998
aa(lp30
F4.4787999999999997
aF-1.0844
aF0.7571
aa(lp31
F4.4734999999999996
aF-1.0980000000000001
aF0.75678000000000001
aa(lp32
F4.4573999999999998
aF-1.1055999999999999
aF0.75451000000000001
aa(lp33
F4.4941000000000004
aF-1.1296999999999999
aF0.76132
aa(lp34
F4.4737
aF-1.1377999999999999
aF0.75839999999999996
aa(lp35
F4.4724000000000004
aF-1.1508
aF0.75871999999999995
aa(lp36
F4.4725999999999999
aF-1.1658999999999999
aF0.75936999999999999
aa(lp37
F4.4673999999999996
aF-1.1778
aF0.75905
aa(lp38
F4.4565000000000001
aF-1.1882999999999999
aF0.75775000000000003
aa(lp39
F4.4433999999999996
aF-1.1989000000000001
aF0.75612999999999997
aa(lp40
F4.4645999999999999
aF-1.2189000000000001
aF0.76034999999999997
aaa(lp41
(lp42
F4.5274000000000001
aF-0.99956
aF0.65161000000000002
aa(lp43
F4.5285000000000002
aF-1.0130999999999999
aF0.65217000000000003
aa(lp44
F4.5407000000000002
aF-1.0307999999999999
aF0.65439000000000003
aa(lp45
F4.5225999999999997
aF-1.0390999999999999
aF0.65217000000000003
aa(lp46
F4.5172999999999996
aF-1.0528999999999999
aF0.65188999999999997
aa(lp47
F4.5202999999999998
aF-1.0661
aF0.65271999999999997
aa(lp48
F4.5228999999999999
aF-1.0809
aF0.65356000000000003
aa(lp49
F4.4836
aF-1.1004
aF0.64881999999999995
aa(lp50
F4.4751000000000003
aF-1.1100000000000001
aF0.64798999999999995
aa(lp51
F4.4965999999999999
aF-1.1303000000000001
aF0.65161000000000002
aa(lp52
F4.4953000000000003
aF-1.1433
aF0.65188999999999997
aa(lp53
F4.4824999999999999
aF-1.1534
aF0.65049999999999997
aa(lp54
F4.4846000000000004
aF-1.169
aF0.65132999999999996
aa(lp55
F4.4775
aF-1.1805000000000001
aF0.65076999999999996
aa(lp56
F4.4683999999999999
aF-1.1915
aF0.64993999999999996
aa(lp57
F4.4649000000000001
aF-1.2047000000000001
aF0.64993999999999996
aa(lp58
F4.4707999999999997
aF-1.2205999999999999
aF0.65132999999999996
aaa(lp59
(lp60
F4.5118999999999998
aF-0.99612999999999996
aF0.54032999999999998
aa(lp61
F4.5110000000000001
aF-1.0092000000000001
aF0.54056999999999999
aa(lp62
F4.5019999999999998
aF-1.022
aF0.53986999999999996
aa(lp63
F4.4992999999999999
aF-1.0338000000000001
aF0.53986999999999996
aa(lp64
F4.4941000000000004
aF-1.0475000000000001
aF0.53964000000000001
aa(lp65
F4.5029000000000003
aF-1.0620000000000001
aF0.54103000000000001
aa(lp66
F4.4888000000000003
aF-1.0868
aF0.54010000000000002
aa(lp67
F4.4757999999999996
aF-1.0985
aF0.53893999999999997
aa(lp68
F4.4768999999999997
aF-1.1104000000000001
aF0.53939999999999999
aa(lp69
F4.4772999999999996
aF-1.1254
aF0.53986999999999996
aa(lp70
F4.4932999999999996
aF-1.1428
aF0.54218999999999995
aa(lp71
F4.4882
aF-1.1549
aF0.54196
aa(lp72
F4.4768999999999997
aF-1.167
aF0.54103000000000001
aa(lp73
F4.4698000000000002
aF-1.1785000000000001
aF0.54056999999999999
aa(lp74
F4.4683999999999999
aF-1.1914
aF0.54079999999999995
aa(lp75
F4.4591000000000003
aF-1.2031000000000001
aF0.54010000000000002
aa(lp76
F4.4650999999999996
aF-1.2190000000000001
aF0.54125999999999996
aaa(lp77
(lp78
F4.5376000000000003
aF-1.0150999999999999
aF0.43380999999999997
aa(lp79
F4.5189000000000004
aF-1.0258
aF0.43231999999999998
aa(lp80
F4.5278
aF-1.0403
aF0.43342999999999998
aa(lp81
F4.5225999999999997
aF-1.0541
aF0.43325000000000002
aa(lp82
F4.5179
aF-1.0654999999999999
aF0.43306
aa(lp83
F4.4728000000000003
aF-1.0829
aF0.42935000000000001
aa(lp84
F4.4867999999999997
aF-1.1012
aF0.43102000000000001
aa(lp85
F4.4725000000000001
aF-1.1093
aF0.4299
aa(lp86
F4.4690000000000003
aF-1.1234
aF0.4299
aa(lp87
F4.4947999999999997
aF-1.1432
aF0.43269000000000002
aa(lp88
F4.4760999999999997
aF-1.1517999999999999
aF0.43120000000000003
aa(lp89
F4.4627999999999997
aF-1.1633
aF0.43028
aa(lp90
F4.4749999999999996
aF-1.1798
aF0.43175999999999998
aa(lp91
F4.4659000000000004
aF-1.1908000000000001
aF0.43120000000000003
aa(lp92
F4.4584999999999999
aF-1.2030000000000001
aF0.43082999999999999
aa(lp93
F4.4588000000000001
aF-1.2173
aF0.43120000000000003
aa(lp94
F4.4569999999999999
aF-1.2310000000000001
aF0.43139
aaa(lp95
(lp96
F4.5307000000000004
aF-1.0136000000000001
aF0.32464999999999999
aa(lp97
F4.5138999999999996
aF-1.0246999999999999
aF0.32367000000000001
aa(lp98
F4.5053000000000001
aF-1.0351999999999999
aF0.32324999999999998
aa(lp99
F4.5156000000000001
aF-1.0525
aF0.32423000000000002
aa(lp100
F4.5050999999999997
aF-1.0625
aF0.32367000000000001
aa(lp101
F4.4922000000000004
aF-1.0734999999999999
aF0.32296999999999998
aa(lp102
F4.4715999999999996
aF-1.0826
aF0.32172000000000001
aa(lp103
F4.4603999999999999
aF-1.0948
aF0.32116
aa(lp104
F4.4577
aF-1.1055999999999999
aF0.32116
aa(lp105
F4.4696999999999996
aF-1.1234999999999999
aF0.32227
aa(lp106
F4.4801000000000002
aF-1.1395
aF0.32324999999999998
aa(lp107
F4.4710999999999999
aF-1.1505000000000001
aF0.32283000000000001
aa(lp108
F4.4577999999999998
aF-1.1619999999999999
aF0.32213999999999998
aa(lp109
F4.4565000000000001
aF-1.175
aF0.32227
aa(lp110
F4.4474
aF-1.1858
aF0.32185999999999998
aa(lp111
F4.4477000000000002
aF-1.2000999999999999
aF0.32213999999999998
aa(lp112
F4.4440999999999997
aF-1.2133
aF0.32213999999999998
aa(lp113
F4.4654999999999996
aF-1.2334000000000001
aF0.32395000000000002
aaa(lp114
(lp115
F4.5270999999999999
aF-1.0126999999999999
aF0.21632999999999999
aa(lp116
F4.5258000000000003
aF-1.0274000000000001
aF0.21643000000000001
aa(lp117
F4.5172999999999996
aF-1.0379
aF0.21615000000000001
aa(lp118
F4.5140000000000002
aF-1.0521
aF0.21615000000000001
aa(lp119
F4.5015000000000001
aF-1.0616000000000001
aF0.21568000000000001
aa(lp120
F4.5022000000000002
aF-1.0759000000000001
aF0.21587000000000001
aa(lp121
F4.4835000000000003
aF-1.0854999999999999
aF0.21512000000000001
aa(lp122
F4.4760999999999997
aF-1.0986
aF0.21493999999999999
aa(lp123
F4.4733999999999998
aF-1.1095999999999999
aF0.21493999999999999
aa(lp124
F4.468
aF-1.1231
aF0.21484
aa(lp125
F4.4861000000000004
aF-1.141
aF0.21587000000000001
aa(lp126
F4.4675000000000002
aF-1.1495
aF0.21512000000000001
aa(lp127
F4.4695999999999998
aF-1.1651
aF0.21540000000000001
aa(lp128
F4.4625000000000004
aF-1.1765000000000001
aF0.21521999999999999
aa(lp129
F4.4611000000000001
aF-1.1895
aF0.21531
aa(lp130
F4.4537000000000004
aF-1.2017
aF0.21512000000000001
aa(lp131
F4.4520999999999997
aF-1.2154
aF0.21521999999999999
aaa(lp132
(lp133
F4.5308000000000002
aF-1.0136000000000001
aF0.10779
aa(lp134
F4.5334000000000003
aF-1.0290999999999999
aF0.10793
aa(lp135
F4.5346000000000002
aF-1.0419
aF0.10802
aa(lp136
F4.5195999999999996
aF-1.0533999999999999
aF0.10774
aa(lp137
F4.5167999999999999
aF-1.0651999999999999
aF0.10774
aa(lp138
F4.5098000000000003
aF-1.0777000000000001
aF0.10765
aa(lp139
F4.4913999999999996
aF-1.1024
aF0.10736999999999999
aa(lp140
F4.4867999999999997
aF-1.1129
aF0.10732999999999999
aa(lp141
F4.4678000000000004
aF-1.1231
aF0.10696
aa(lp142
F4.4916999999999998
aF-1.1424000000000001
aF0.10761
aa(lp143
F4.4827000000000004
aF-1.1535
aF0.10747
aa(lp144
F4.4790999999999999
aF-1.1675
aF0.10747
aa(lp145
F4.4776999999999996
aF-1.1806000000000001
aF0.10750999999999999
aa(lp146
F4.4686000000000003
aF-1.1915
aF0.10736999999999999
aa(lp147
F4.4650999999999996
aF-1.2048000000000001
aF0.10736999999999999
aa(lp148
F4.4691999999999998
aF-1.2201
aF0.10756
aaa.