(lp1
(lp2
(lp3
F11.851000000000001
aF3.5667
aF-0.86539999999999995
aa(lp4
F11.891999999999999
aF3.5406
aF-0.86763000000000001
aa(lp5
F11.888
aF3.5034000000000001
aF-0.86665000000000003
aa(lp6
F11.858000000000001
aF3.4563999999999999
aF-0.86372000000000004
aa(lp7
F11.864000000000001
aF3.4222000000000001
aF-0.86345000000000005
aa(lp8
F11.978999999999999
aF3.4190999999999998
aF-0.87112000000000001
aa(lp9
F12.007999999999999
aF3.3889999999999998
aF-0.87251000000000001
aa(lp10
F12.055
aF3.3635000000000002
aF-0.87516000000000005
aaa(lp11
(lp12
F12.587
aF3.0449999999999999
aF-1.2081999999999999
aa(lp13
F12.611000000000001
aF3.0135999999999998
aF-1.2096
aa(lp14
F12.708
aF2.9994000000000001
aF-1.2181999999999999
aa(lp15
F12.769
aF2.9739
aF-1.2232000000000001
aa(lp16
F12.823
aF2.9462000000000002
aF-1.2275
aa(lp17
F12.917
aF2.9253
aF-1.2356
aa(lp18
F12.909000000000001
aF2.8879999999999999
aF-1.2342
aaa(lp19
(lp20
F13.452999999999999
aF2.7248999999999999
aF-1.2806
aa(lp21
F13.59
aF2.7105999999999999
aF-1.2928999999999999
aa(lp22
F13.753
aF2.6583000000000001
aF-1.3068
aa(lp23
F13.832000000000001
aF2.6337000000000002
aF-1.3137000000000001
aa(lp24
F13.82
aF2.5914000000000001
aF-1.3118000000000001
aa(lp25
F13.942
aF2.5689000000000002
aF-1.3226
aa(lp26
F13.948
aF2.5323000000000002
aF-1.3226
aa(lp27
F13.928000000000001
aF2.4885000000000002
aF-1.3200000000000001
aa(lp28
F14.073
aF2.4687999999999999
aF-1.333
aa(lp29
F14.102
aF2.4308000000000001
aF-1.335
aa(lp30
F14.148
aF2.3955000000000002
aF-1.3388
aa(lp31
F14.148999999999999
aF2.3574999999999999
aF-1.3382000000000001
aa(lp32
F14.119999999999999
aF2.3121999999999998
aF-1.3349
aaa(lp33
(lp34
F11.318
aF3.4062999999999999
aF-1.3822000000000001
aa(lp35
F11.368
aF3.3845999999999998
aF-1.3871
aa(lp36
F11.414
aF3.3635000000000002
aF-1.3915
aa(lp37
F11.471
aF3.3435999999999999
aF-1.3973
aa(lp38
F11.521000000000001
aF3.3231000000000002
aF-1.4021999999999999
aa(lp39
F11.574
aF3.3033999999999999
aF-1.4075
aa(lp40
F11.612
aF3.2772000000000001
aF-1.411
aa(lp41
F11.664
aF3.2544
aF-1.4160999999999999
aaa(lp42
(lp43
F12.250999999999999
aF3.0045999999999999
aF-1.4751000000000001
aa(lp44
F12.305
aF2.9767999999999999
aF-1.4804999999999999
aa(lp45
F12.361000000000001
aF2.9540000000000002
aF-1.4863
aa(lp46
F12.42
aF2.9312999999999998
aF-1.4923
aa(lp47
F12.475
aF2.9053
aF-1.4979
aa(lp48
F12.534000000000001
aF2.8797999999999999
aF-1.5039
aa(lp49
F12.595000000000001
aF2.8523000000000001
aF-1.5102
aa(lp50
F12.653
aF2.8306
aF-1.5162
aa(lp51
F12.708
aF2.8033000000000001
aF-1.5218
aa(lp52
F12.753
aF2.7736000000000001
aF-1.5262
aa(lp53
F12.776
aF2.7435
aF-1.5281
aa(lp54
F12.788
aF2.7042000000000002
aF-1.5285
aa(lp55
F12.798
aF2.6688999999999998
aF-1.5287999999999999
aa(lp56
F12.803000000000001
aF2.6326999999999998
aF-1.5285
aa(lp57
F12.813000000000001
aF2.5951
aF-1.5287999999999999
aa(lp58
F12.808999999999999
aF2.5548000000000002
aF-1.5274000000000001
aa(lp59
F12.824
aF2.5205000000000002
aF-1.5283
aa(lp60
F12.827999999999999
aF2.4794999999999998
aF-1.5278
aa(lp61
F12.831
aF2.4428999999999998
aF-1.5274000000000001
aa(lp62
F12.837
aF2.4070999999999998
aF-1.5274000000000001
aa(lp63
F12.855
aF2.3685
aF-1.5285
aa(lp64
F12.869999999999999
aF2.3365999999999998
aF-1.5297000000000001
aa(lp65
F12.887
aF2.3024
aF-1.5308999999999999
aa(lp66
F12.91
aF2.2646999999999999
aF-1.5327
aa(lp67
F12.912000000000001
aF2.2256999999999998
aF-1.5323
aa(lp68
F12.935
aF2.1899999999999999
aF-1.5341
aa(lp69
F12.94
aF2.1562000000000001
aF-1.5341
aa(lp70
F12.960000000000001
aF2.1223000000000001
aF-1.5357000000000001
aaa.