(lp1
(lp2
(lp3
F-16.504000000000001
aF21.837
aF1.2765
aa(lp4
F-16.472000000000001
aF21.939
aF1.2794000000000001
aa(lp5
F-16.431999999999999
aF22.013000000000002
aF1.2809999999999999
aa(lp6
F-16.331
aF22.013999999999999
aF1.2782
aa(lp7
F-16.183
aF21.942
aF1.2714000000000001
aa(lp8
F-16.047999999999998
aF21.887
aF1.2657
aa(lp9
F-15.9
aF21.827999999999999
aF1.2593000000000001
aa(lp10
F-15.763
aF21.759
aF1.2529999999999999
aaa(lp11
(lp12
F-16.504000000000001
aF21.838000000000001
aF0.63551000000000002
aa(lp13
F-16.454999999999998
aF21.917000000000002
aF0.63629999999999998
aa(lp14
F-16.427
aF22.006
aF0.63754999999999995
aa(lp15
F-16.332999999999998
aF22.015999999999998
aF0.63644000000000001
aa(lp16
F-16.187999999999999
aF21.949000000000002
aF0.63319000000000003
aa(lp17
F-16.039000000000001
aF21.875
aF0.62975999999999999
aa(lp18
F-15.901999999999999
aF21.831
aF0.62705999999999995
aa(lp19
F-15.779999999999999
aF21.783999999999999
aF0.62451000000000001
aaa(lp20
(lp21
F-16.498999999999999
aF21.831
aF0
aa(lp22
F-16.454999999999998
aF21.916
aF0
aa(lp23
F-16.417000000000002
aF21.992000000000001
aF0
aa(lp24
F-16.331
aF22.013999999999999
aF0
aa(lp25
F-16.181999999999999
aF21.940000000000001
aF0
aa(lp26
F-16.036000000000001
aF21.870999999999999
aF0
aa(lp27
F-15.898999999999999
aF21.827000000000002
aF0
aa(lp28
F-15.772
aF21.771999999999998
aF0
aaa(lp29
(lp30
F-16.440000000000001
aF21.896000000000001
aF-1.2768999999999999
aa(lp31
F-16.41
aF21.983000000000001
aF-1.2793000000000001
aa(lp32
F-16.331
aF22.013999999999999
aF-1.2782
aa(lp33
F-16.221
aF21.994
aF-1.2744
aa(lp34
F-15.894
aF21.82
aF-1.2588999999999999
aa(lp35
F-15.771000000000001
aF21.771000000000001
aF-1.2537
aaa.