(lp1
(lp2
(lp3
F19.399999999999999
aF-18.545000000000002
aF3.7719
aa(lp4
F19.210000000000001
aF-18.460000000000001
aF3.7443
aa(lp5
F19.007000000000001
aF-18.379999999999999
aF3.7159
aa(lp6
F18.806000000000001
aF-18.288
aF3.6867000000000001
aa(lp7
F18.611000000000001
aF-18.199000000000002
aF3.6583000000000001
aa(lp8
F18.416
aF-18.123000000000001
aF3.6313
aa(lp9
F18.234999999999999
aF-18.045000000000002
aF3.6053999999999999
aa(lp10
F18.065999999999999
aF-17.978000000000002
aF3.5819999999999999
aa(lp11
F17.885000000000002
aF-17.896999999999998
aF3.5558999999999998
aaa(lp12
(lp13
F19.420999999999999
aF-18.565000000000001
aF3.1419000000000001
aa(lp14
F19.202000000000002
aF-18.452000000000002
aF3.1141999999999999
aa(lp15
F18.998000000000001
aF-18.372
aF3.0905
aa(lp16
F18.814
aF-18.295999999999999
aF3.0689000000000002
aa(lp17
F18.603999999999999
aF-18.193000000000001
aF3.0428999999999999
aa(lp18
F18.408999999999999
aF-18.116
aF3.0204
aa(lp19
F18.239000000000001
aF-18.048999999999999
aF3.0005999999999999
aa(lp20
F18.050000000000001
aF-17.962
aF2.9779
aa(lp21
F17.878
aF-17.890000000000001
aF2.9577
aaa(lp22
(lp23
F19.417000000000002
aF-18.561
aF2.5059999999999998
aa(lp24
F19.224
aF-18.474
aF2.4874999999999998
aa(lp25
F19.015999999999998
aF-18.388999999999999
aF2.468
aa(lp26
F18.818999999999999
aF-18.300999999999998
aF2.4489999999999998
aa(lp27
F18.623999999999999
aF-18.212
aF2.4302000000000001
aa(lp28
F18.446000000000002
aF-18.152000000000001
aF2.4144000000000001
aa(lp29
F18.263999999999999
aF-18.073
aF2.3972000000000002
aa(lp30
F18.077999999999999
aF-17.989000000000001
aF2.3793000000000002
aa(lp31
F17.899000000000001
aF-17.911999999999999
aF2.3624000000000001
aa(lp32
F17.728999999999999
aF-17.853000000000002
aF2.3473999999999999
aaa(lp33
(lp34
F19.431999999999999
aF-18.576000000000001
aF1.8797999999999999
aa(lp35
F19.251999999999999
aF-18.501000000000001
aF1.8671
aa(lp36
F19.053000000000001
aF-18.425000000000001
aF1.8533999999999999
aa(lp37
F18.847000000000001
aF-18.327999999999999
aF1.8384
aa(lp38
F18.658999999999999
aF-18.247
aF1.825
aa(lp39
F18.463999999999999
aF-18.170000000000002
aF1.8113999999999999
aa(lp40
F18.276
aF-18.085000000000001
aF1.7979000000000001
aa(lp41
F18.096
aF-18.007999999999999
aF1.7851999999999999
aa(lp42
F17.925000000000001
aF-17.937000000000001
aF1.7732000000000001
aa(lp43
F17.753
aF-17.876999999999999
aF1.7618
aaa(lp44
(lp45
F19.437999999999999
aF-18.582000000000001
aF1.254
aa(lp46
F19.242000000000001
aF-18.491
aF1.2444999999999999
aa(lp47
F19.033000000000001
aF-18.405999999999999
aF1.2346999999999999
aa(lp48
F18.844000000000001
aF-18.324999999999999
aF1.2258
aa(lp49
F18.638999999999999
aF-18.227
aF1.2157
aa(lp50
F18.452000000000002
aF-18.158000000000001
aF1.2073
aa(lp51
F18.27
aF-18.079999999999998
aF1.1987000000000001
aa(lp52
F18.091999999999999
aF-18.004000000000001
aF1.1902999999999999
aa(lp53
F17.914000000000001
aF-17.925999999999998
aF1.1818
aa(lp54
F17.738
aF-17.861999999999998
aF1.1738999999999999
aaa(lp55
(lp56
F19.443999999999999
aF-18.587
aF0.62451000000000001
aa(lp57
F19.251000000000001
aF-18.5
aF0.61987000000000003
aa(lp58
F19.052
aF-18.423999999999999
aF0.61531999999999998
aa(lp59
F18.853000000000002
aF-18.332999999999998
aF0.61053999999999997
aa(lp60
F18.652999999999999
aF-18.239999999999998
aF0.60570999999999997
aa(lp61
F18.468
aF-18.173999999999999
aF0.60158
aa(lp62
F18.285
aF-18.094999999999999
aF0.59726000000000001
aa(lp63
F18.109999999999999
aF-18.021999999999998
aF0.59318000000000004
aa(lp64
F17.927
aF-17.939
aF0.58880999999999994
aa(lp65
F17.751999999999999
aF-17.876000000000001
aF0.58491000000000004
aaa(lp66
(lp67
F19.300000000000001
aF-18.547000000000001
aF-0.62144999999999995
aa(lp68
F19.099
aF-18.469999999999999
aF-0.61685000000000001
aa(lp69
F18.898
aF-18.378
aF-0.61202000000000001
aa(lp70
F18.699999999999999
aF-18.286999999999999
aF-0.60724
aa(lp71
F18.507000000000001
aF-18.212
aF-0.60282999999999998
aa(lp72
F18.321000000000002
aF-18.129999999999999
aF-0.59841999999999995
aa(lp73
F18.146999999999998
aF-18.058
aF-0.59438000000000002
aa(lp74
F17.962
aF-17.975000000000001
aF-0.58996999999999999
aaa(lp75
(lp76
F19.484000000000002
aF-18.626000000000001
aF-1.2569999999999999
aa(lp77
F19.285
aF-18.533000000000001
aF-1.2473000000000001
aa(lp78
F19.085999999999999
aF-18.457000000000001
aF-1.2382
aa(lp79
F18.884
aF-18.364000000000001
aF-1.2283999999999999
aa(lp80
F18.695
aF-18.280999999999999
aF-1.2194
aa(lp81
F18.492999999999999
aF-18.199000000000002
aF-1.21
aa(lp82
F18.314
aF-18.123999999999999
aF-1.2016
aa(lp83
F18.140999999999998
aF-18.052
aF-1.1935
aa(lp84
F17.942
aF-17.954000000000001
aF-1.1837
aaa.