(lp1
(lp2
(lp3
F-5.0561999999999996
aF2.8235000000000001
aF0.81388000000000005
aa(lp4
F-5.0288000000000004
aF2.8277999999999999
aF0.81081999999999999
aa(lp5
F-5.0221
aF2.8437000000000001
aF0.81110000000000004
aa(lp6
F-5.0136000000000003
aF2.8586
aF0.81110000000000004
aa(lp7
F-5.0194000000000001
aF2.8803999999999998
aF0.81333
aa(lp8
F-5.0056000000000003
aF2.8923000000000001
aF0.81249000000000005
aa(lp9
F-4.9969999999999999
aF2.9072
aF0.81249000000000005
aa(lp10
F-4.9734999999999996
aF2.9121000000000001
aF0.80998999999999999
aa(lp11
F-4.9665999999999997
aF2.9279000000000002
aF0.81027000000000005
aa(lp12
F-4.9550000000000001
aF2.9397000000000002
aF0.80971000000000004
aa(lp13
F-4.9649000000000001
aF2.9655999999999998
aF0.81276999999999999
aa(lp14
F-4.9583000000000004
aF2.9803999999999999
aF0.81305000000000005
aa(lp15
F-4.9471999999999996
aF2.9950000000000001
aF0.81276999999999999
aa(lp16
F-4.9377000000000004
aF3.0068999999999999
aF0.81249000000000005
aa(lp17
F-4.9271000000000003
aF3.0205000000000002
aF0.81220999999999999
aaa(lp18
(lp19
F-5.0590999999999999
aF2.8250999999999999
aF0.67762
aa(lp20
F-5.0265000000000004
aF2.8264999999999998
aF0.67437000000000002
aa(lp21
F-5.0145999999999997
aF2.8395000000000001
aF0.67391000000000001
aa(lp22
F-5.0114000000000001
aF2.8573
aF0.67459999999999998
aa(lp23
F-5.0050999999999997
aF2.8721999999999999
aF0.67484
aa(lp24
F-5
aF2.8891
aF0.67530000000000001
aa(lp25
F-4.9844999999999997
aF2.8999000000000001
aF0.67437000000000002
aa(lp26
F-4.9610000000000003
aF2.9047999999999998
aF0.67227999999999999
aa(lp27
F-4.9626000000000001
aF2.9255
aF0.67366999999999999
aa(lp28
F-4.9611999999999998
aF2.9434
aF0.67459999999999998
aa(lp29
F-4.9626999999999999
aF2.9643000000000002
aF0.67600000000000005
aa(lp30
F-4.9442000000000004
aF2.972
aF0.67459999999999998
aa(lp31
F-4.9432999999999998
aF2.9925999999999999
aF0.67576000000000003
aa(lp32
F-4.9371999999999998
aF3.0066000000000002
aF0.67600000000000005
aa(lp33
F-4.9333
aF3.0243000000000002
aF0.67669000000000001
aaa(lp34
(lp35
F-5.0490000000000004
aF2.8195000000000001
aF0.53952
aa(lp36
F-5.0266999999999999
aF2.8266
aF0.53803000000000001
aa(lp37
F-5.0183
aF2.8414999999999999
aF0.53803000000000001
aa(lp38
F-5.0080999999999998
aF2.8553999999999999
aF0.53783999999999998
aa(lp39
F-5.0069999999999997
aF2.8734000000000002
aF0.53859000000000001
aa(lp40
F-4.9932999999999996
aF2.8852000000000002
aF0.53803000000000001
aa(lp41
F-4.9829999999999997
aF2.899
aF0.53783999999999998
aa(lp42
F-4.9645999999999999
aF2.9068999999999998
aF0.53673000000000004
aa(lp43
F-4.9645000000000001
aF2.9266999999999999
aF0.53766000000000003
aa(lp44
F-4.9512
aF2.9375
aF0.53710000000000002
aa(lp45
F-4.9596
aF2.9624000000000001
aF0.53895999999999999
aa(lp46
F-4.9530000000000003
aF2.9771999999999998
aF0.53913999999999995
aa(lp47
F-4.9452999999999996
aF2.9937999999999998
aF0.53932999999999998
aa(lp48
F-4.9442000000000004
aF3.0108999999999999
aF0.54007000000000005
aa(lp49
F-4.9386999999999999
aF3.0276000000000001
aF0.54044999999999999
aaa(lp50
(lp51
F-5.0133000000000001
aF2.7995000000000001
aF0.40151999999999999
aa(lp52
F-5.0122
aF2.8380999999999998
aF0.40277000000000002
aa(lp53
F-5.0054999999999996
aF2.8538999999999999
aF0.40290999999999999
aa(lp54
F-4.9992000000000001
aF2.8689
aF0.40305000000000002
aa(lp55
F-4.9942000000000002
aF2.8856999999999999
aF0.40333000000000002
aa(lp56
F-4.9889999999999999
aF2.9024999999999999
aF0.40361000000000002
aa(lp57
F-4.9481999999999999
aF2.9169999999999998
aF0.40166000000000002
aa(lp58
F-4.952
aF2.9379
aF0.40262999999999999
aa(lp59
F-4.9484000000000004
aF2.9557000000000002
aF0.40305000000000002
aa(lp60
F-4.9520999999999997
aF2.9767000000000001
aF0.40403
aa(lp61
F-4.9427000000000003
aF2.9922
aF0.40403
aa(lp62
F-4.9314999999999998
aF3.0030999999999999
aF0.40375
aa(lp63
F-4.9191000000000003
aF3.0156000000000001
aF0.40347
aaa(lp64
(lp65
F-4.9999000000000002
aF2.8311000000000002
aF0.26795000000000002
aa(lp66
F-5.0071000000000003
aF2.8548
aF0.26878999999999997
aa(lp67
F-4.9920999999999998
aF2.8647999999999998
aF0.26840999999999998
aa(lp68
F-4.9836
aF2.8795999999999999
aF0.26840999999999998
aa(lp69
F-4.9785000000000004
aF2.8963999999999999
aF0.26860000000000001
aa(lp70
F-4.9652000000000003
aF2.9073000000000002
aF0.26832
aa(lp71
F-4.96
aF2.9239999999999999
aF0.26851000000000003
aa(lp72
F-4.9466999999999999
aF2.9348000000000001
aF0.26823000000000002
aa(lp73
F-4.9550999999999998
aF2.9597000000000002
aF0.26916000000000001
aa(lp74
F-4.9467999999999996
aF2.9735
aF0.26916000000000001
aa(lp75
F-4.9425999999999997
aF2.9922
aF0.26944000000000001
aa(lp76
F-4.9279000000000002
aF3.0009000000000001
aF0.26906999999999998
aa(lp77
F-4.9257999999999997
aF3.0196999999999998
aF0.26944000000000001
aaa.