(lp1
(lp2
(lp3
F-0.18731999999999999
aF-1.3552
aF-0.12762999999999999
aa(lp4
F-0.19214000000000001
aF-1.3585
aF-0.12801000000000001
aa(lp5
F-0.19503000000000001
aF-1.3501000000000001
aF-0.12726000000000001
aa(lp6
F-0.19874
aF-1.3474999999999999
aF-0.12708
aa(lp7
F-0.20221
aF-1.345
aF-0.12689
aa(lp8
F-0.20687
aF-1.3503000000000001
aF-0.12745000000000001
aa(lp9
F-0.21002000000000001
aF-1.3458000000000001
aF-0.12708
aa(lp10
F-0.21393999999999999
aF-1.3431999999999999
aF-0.12689
aa(lp11
F-0.21801000000000001
aF-1.3445
aF-0.12708
aa(lp12
F-0.22208
aF-1.3459000000000001
aF-0.12726000000000001
aa(lp13
F-0.22739999999999999
aF-1.3531
aF-0.12801000000000001
aaa(lp14
(lp15
F-0.12525
aF-1.3709
aF-0.16098000000000001
aa(lp16
F-0.12906999999999999
aF-1.3706
aF-0.16098000000000001
aa(lp17
F-0.13236999999999999
aF-1.3623000000000001
aF-0.16006000000000001
aa(lp18
F-0.13719999999999999
aF-1.3697999999999999
aF-0.16098000000000001
aa(lp19
F-0.14166999999999999
aF-1.3733
aF-0.16145000000000001
aa(lp20
F-0.14515
aF-1.365
aF-0.16052
aa(lp21
F-0.14810000000000001
aF-1.3566
aF-0.15959000000000001
aa(lp22
F-0.15276999999999999
aF-1.3641000000000001
aF-0.16052
aa(lp23
F-0.15590999999999999
aF-1.3557999999999999
aF-0.15959000000000001
aa(lp24
F-0.15969
aF-1.3573
aF-0.15981999999999999
aa(lp25
F-0.16395000000000001
aF-1.3568
aF-0.15981999999999999
aa(lp26
F-0.16822999999999999
aF-1.3603000000000001
aF-0.16028999999999999
aa(lp27
F-0.17249999999999999
aF-1.3597999999999999
aF-0.16028999999999999
aa(lp28
F-0.17655000000000001
aF-1.3612
aF-0.16052
aa(lp29
F-0.18060999999999999
aF-1.3627
aF-0.16075
aa(lp30
F-0.18465999999999999
aF-1.3622000000000001
aF-0.16075
aa(lp31
F-0.18904000000000001
aF-1.3675999999999999
aF-0.16145000000000001
aa(lp32
F-0.19278000000000001
aF-1.3631
aF-0.16098000000000001
aaa(lp33
(lp34
F0.16517000000000001
aF-1.4362999999999999
aF-0.20319000000000001
aa(lp35
F0.15981000000000001
aF-1.427
aF-0.20180000000000001
aa(lp36
F0.15514
aF-1.4235
aF-0.20124
aa(lp37
F0.15040999999999999
aF-1.4120999999999999
aF-0.19957
aa(lp38
F0.14718999999999999
aF-1.4242999999999999
aF-0.20124
aa(lp39
F0.14262
aF-1.4188000000000001
aF-0.20041
aa(lp40
F0.13778000000000001
aF-1.4153
aF-0.19985
aa(lp41
F0.13302
aF-1.4097999999999999
aF-0.19902
aa(lp42
F0.12836
aF-1.4023000000000001
aF-0.19789999999999999
aa(lp43
F0.12444
aF-1.4027000000000001
aF-0.19789999999999999
aa(lp44
F0.11977
aF-1.3971
aF-0.19707
aa(lp45
F0.11554
aF-1.3935
aF-0.19650999999999999
aa(lp46
F0.11117
aF-1.3937999999999999
aF-0.19650999999999999
aa(lp47
F0.10736
aF-1.3920999999999999
aF-0.19622999999999999
aa(lp48
F0.10314
aF-1.3944000000000001
aF-0.19650999999999999
aa(lp49
F0.099061999999999997
aF-1.3888
aF-0.19567999999999999
aa(lp50
F0.094699000000000005
aF-1.3891
aF-0.19567999999999999
aa(lp51
F0.090690000000000007
aF-1.3874
aF-0.19539999999999999
aa(lp52
F0.086208000000000007
aF-1.3856999999999999
aF-0.19511999999999999
aa(lp53
F0.082461999999999994
aF-1.3838999999999999
aF-0.19484000000000001
aa(lp54
F0.078020000000000006
aF-1.3782000000000001
aF-0.19400999999999999
aa(lp55
F0.074171000000000001
aF-1.3784000000000001
aF-0.19400999999999999
aa(lp56
F0.070320999999999995
aF-1.3786
aF-0.19400999999999999
aa(lp57
F0.065800999999999998
aF-1.3749
aF-0.19345000000000001
aa(lp58
F0.061720999999999998
aF-1.3751
aF-0.19345000000000001
aa(lp59
F0.057952999999999998
aF-1.3713
aF-0.19289000000000001
aa(lp60
F0.053644999999999998
aF-1.3714999999999999
aF-0.19289000000000001
aa(lp61
F0.049671
aF-1.3675999999999999
aF-0.19234000000000001
aa(lp62
F0.045745000000000001
aF-1.3716999999999999
aF-0.19289000000000001
aa(lp63
F0.041854000000000002
aF-1.3698999999999999
aF-0.19262000000000001
aa(lp64
F0.037679999999999998
aF-1.3661000000000001
aF-0.19206000000000001
aa(lp65
F0.033626999999999997
aF-1.3662000000000001
aF-0.19206000000000001
aa(lp66
F0.029572999999999999
aF-1.3662000000000001
aF-0.19206000000000001
aa(lp67
F0.026034000000000002
aF-1.3683000000000001
aF-0.19234000000000001
aa(lp68
F0.021878999999999999
aF-1.3624000000000001
aF-0.1915
aa(lp69
F0.017836000000000001
aF-1.3625
aF-0.1915
aa(lp70
F0.013575
aF-1.3645
aF-0.19178000000000001
aa(lp71
F0.0097505000000000005
aF-1.3626
aF-0.1915
aa(lp72
F0.0061833000000000001
aF-1.3626
aF-0.1915
aa(lp73
F0.0021373
aF-1.3606
aF-0.19122
aa(lp74
F-0.0016623
aF-1.3606
aF-0.19122
aa(lp75
F-0.0059367999999999999
aF-1.3606
aF-0.19122
aa(lp76
F-0.0097505000000000005
aF-1.3626
aF-0.1915
aa(lp77
F-0.013535999999999999
aF-1.3606
aF-0.19122
aa(lp78
F-0.017572999999999998
aF-1.3605
aF-0.19122
aa(lp79
F-0.021578
aF-1.3585
aF-0.19095000000000001
aa(lp80
F-0.025333999999999999
aF-1.3564000000000001
aF-0.19067000000000001
aa(lp81
F-0.029207
aF-1.3603000000000001
aF-0.19122
aa(lp82
F-0.033432000000000003
aF-1.3582000000000001
aF-0.19095000000000001
aa(lp83
F-0.037225000000000001
aF-1.3581000000000001
aF-0.19095000000000001
aa(lp84
F-0.041016999999999998
aF-1.3580000000000001
aF-0.19095000000000001
aa(lp85
F-0.044981
aF-1.3559000000000001
aF-0.19067000000000001
aa(lp86
F-0.049096000000000001
aF-1.3517999999999999
aF-0.19011
aa(lp87
F-0.052948000000000002
aF-1.3536999999999999
aF-0.19039
aa(lp88
F-0.056881000000000001
aF-1.3514999999999999
aF-0.19011
aa(lp89
F-0.060832999999999998
aF-1.3552999999999999
aF-0.19067000000000001
aa(lp90
F-0.064429
aF-1.3512
aF-0.19011
aa(lp91
F-0.068336999999999995
aF-1.349
aF-0.18983
aa(lp92
F-0.071998000000000006
aF-1.3468
aF-0.18955
aa(lp93
F-0.076229000000000005
aF-1.3466
aF-0.18955
aa(lp94
F-0.080106999999999998
aF-1.3483000000000001
aF-0.18983
aa(lp95
F-0.084219000000000002
aF-1.3461000000000001
aF-0.18955
aa(lp96
F-0.087249999999999994
aF-1.3420000000000001
aF-0.189
aa(lp97
F-0.091330999999999996
aF-1.3396999999999999
aF-0.18872
aa(lp98
F-0.095212000000000005
aF-1.3413999999999999
aF-0.189
aa(lp99
F-0.099719000000000002
aF-1.3451
aF-0.18955
aa(lp100
F-0.10347000000000001
aF-1.3448
aF-0.18955
aa(lp101
F-0.10707
aF-1.3425
aF-0.18928
aa(lp102
F-0.11113000000000001
aF-1.3402000000000001
aF-0.189
aa(lp103
F-0.11457000000000001
aF-1.3419000000000001
aF-0.18928
aa(lp104
F-0.11860999999999999
aF-1.3394999999999999
aF-0.189
aa(lp105
F-0.12217
aF-1.3371999999999999
aF-0.18872
aa(lp106
F-0.12645999999999999
aF-1.3428
aF-0.18955
aa(lp107
F-0.13063
aF-1.3444
aF-0.18983
aa(lp108
F-0.13482
aF-1.3460000000000001
aF-0.19011
aa(lp109
F-0.13902
aF-1.3474999999999999
aF-0.19039
aa(lp110
F-0.14262
aF-1.3411999999999999
aF-0.18955
aa(lp111
F-0.14657999999999999
aF-1.3427
aF-0.18983
aa(lp112
F-0.15054999999999999
aF-1.3443000000000001
aF-0.19011
aa(lp113
F-0.15454000000000001
aF-1.3438000000000001
aF-0.19011
aa(lp114
F-0.15759000000000001
aF-1.3394999999999999
aF-0.18955
aa(lp115
F-0.1618
aF-1.339
aF-0.18955
aa(lp116
F-0.16553999999999999
aF-1.3385
aF-0.18955
aa(lp117
F-0.16924
aF-1.3341000000000001
aF-0.189
aa(lp118
F-0.17348
aF-1.3374999999999999
aF-0.18955
aa(lp119
F-0.17799000000000001
aF-1.3429
aF-0.19039
aa(lp120
F-0.18090999999999999
aF-1.3346
aF-0.18928
aa(lp121
F-0.18468000000000001
aF-1.3360000000000001
aF-0.18955
aa(lp122
F-0.18970999999999999
aF-1.3412999999999999
aF-0.19039
aa(lp123
F-0.19255
aF-1.3329
aF-0.18928
aa(lp124
F-0.19766
aF-1.3402000000000001
aF-0.19039
aa(lp125
F-0.20082
aF-1.3357000000000001
aF-0.18983
aa(lp126
F-0.20513999999999999
aF-1.3391
aF-0.19039
aa(lp127
F-0.20949000000000001
aF-1.3424
aF-0.19095000000000001
aa(lp128
F-0.21432999999999999
aF-1.3455999999999999
aF-0.1915
aa(lp129
F-0.21745999999999999
aF-1.3411
aF-0.19095000000000001
aa(lp130
F-0.22151999999999999
aF-1.3425
aF-0.19122
aa(lp131
F-0.22517999999999999
aF-1.3399000000000001
aF-0.19095000000000001
aa(lp132
F-0.22958999999999999
aF-1.3431
aF-0.1915
aa(lp133
F-0.23255000000000001
aF-1.3366
aF-0.19067000000000001
aa(lp134
F-0.23663000000000001
aF-1.3379000000000001
aF-0.19095000000000001
aa(lp135
F-0.24317
aF-1.3488
aF-0.19262000000000001
aa(lp136
F-0.24562999999999999
aF-1.3423
aF-0.19178000000000001
aa(lp137
F-0.25083
aF-1.3493999999999999
aF-0.19289000000000001
aa(lp138
F-0.25358999999999998
aF-1.3408
aF-0.19178000000000001
aa(lp139
F-0.25533
aF-1.3284
aF-0.19011
aaa(lp140
(lp141
F0.15631
aF-1.4341999999999999
aF-0.23702000000000001
aa(lp142
F0.15134
aF-1.4208000000000001
aF-0.23474999999999999
aa(lp143
F0.14666999999999999
aF-1.4193
aF-0.23443
aa(lp144
F0.14152000000000001
aF-1.4078999999999999
aF-0.23247999999999999
aa(lp145
F0.1371
aF-1.4084000000000001
aF-0.23247999999999999
aa(lp146
F0.13236000000000001
aF-1.4029
aF-0.23150999999999999
aa(lp147
F0.12862999999999999
aF-1.4052
aF-0.23183000000000001
aa(lp148
F0.12453
aF-1.4036
aF-0.23150999999999999
aa(lp149
F0.12053
aF-1.4058999999999999
aF-0.23183000000000001
aa(lp150
F0.11611
aF-1.4004000000000001
aF-0.23086000000000001
aa(lp151
F0.1114
aF-1.3968
aF-0.23021
aa(lp152
F0.10743999999999999
aF-1.3931
aF-0.22955999999999999
aa(lp153
F0.10306
aF-1.3935
aF-0.22955999999999999
aa(lp154
F0.099695000000000006
aF-1.3976999999999999
aF-0.23021
aa(lp155
F0.095304
aF-1.3979999999999999
aF-0.23021
aa(lp156
F0.090626999999999999
aF-1.3864000000000001
aF-0.22827
aa(lp157
F0.086515999999999996
aF-1.3906000000000001
aF-0.22891
aa(lp158
F0.082876000000000005
aF-1.3909
aF-0.22891
aa(lp159
F0.078524999999999998
aF-1.3872
aF-0.22827
aa(lp160
F0.074332999999999996
aF-1.3815
aF-0.22728999999999999
aa(lp161
F0.070072999999999996
aF-1.3737999999999999
aF-0.22600000000000001
aa(lp162
F0.065851000000000007
aF-1.3759999999999999
aF-0.22631999999999999
aa(lp163
F0.061857000000000002
aF-1.3781000000000001
aF-0.22664000000000001
aa(lp164
F0.058082000000000002
aF-1.3743000000000001
aF-0.22600000000000001
aa(lp165
F0.053763999999999999
aF-1.3745000000000001
aF-0.22600000000000001
aa(lp166
F0.049854000000000002
aF-1.3727
aF-0.22567000000000001
aa(lp167
F0.045714999999999999
aF-1.3708
aF-0.22534999999999999
aa(lp168
F0.041827000000000003
aF-1.369
aF-0.22502
aa(lp169
F0.03771
aF-1.3671
aF-0.22470000000000001
aa(lp170
F0.033605000000000003
aF-1.3653
aF-0.22437000000000001
aa(lp171
F0.029468999999999999
aF-1.3613999999999999
aF-0.22373000000000001
aa(lp172
F0.025942
aF-1.3634999999999999
aF-0.22405
aa(lp173
F0.021770000000000001
aF-1.3555999999999999
aF-0.22275
aa(lp174
F0.017773000000000001
aF-1.3576999999999999
aF-0.22308
aa(lp175
F0.013507999999999999
aF-1.3576999999999999
aF-0.22308
aa(lp176
F0.0097161000000000001
aF-1.3577999999999999
aF-0.22308
aa(lp177
F0.0061435999999999999
aF-1.3537999999999999
aF-0.22242999999999999
aa(lp178
F0.0021297
aF-1.3557999999999999
aF-0.22275
aa(lp179
F-0.0016565
aF-1.3557999999999999
aF-0.22275
aa(lp180
F-0.0059245000000000001
aF-1.3577999999999999
aF-0.22308
aa(lp181
F-0.0096878999999999993
aF-1.3537999999999999
aF-0.22242999999999999
aa(lp182
F-0.013448999999999999
aF-1.3517999999999999
aF-0.22211
aa(lp183
F-0.017510999999999999
aF-1.3556999999999999
aF-0.22275
aa(lp184
F-0.02147
aF-1.3516999999999999
aF-0.22211
aa(lp185
F-0.025245
aF-1.3515999999999999
aF-0.22211
aa(lp186
F-0.028976999999999999
aF-1.3495999999999999
aF-0.22178
aa(lp187
F-0.033314000000000003
aF-1.3533999999999999
aF-0.22242999999999999
aa(lp188
F-0.037039000000000002
aF-1.3513999999999999
aF-0.22211
aa(lp189
F-0.040693
aF-1.3472999999999999
aF-0.22145999999999999
aa(lp190
F-0.044822000000000001
aF-1.3511
aF-0.22211
aa(lp191
F-0.048994999999999997
aF-1.349
aF-0.22178
aa(lp192
F-0.052838999999999997
aF-1.3508
aF-0.22211
aa(lp193
F-0.056763000000000001
aF-1.3487
aF-0.22178
aa(lp194
F-0.060706999999999997
aF-1.3525
aF-0.22242999999999999
aa(lp195
F-0.064482999999999999
aF-1.3523000000000001
aF-0.22242999999999999
aa(lp196
F-0.068695000000000006
aF-1.3561000000000001
aF-0.22308
aa(lp197
F-0.072271000000000002
aF-1.3519000000000001
aF-0.22242999999999999
aa(lp198
F-0.076183000000000001
aF-1.3458000000000001
aF-0.22145999999999999
aa(lp199
F-0.079940999999999998
aF-1.3455999999999999
aF-0.22145999999999999
aa(lp200
F-0.084291000000000005
aF-1.3472999999999999
aF-0.22178
aa(lp201
F-0.087710999999999997
aF-1.349
aF-0.22211
aa(lp202
F-0.092081999999999997
aF-1.3507
aF-0.22242999999999999
aa(lp203
F-0.095853999999999995
aF-1.3505
aF-0.22242999999999999
aa(lp204
F-0.10009999999999999
aF-1.3501000000000001
aF-0.22242999999999999
aa(lp205
F-0.10356
aF-1.3459000000000001
aF-0.22178
aa(lp206
F-0.10764
aF-1.3495999999999999
aF-0.22242999999999999
aa(lp207
F-0.11187
aF-1.3492
aF-0.22242999999999999
aa(lp208
F-0.11534
aF-1.3509
aF-0.22275
aa(lp209
F-0.11871
aF-1.3407
aF-0.22112999999999999
aa(lp210
F-0.12263
aF-1.3423
aF-0.22145999999999999
aa(lp211
F-0.12748999999999999
aF-1.3537999999999999
aF-0.22339999999999999
aa(lp212
F-0.13208
aF-1.3593
aF-0.22437000000000001
aa(lp213
F-0.13611000000000001
aF-1.3589
aF-0.22437000000000001
aa(lp214
F-0.13994000000000001
aF-1.3565
aF-0.22405
aa(lp215
F-0.14441000000000001
aF-1.3580000000000001
aF-0.22437000000000001
aa(lp216
F-0.14777999999999999
aF-1.3536999999999999
aF-0.22373000000000001
aa(lp217
F-0.15221000000000001
aF-1.3592
aF-0.22470000000000001
aa(lp218
F-0.15625
aF-1.3587
aF-0.22470000000000001
aa(lp219
F-0.15934000000000001
aF-1.3544
aF-0.22405
aa(lp220
F-0.16336000000000001
aF-1.3519000000000001
aF-0.22373000000000001
aa(lp221
F-0.16738
aF-1.3533999999999999
aF-0.22405
aa(lp222
F-0.17212
aF-1.3568
aF-0.22470000000000001
aa(lp223
F-0.17591000000000001
aF-1.3563000000000001
aF-0.22470000000000001
aa(lp224
F-0.1797
aF-1.3557999999999999
aF-0.22470000000000001
aa(lp225
F-0.18425
aF-1.3592
aF-0.22534999999999999
aa(lp226
F-0.18754000000000001
aF-1.3567
aF-0.22502
aa(lp227
F-0.19208
aF-1.3581000000000001
aF-0.22534999999999999
aa(lp228
F-0.19553999999999999
aF-1.3535999999999999
aF-0.22470000000000001
aa(lp229
F-0.20013
aF-1.3569
aF-0.22534999999999999
aa(lp230
F-0.20363000000000001
aF-1.3544
aF-0.22502
aa(lp231
F-0.20831
aF-1.3596999999999999
aF-0.22600000000000001
aa(lp232
F-0.21332000000000001
aF-1.3669
aF-0.22728999999999999
aa(lp233
F-0.21823000000000001
aF-1.3701000000000001
aF-0.22794
aa(lp234
F-0.22111
aF-1.3636999999999999
aF-0.22697000000000001
aa(lp235
F-0.22588
aF-1.3689
aF-0.22794
aa(lp236
F-0.22961999999999999
aF-1.3663000000000001
aF-0.22761999999999999
aa(lp237
F-0.23343
aF-1.3655999999999999
aF-0.22761999999999999
aa(lp238
F-0.23713999999999999
aF-1.363
aF-0.22728999999999999
aa(lp239
F-0.24060000000000001
aF-1.3604000000000001
aF-0.22697000000000001
aa(lp240
F-0.24371000000000001
aF-1.3517999999999999
aF-0.22567000000000001
aa(lp241
F-0.24440999999999999
aF-1.3355999999999999
aF-0.22308
aaa.