(lp1
(lp2
(lp3
F-4.2960000000000003
aF0.12975
aF0
aa(lp4
F-4.2896000000000001
aF0.14230000000000001
aF0
aa(lp5
F-4.2831999999999999
aF0.15406
aF0
aa(lp6
F-4.2766999999999999
aF0.16728999999999999
aF0
aa(lp7
F-4.2762000000000002
aF0.17923
aF0
aa(lp8
F-4.2617000000000003
aF0.19053999999999999
aF0
aa(lp9
F-4.2591999999999999
aF0.20235
aF0
aa(lp10
F-4.2446000000000002
aF0.21428
aF0
aa(lp11
F-4.242
aF0.22603000000000001
aF0
aa(lp12
F-4.2393000000000001
aF0.23924000000000001
aF0
aa(lp13
F-4.2584999999999997
aF0.25225999999999998
aF0
aa(lp14
F-4.2497999999999996
aF0.26365
aF0
aa(lp15
F-4.2469999999999999
aF0.27687
aF0
aa(lp16
F-4.2363
aF0.28731000000000001
aF0
aaa(lp17
(lp18
F-4.3781999999999996
aF-0.071071999999999996
aF-0.10166
aa(lp19
F-4.3583999999999996
aF-0.057815999999999999
aF-0.1012
aa(lp20
F-4.3525999999999998
aF-0.044822000000000001
aF-0.10106
aa(lp21
F-4.3387000000000002
aF-0.031047999999999999
aF-0.10073
aa(lp22
F-4.3327999999999998
aF-0.020417999999999999
aF-0.10059999999999999
aa(lp23
F-4.3247999999999998
aF-0.0067933999999999998
aF-0.10041
aa(lp24
F-4.3188000000000004
aF0.0052764999999999999
aF-0.10027
aa(lp25
F-4.3087999999999997
aF0.017297
aF-0.10004
aaa(lp26
(lp27
F-4.3994999999999997
aF-0.22441
aF-0.20543
aa(lp28
F-4.3960999999999997
aF-0.21115999999999999
aF-0.20524999999999999
aa(lp29
F-4.3807999999999998
aF-0.19816
aF-0.20449999999999999
aa(lp30
F-4.3712999999999997
aF-0.18473999999999999
aF-0.20404
aa(lp31
F-4.3658999999999999
aF-0.17154
aF-0.20376
aa(lp32
F-4.3544
aF-0.15891
aF-0.20319999999999999
aa(lp33
F-4.3429000000000002
aF-0.14482999999999999
aF-0.20263999999999999
aa(lp34
F-4.3253000000000004
aF-0.13214999999999999
aF-0.20180000000000001
aa(lp35
F-4.2996999999999996
aF-0.1186
aF-0.20058999999999999
aa(lp36
F-4.2939999999999996
aF-0.10569000000000001
aF-0.20030999999999999
aa(lp37
F-4.2743000000000002
aF-0.093266000000000002
aF-0.19938
aa(lp38
F-4.2426000000000004
aF-0.080722000000000002
aF-0.19789000000000001
aa(lp39
F-4.2628000000000004
aF-0.069197999999999996
aF-0.19882
aa(lp40
F-4.2409999999999997
aF-0.056258000000000002
aF-0.19778999999999999
aa(lp41
F-4.2031999999999998
aF-0.043284000000000003
aF-0.19602
aaa(lp42
(lp43
F-4.3437000000000001
aF-0.22156000000000001
aF-0.30414000000000002
aa(lp44
F-4.3444000000000003
aF-0.20868
aF-0.30414000000000002
aa(lp45
F-4.319
aF-0.19536999999999999
aF-0.30231999999999998
aa(lp46
F-4.3056000000000001
aF-0.18196999999999999
aF-0.30135000000000001
aa(lp47
F-4.2801999999999998
aF-0.16816999999999999
aF-0.29953000000000002
aa(lp48
F-4.2946
aF-0.15673000000000001
aF-0.30051
aa(lp49
F-4.2531999999999996
aF-0.14183999999999999
aF-0.29758000000000001
aa(lp50
F-4.2535999999999996
aF-0.12995999999999999
aF-0.29758000000000001
aa(lp51
F-4.2539999999999996
aF-0.11734
aF-0.29758000000000001
aa(lp52
F-4.2045000000000003
aF-0.10349
aF-0.29409000000000002
aaa(lp53
(lp54
F-4.4339000000000004
aF-0.34272999999999998
aF-0.31097000000000002
aa(lp55
F-4.423
aF-0.32790999999999998
aF-0.31014000000000003
aa(lp56
F-4.4218999999999999
aF-0.31541999999999998
aF-0.31
aa(lp57
F-4.4128999999999996
aF-0.30162
aF-0.30930000000000002
aa(lp58
F-4.4217000000000004
aF-0.28981000000000001
aF-0.30986000000000002
aa(lp59
F-4.3947000000000003
aF-0.27417999999999998
aF-0.30791000000000002
aaa(lp60
(lp61
F-4.4766000000000004
aF-0.46261000000000002
aF-0.41987000000000002
aa(lp62
F-4.4640000000000004
aF-0.44872000000000001
aF-0.41857
aa(lp63
F-4.4553000000000003
aF-0.43528
aF-0.41764000000000001
aa(lp64
F-4.4169999999999998
aF-0.41753000000000001
aF-0.41393000000000002
aa(lp65
F-4.4280999999999997
aF-0.40611000000000003
aF-0.41486000000000001
aa(lp66
F-4.4074
aF-0.39179999999999998
aF-0.41281000000000001
aa(lp67
F-4.4143999999999997
aF-0.38
aF-0.41337000000000002
aa(lp68
F-4.4157000000000002
aF-0.36536000000000002
aF-0.41337000000000002
aa(lp69
F-4.4383999999999997
aF-0.35554999999999998
aF-0.41541
aaa(lp70
(lp71
F-4.6734999999999998
aF-0.14279
aF-0.43622
aa(lp72
F-4.6539999999999999
aF-0.12837000000000001
aF-0.43436000000000002
aa(lp73
F-4.6543999999999999
aF-0.11456
aF-0.43436000000000002
aa(lp74
F-4.6486999999999998
aF-0.10144
aF-0.43380999999999997
aa(lp75
F-4.6470000000000002
aF-0.088414999999999994
aF-0.43362000000000001
aa(lp76
F-4.6452
aF-0.075406000000000001
aF-0.43342999999999998
aaa(lp77
(lp78
F-4.6797000000000004
aF-0.36171999999999999
aF-0.43789
aa(lp79
F-4.7125000000000004
aF-0.34938000000000002
aF-0.44086999999999998
aa(lp80
F-4.7502000000000004
aF-0.32467000000000001
aF-0.44420999999999999
aa(lp81
F-4.7511000000000001
aF-0.31141000000000002
aF-0.44420999999999999
aa(lp82
F-4.7500999999999998
aF-0.29635
aF-0.44402000000000003
aa(lp83
F-4.7488999999999999
aF-0.28297
aF-0.44384000000000001
aa(lp84
F-4.7179000000000002
aF-0.26707999999999998
aF-0.44086999999999998
aa(lp85
F-4.6967999999999996
aF-0.25272
aF-0.43881999999999999
aa(lp86
F-4.6776
aF-0.23859
aF-0.43696000000000002
aa(lp87
F-4.6722999999999999
aF-0.22442999999999999
aF-0.43641000000000002
aa(lp88
F-4.6529999999999996
aF-0.21048
aF-0.43454999999999999
aaa(lp89
(lp90
F-4.5246000000000004
aF-0.36244999999999999
aF-0.53081
aa(lp91
F-4.5117000000000003
aF-0.34873999999999999
aF-0.52917999999999998
aa(lp92
F-4.4573
aF-0.33045000000000002
aF-0.52268000000000003
aa(lp93
F-4.4503000000000004
aF-0.31744
aF-0.52175000000000005
aa(lp94
F-4.4353999999999996
aF-0.30314999999999998
aF-0.51988999999999996
aa(lp95
F-4.4283000000000001
aF-0.29024
aF-0.51895999999999998
aa(lp96
F-4.4371
aF-0.27682000000000001
aF-0.51988999999999996
aa(lp97
F-4.4398
aF-0.26455000000000001
aF-0.52012000000000003
aa(lp98
F-4.4386000000000001
aF-0.25125999999999998
aF-0.51988999999999996
aa(lp99
F-4.4471999999999996
aF-0.23930000000000001
aF-0.52081999999999995
aa(lp100
F-4.4419000000000004
aF-0.22656999999999999
aF-0.52012000000000003
aa(lp101
F-4.3968999999999996
aF-0.2112
aF-0.51478000000000002
aaa(lp102
(lp103
F-4.5826000000000002
aF-0.64976
aF-0.54125999999999996
aa(lp104
F-4.5629
aF-0.63314999999999999
aF-0.53871000000000002
aa(lp105
F-4.5548999999999999
aF-0.61828000000000005
aF-0.53754999999999997
aa(lp106
F-4.5488
aF-0.60370999999999997
aF-0.53661999999999999
aa(lp107
F-4.5347999999999997
aF-0.58896000000000004
aF-0.53476000000000001
aa(lp108
F-4.5247999999999999
aF-0.57321
aF-0.53335999999999995
aa(lp109
F-4.5124000000000004
aF-0.55966000000000005
aF-0.53173999999999999
aa(lp110
F-4.4983000000000004
aF-0.54435
aF-0.52988000000000002
aa(lp111
F-4.4939
aF-0.53108999999999995
aF-0.52917999999999998
aa(lp112
F-4.4875999999999996
aF-0.51685000000000003
aF-0.52825
aaa(lp113
(lp114
F-4.6260000000000003
aF-0.68228
aF-0.65717999999999999
aa(lp115
F-4.5887000000000002
aF-0.66369
aF-0.65161000000000002
aa(lp116
F-4.5747999999999998
aF-0.64864999999999995
aF-0.64937999999999996
aa(lp117
F-4.5532000000000004
aF-0.63180999999999998
aF-0.64603999999999995
aa(lp118
F-4.5354000000000001
aF-0.61563000000000001
aF-0.64326000000000005
aa(lp119
F-4.5214999999999996
aF-0.60009000000000001
aF-0.64102999999999999
aa(lp120
F-4.5094000000000003
aF-0.58567000000000002
aF-0.63907999999999998
aa(lp121
F-4.4995000000000003
aF-0.57001000000000002
aF-0.63741000000000003
aa(lp122
F-4.4851999999999999
aF-0.55628
aF-0.63519000000000003
aa(lp123
F-4.4710999999999999
aF-0.54105999999999999
aF-0.63295999999999997
aa(lp124
F-4.4706000000000001
aF-0.52834000000000003
aF-0.63268000000000002
aa(lp125
F-4.4603999999999999
aF-0.51371999999999995
aF-0.63100999999999996
aa(lp126
F-4.4520999999999997
aF-0.49937999999999999
aF-0.62961999999999996
aa(lp127
F-4.4416000000000002
aF-0.48565000000000003
aF-0.62795000000000001
aa(lp128
F-4.4371999999999998
aF-0.47106999999999999
aF-0.62710999999999995
aa(lp129
F-4.4287000000000001
aF-0.45766000000000001
aF-0.62572000000000005
aa(lp130
F-4.4219999999999997
aF-0.44450000000000001
aF-0.62461
aa(lp131
F-4.4154
aF-0.43137999999999999
aF-0.62350000000000005
aa(lp132
F-4.4069000000000003
aF-0.41657
aF-0.62209999999999999
aa(lp133
F-4.4001000000000001
aF-0.40354000000000001
aF-0.62099000000000004
aa(lp134
F-4.3933
aF-0.39055000000000001
aF-0.61987999999999999
aa(lp135
F-4.3905000000000003
aF-0.37794
aF-0.61931999999999998
aaa(lp136
(lp137
F-4.9930000000000003
aF-0.19617999999999999
aF-0.70226999999999995
aa(lp138
F-4.9954999999999998
aF-0.18231
aF-0.70255000000000001
aa(lp139
F-4.9961000000000002
aF-0.16661000000000001
aF-0.70255000000000001
aa(lp140
F-4.9905999999999997
aF-0.15248
aF-0.70170999999999994
aa(lp141
F-4.9732000000000003
aF-0.13718
aF-0.69921
aa(lp142
F-5.0091999999999999
aF-0.12330000000000001
aF-0.70421999999999996
aa(lp143
F-4.9878
aF-0.10883
aF-0.70115000000000005
aa(lp144
F-4.9980000000000002
aF-0.095092999999999997
aF-0.70255000000000001
aa(lp145
F-5.0101000000000004
aF-0.081328999999999999
aF-0.70421999999999996
aa(lp146
F-5.0064000000000002
aF-0.066410999999999998
aF-0.70365999999999995
aa(lp147
F-4.9985999999999997
aF-0.051475
aF-0.70255000000000001
aa(lp148
F-5.0007000000000001
aF-0.035784999999999997
aF-0.70282
aa(lp149
F-5.0048000000000004
aF-0.023584999999999998
aF-0.70338000000000001
aa(lp150
F-4.9850000000000003
aF-0.0078303999999999995
aF-0.7006
aa(lp151
F-4.9850000000000003
aF0.0060902999999999999
aF-0.7006
aa(lp152
F-4.9691000000000001
aF0.019946999999999999
aF-0.69837000000000005
aa(lp153
F-4.9828999999999999
aF0.034787999999999999
aF-0.70032000000000005
aa(lp154
F-4.9927000000000001
aF0.049671
aF-0.70170999999999994
aa(lp155
F-5.0301
aF0.06497
aF-0.70699999999999996
aaa(lp156
(lp157
F-4.5174000000000003
aF-0.74622999999999995
aF-0.75224000000000002
aa(lp158
F-4.4865000000000004
aF-0.72745000000000004
aF-0.74673
aa(lp159
F-4.4706999999999999
aF-0.71369000000000005
aF-0.74380999999999997
aa(lp160
F-4.4593999999999996
aF-0.69672999999999996
aF-0.74153999999999998
aa(lp161
F-4.4494999999999996
aF-0.68325000000000002
aF-0.73958999999999997
aa(lp162
F-4.4397000000000002
aF-0.66905999999999999
aF-0.73765000000000003
aa(lp163
F-4.4379
aF-0.65452999999999995
aF-0.73699999999999999
aa(lp164
F-4.4298999999999999
aF-0.64073000000000002
aF-0.73538000000000003
aa(lp165
F-4.4180000000000001
aF-0.62641000000000002
aF-0.73311000000000004
aa(lp166
F-4.4100999999999999
aF-0.61194999999999999
aF-0.73148999999999997
aa(lp167
F-4.4020999999999999
aF-0.59753000000000001
aF-0.72987000000000002
aa(lp168
F-4.4019000000000004
aF-0.58421000000000001
aF-0.72953999999999997
aa(lp169
F-4.3936999999999999
aF-0.57064000000000004
aF-0.72792000000000001
aa(lp170
F-4.3935000000000004
aF-0.55659000000000003
aF-0.72760000000000002
aa(lp171
F-4.3852000000000002
aF-0.54386999999999996
aF-0.72597999999999996
aa(lp172
F-4.3848000000000003
aF-0.53061999999999998
aF-0.72565000000000002
aa(lp173
F-4.3765000000000001
aF-0.51720999999999995
aF-0.72402999999999995
aa(lp174
F-4.3741000000000003
aF-0.50377000000000005
aF-0.72338000000000002
aa(lp175
F-4.3677000000000001
aF-0.48991000000000001
aF-0.72208000000000006
aa(lp176
F-4.3710000000000004
aF-0.47793000000000002
aF-0.72241
aa(lp177
F-4.3666
aF-0.46356999999999998
aF-0.72143999999999997
aa(lp178
F-4.3658999999999999
aF-0.45117000000000002
aF-0.72111000000000003
aa(lp179
F-4.3651999999999997
aF-0.43878
aF-0.72079000000000004
aa(lp180
F-4.3605
aF-0.42601
aF-0.71982000000000002
aa(lp181
F-4.3598999999999997
aF-0.41213
aF-0.71948999999999996
aa(lp182
F-4.3609999999999998
aF-0.39995000000000003
aF-0.71948999999999996
aa(lp183
F-4.3620999999999999
aF-0.38777
aF-0.71948999999999996
aa(lp184
F-4.3670999999999998
aF-0.37592999999999999
aF-0.72014
aa(lp185
F-4.3662999999999998
aF-0.36127999999999999
aF-0.71982000000000002
aa(lp186
F-4.3731999999999998
aF-0.35032000000000002
aF-0.72079000000000004
aa(lp187
F-4.3761000000000001
aF-0.33826000000000001
aF-0.72111000000000003
aa(lp188
F-4.3693
aF-0.32393
aF-0.71982000000000002
aa(lp189
F-4.3670999999999998
aF-0.29848999999999998
aF-0.71916999999999998
aa(lp190
F-4.3757999999999999
aF-0.28681000000000001
aF-0.72045999999999999
aa(lp191
F-4.3845999999999998
aF-0.27355000000000002
aF-0.72175999999999996
aa(lp192
F-4.3773999999999997
aF-0.26083000000000001
aF-0.72045999999999999
aa(lp193
F-4.3860999999999999
aF-0.24829000000000001
aF-0.72175999999999996
aa(lp194
F-4.3651
aF-0.23488000000000001
aF-0.71819
aa(lp195
F-4.3559000000000001
aF-0.22217999999999999
aF-0.71657000000000004
aaa(lp196
(lp197
F-4.3400999999999996
aF-0.44851000000000002
aF-0.82208000000000003
aa(lp198
F-4.3394000000000004
aF-0.43619000000000002
aF-0.82169999999999999
aa(lp199
F-4.3308
aF-0.42310999999999999
aF-0.81984999999999997
aa(lp200
F-4.3223000000000003
aF-0.40858
aF-0.81799999999999995
aa(lp201
F-4.3273999999999999
aF-0.39687
aF-0.81874000000000002
aa(lp202
F-4.3246000000000002
aF-0.38444
aF-0.81799999999999995
aa(lp203
F-4.3216999999999999
aF-0.37202000000000002
aF-0.81725999999999999
aa(lp204
F-4.3268000000000004
aF-0.35800999999999999
aF-0.81799999999999995
aa(lp205
F-4.3258000000000001
aF-0.34653
aF-0.81762999999999997
aa(lp206
F-4.3307000000000002
aF-0.33474999999999999
aF-0.81837000000000004
aa(lp207
F-4.3316999999999997
aF-0.32113999999999998
aF-0.81837000000000004
aa(lp208
F-4.3403999999999998
aF-0.30959999999999999
aF-0.81984999999999997
aa(lp209
F-4.3452000000000002
aF-0.29698999999999998
aF-0.82059000000000004
aa(lp210
F-4.3539000000000003
aF-0.28537000000000001
aF-0.82208000000000003
aa(lp211
F-4.3528000000000002
aF-0.27156999999999998
aF-0.82169999999999999
aaa(lp212
(lp213
F-5.0464000000000002
aF-0.19827
aF-0.82972999999999997
aa(lp214
F-5.0430000000000001
aF-0.18404000000000001
aF-0.82908000000000004
aa(lp215
F-5.0434999999999999
aF-0.16819000000000001
aF-0.82908000000000004
aa(lp216
F-5.04
aF-0.15398999999999999
aF-0.82843999999999995
aa(lp217
F-5.0365000000000002
aF-0.13891999999999999
aF-0.82779000000000003
aa(lp218
F-5.0427999999999997
aF-0.12413
aF-0.82876000000000005
aa(lp219
F-5.0431999999999997
aF-0.11004
aF-0.82876000000000005
aa(lp220
F-5.0552999999999999
aF-0.096184000000000006
aF-0.83070999999999995
aa(lp221
F-5.0437000000000003
aF-0.081874000000000002
aF-0.82876000000000005
aa(lp222
F-5.0438999999999998
aF-0.066908999999999996
aF-0.82876000000000005
aa(lp223
F-5.0420999999999996
aF-0.051922999999999997
aF-0.82843999999999995
aa(lp224
F-5.0364000000000004
aF-0.036040000000000003
aF-0.82745999999999997
aa(lp225
F-5.0384000000000002
aF-0.023743
aF-0.82779000000000003
aa(lp226
F-5.0345000000000004
aF-0.0079082000000000006
aF-0.82713999999999999
aa(lp227
F-5.0404
aF0.0061580000000000003
aF-0.82811000000000001
aa(lp228
F-5.0364000000000004
aF0.020218
aF-0.82745999999999997
aa(lp229
F-5.0364000000000004
aF0.035160999999999998
aF-0.82745999999999997
aa(lp230
F-5.0244
aF0.049986000000000003
aF-0.82552000000000003
aa(lp231
F-5.0282
aF0.064945000000000003
aF-0.82616999999999996
aa(lp232
F-5.0594999999999999
aF0.079481999999999997
aF-0.83135000000000003
aa(lp233
F-5.0750999999999999
aF0.094787999999999997
aF-0.83394999999999997
aa(lp234
F-5.0865999999999998
aF0.10921
aF-0.83589000000000002
aa(lp235
F-5.1001000000000003
aF0.12553
aF-0.83816000000000002
aa(lp236
F-5.1075999999999997
aF0.1391
aF-0.83945999999999998
aa(lp237
F-5.1520999999999999
aF0.17091000000000001
aF-0.84692000000000001
aa(lp238
F-5.1417000000000002
aF0.18493999999999999
aF-0.84530000000000005
aaa(lp239
(lp240
F-4.5381999999999998
aF-0.66932999999999998
aF-0.86429
aa(lp241
F-4.4759000000000002
aF-0.64737
aF-0.85206999999999999
aa(lp242
F-4.4542999999999999
aF-0.63156000000000001
aF-0.84762999999999999
aa(lp243
F-4.4523000000000001
aF-0.61780000000000002
aF-0.84689000000000003
aa(lp244
F-4.4424000000000001
aF-0.60299999999999998
aF-0.84465999999999997
aa(lp245
F-4.4421999999999997
aF-0.58955999999999997
aF-0.84428999999999998
aa(lp246
F-4.4593999999999996
aF-0.57918000000000003
aF-0.84726000000000001
aa(lp247
F-4.4494999999999996
aF-0.56367999999999996
aF-0.84502999999999995
aa(lp248
F-4.4588000000000001
aF-0.55300000000000005
aF-0.84652000000000005
aa(lp249
F-4.4584999999999999
aF-0.53952999999999995
aF-0.84614999999999996
aa(lp250
F-4.4794999999999998
aF-0.52939000000000003
aF-0.84984999999999999
aa(lp251
F-4.4848999999999997
aF-0.51654
aF-0.85058999999999996
aa(lp252
F-4.4356999999999998
aF-0.49753999999999998
aF-0.84096000000000004
aaa(lp253
(lp254
F-4.2930999999999999
aF-0.35521999999999998
aF-0.91564000000000001
aa(lp255
F-4.2843
aF-0.34320000000000001
aF-0.91356000000000004
aa(lp256
F-4.2831999999999999
aF-0.33107999999999999
aF-0.91315000000000002
aa(lp257
F-4.2843
aF-0.31762000000000001
aF-0.91315000000000002
aa(lp258
F-4.2889999999999997
aF-0.30593999999999999
aF-0.91398000000000001
aa(lp259
F-4.2938000000000001
aF-0.29348000000000002
aF-0.91481000000000001
aa(lp260
F-4.3005000000000004
aF-0.28187000000000001
aF-0.91605999999999999
aa(lp261
F-4.3091999999999997
aF-0.26884000000000002
aF-0.91771999999999998
aa(lp262
F-4.3118999999999996
aF-0.25692999999999999
aF-0.91813999999999996
aa(lp263
F-4.3224
aF-0.24468000000000001
aF-0.92022000000000004
aa(lp264
F-4.3367000000000004
aF-0.23335
aF-0.92313000000000001
aa(lp265
F-4.3432000000000004
aF-0.22153999999999999
aF-0.92437999999999998
aa(lp266
F-4.3731
aF-0.21006
aF-0.93061000000000005
aaa(lp267
(lp268
F-4.9877000000000002
aF-0.21079000000000001
aF-0.94057000000000002
aa(lp269
F-4.9785000000000004
aF-0.19561000000000001
aF-0.93872
aa(lp270
F-4.9946999999999999
aF-0.18228
aF-0.94167999999999996
aa(lp271
F-5.0503
aF-0.16841999999999999
aF-0.95204999999999995
aa(lp272
F-5.0369999999999999
aF-0.15389
aF-0.94945999999999997
aa(lp273
F-5.0236999999999998
aF-0.13857
aF-0.94686999999999999
aa(lp274
F-5.0240999999999998
aF-0.12366000000000001
aF-0.94686999999999999
aa(lp275
F-5.0125999999999999
aF-0.10938000000000001
aF-0.94464999999999999
aa(lp276
F-5.0011000000000001
aF-0.095153000000000001
aF-0.94242000000000004
aa(lp277
F-5.0269000000000004
aF-0.081601000000000007
aF-0.94723999999999997
aa(lp278
F-5.0232000000000001
aF-0.066633999999999999
aF-0.94650000000000001
aa(lp279
F-5.0273000000000003
aF-0.051769999999999997
aF-0.94723999999999997
aa(lp280
F-5.0312999999999999
aF-0.036004000000000001
aF-0.94798000000000004
aa(lp281
F-5.0313999999999997
aF-0.023709999999999998
aF-0.94798000000000004
aa(lp282
F-5.0334000000000003
aF-0.0079065000000000003
aF-0.94835000000000003
aa(lp283
F-5.0294999999999996
aF0.0061447000000000003
aF-0.94760999999999995
aa(lp284
F-5.0294999999999996
aF0.02019
aF-0.94760999999999995
aa(lp285
F-5.0214999999999996
aF0.035056999999999998
aF-0.94613000000000003
aa(lp286
F-5.0155000000000003
aF0.049897999999999998
aF-0.94501999999999997
aa(lp287
F-5.0311000000000003
aF0.064981999999999998
aF-0.94798000000000004
aa(lp288
F-5.0209999999999999
aF0.078877000000000003
aF-0.94613000000000003
aa(lp289
F-5.0659999999999998
aF0.094617999999999994
aF-0.95464000000000004
aa(lp290
F-5.0754999999999999
aF0.10897999999999999
aF-0.95650000000000002
aa(lp291
F-5.0869
aF0.12520999999999999
aF-0.95872000000000002
aa(lp292
F-5.1043000000000003
aF0.13900999999999999
aF-0.96204999999999996
aa(lp293
F-5.1313000000000004
aF0.15498000000000001
aF-0.96723000000000003
aaa(lp294
(lp295
F-4.5136000000000003
aF-0.78693000000000002
aF-0.97385999999999995
aa(lp296
F-4.5025000000000004
aF-0.77044000000000001
aF-0.97094999999999998
aa(lp297
F-4.4969000000000001
aF-0.75656000000000001
aF-0.96928000000000003
aa(lp298
F-4.4934000000000003
aF-0.74226000000000003
aF-0.96804000000000001
aa(lp299
F-4.4859
aF-0.72736000000000001
aF-0.96596000000000004
aa(lp300
F-4.4819000000000004
aF-0.71547000000000005
aF-0.96470999999999996
aa(lp301
F-4.4881000000000002
aF-0.70121
aF-0.96553999999999995
aa(lp302
F-4.4840999999999998
aF-0.68857000000000002
aF-0.96428999999999998
aa(lp303
F-4.4878999999999998
aF-0.67632999999999999
aF-0.96470999999999996
aa(lp304
F-4.4939
aF-0.66279999999999994
aF-0.96553999999999995
aa(lp305
F-4.4957000000000003
aF-0.65024999999999999
aF-0.96553999999999995
aa(lp306
F-4.4955999999999996
aF-0.63741999999999999
aF-0.96513000000000004
aa(lp307
F-4.4916999999999998
aF-0.62326999999999999
aF-0.96387999999999996
aa(lp308
F-4.4896000000000003
aF-0.60941000000000001
aF-0.96304999999999996
aa(lp309
F-4.4701000000000004
aF-0.59326000000000001
aF-0.95847000000000004
aa(lp310
F-4.4638999999999998
aF-0.57977000000000001
aF-0.95681000000000005
aa(lp311
F-4.4501999999999997
aF-0.56376999999999999
aF-0.95347999999999999
aa(lp312
F-4.4245000000000001
aF-0.54874999999999996
aF-0.94765999999999995
aa(lp313
F-4.4085999999999999
aF-0.53349999999999997
aF-0.94391999999999998
aa(lp314
F-4.3810000000000002
aF-0.51775000000000004
aF-0.93767999999999996
aa(lp315
F-4.3727999999999998
aF-0.50363000000000002
aF-0.93559999999999999
aa(lp316
F-4.3567
aF-0.48869000000000001
aF-0.93186000000000002
aa(lp317
F-4.3639000000000001
aF-0.47715999999999997
aF-0.93310999999999999
aa(lp318
F-4.3536999999999999
aF-0.4622
aF-0.93061000000000005
aa(lp319
F-4.3666999999999998
aF-0.45124999999999998
aF-0.93310999999999999
aa(lp320
F-4.3678999999999997
aF-0.43906000000000001
aF-0.93310999999999999
aa(lp321
F-4.3651999999999997
aF-0.42648000000000003
aF-0.93228
aa(lp322
F-4.3781999999999996
aF-0.41387000000000002
aF-0.93476999999999999
aa(lp323
F-4.3910999999999998
aF-0.40271000000000001
aF-0.93727000000000005
aaa(lp324
(lp325
F-4.2736000000000001
aF-0.31683
aF-1.0154000000000001
aa(lp326
F-4.2628000000000004
aF-0.30407000000000001
aF-1.0125999999999999
aa(lp327
F-4.2694999999999999
aF-0.29182000000000002
aF-1.014
aa(lp328
F-4.2742000000000004
aF-0.28015000000000001
aF-1.0148999999999999
aa(lp329
F-4.2789999999999999
aF-0.26695999999999998
aF-1.0158
aa(lp330
F-4.2893999999999997
aF-0.25558999999999998
aF-1.0181
aa(lp331
F-4.2979000000000003
aF-0.24329999999999999
aF-1.02
aa(lp332
F-4.3044000000000002
aF-0.23161000000000001
aF-1.0214000000000001
aa(lp333
F-4.3244999999999996
aF-0.22058
aF-1.026
aa(lp334
F-4.3231999999999999
aF-0.20766000000000001
aF-1.0255000000000001
aaa(lp335
(lp336
F-4.5011999999999999
aF-0.19023000000000001
aF-1.0674999999999999
aa(lp337
F-4.4687000000000001
aF-0.17558000000000001
aF-1.0597000000000001
aa(lp338
F-4.4614000000000003
aF-0.16281000000000001
aF-1.0578000000000001
aa(lp339
F-4.4736000000000002
aF-0.14918999999999999
aF-1.0606
aa(lp340
F-4.4817999999999998
aF-0.13693
aF-1.0624
aa(lp341
F-4.4763000000000002
aF-0.12347
aF-1.0609999999999999
aa(lp342
F-4.4786000000000001
aF-0.11024
aF-1.0615000000000001
aa(lp343
F-4.4614000000000003
aF-0.097348000000000004
aF-1.0572999999999999
aa(lp344
F-4.4461000000000004
aF-0.084593000000000002
aF-1.0537000000000001
aa(lp345
F-4.4366000000000003
aF-0.072019
aF-1.0513999999999999
aa(lp346
F-4.4173
aF-0.058597000000000003
aF-1.0467
aa(lp347
F-4.4116
aF-0.045429999999999998
aF-1.0454000000000001
aa(lp348
F-4.4137000000000004
aF-0.031584000000000001
aF-1.0458000000000001
aa(lp349
F-4.4078999999999997
aF-0.020771999999999999
aF-1.0444
aa(lp350
F-4.4001999999999999
aF-0.0069118000000000001
aF-1.0426
aa(lp351
F-4.4059999999999997
aF0.0053829999999999998
aF-1.044
aa(lp352
F-4.4059999999999997
aF0.017687000000000001
aF-1.044
aa(lp353
F-4.3941999999999997
aF0.030678
aF-1.0411999999999999
aa(lp354
F-4.3979999999999997
aF0.043754000000000001
aF-1.0421
aa(lp355
F-4.3997999999999999
aF0.056828999999999998
aF-1.0426
aa(lp356
F-4.3898999999999999
aF0.068961999999999996
aF-1.0403
aa(lp357
F-4.3780000000000001
aF0.081768999999999994
aF-1.0375000000000001
aa(lp358
F-4.3992000000000004
aF0.094453999999999996
aF-1.0426
aa(lp359
F-4.4455
aF0.10942
aF-1.0537000000000001
aa(lp360
F-4.476
aF0.13519
aF-1.0609999999999999
aa(lp361
F-4.4696999999999996
aF0.14828
aF-1.0597000000000001
aa(lp362
F-4.4615
aF0.16048000000000001
aF-1.0578000000000001
aa(lp363
F-4.4006999999999996
aF0.17213000000000001
aF-1.0435000000000001
aa(lp364
F-4.3952
aF0.20881
aF-1.0426
aaa(lp365
(lp366
F-4.5064000000000002
aF-0.81327000000000005
aF-1.085
aa(lp367
F-4.4974999999999996
aF-0.79706999999999995
aF-1.0822000000000001
aa(lp368
F-4.4939
aF-0.78349999999999997
aF-1.0809
aa(lp369
F-4.4924999999999997
aF-0.76873000000000002
aF-1.0799000000000001
aa(lp370
F-4.5118999999999998
aF-0.75907999999999998
aF-1.0841000000000001
aa(lp371
F-4.5010000000000003
aF-0.7298
aF-1.0804
aa(lp372
F-4.5199999999999996
aF-0.72157000000000004
aF-1.0846
aa(lp373
F-4.5147000000000004
aF-0.70537000000000005
aF-1.0827
aa(lp374
F-4.4973000000000001
aF-0.69059000000000004
aF-1.0781000000000001
aa(lp375
F-4.4722999999999997
aF-0.67396999999999996
aF-1.0716000000000001
aa(lp376
F-4.4703999999999997
aF-0.64659
aF-1.0703
aa(lp377
F-4.4741
aF-0.63436999999999999
aF-1.0707
aa(lp378
F-4.4702000000000002
aF-0.62029000000000001
aF-1.0692999999999999
aa(lp379
F-4.4565999999999999
aF-0.60492999999999997
aF-1.0656000000000001
aa(lp380
F-4.4486999999999997
aF-0.59043000000000001
aF-1.0632999999999999
aa(lp381
F-4.4406999999999996
aF-0.57674999999999998
aF-1.0609999999999999
aa(lp382
F-4.4424999999999999
aF-0.56279000000000001
aF-1.0609999999999999
aa(lp383
F-4.415
aF-0.54757
aF-1.0541
aa(lp384
F-4.4103000000000003
aF-0.52122000000000002
aF-1.0523
aa(lp385
F-4.4002999999999997
aF-0.50678999999999996
aF-1.0495000000000001
aa(lp386
F-4.4012000000000002
aF-0.48122999999999999
aF-1.0489999999999999
aa(lp387
F-4.3795000000000002
aF-0.46494000000000002
aF-1.0435000000000001
aa(lp388
F-4.3323
aF-0.44769999999999999
aF-1.032
aa(lp389
F-4.3181000000000003
aF-0.43404999999999999
aF-1.0283
aa(lp390
F-4.3212000000000002
aF-0.42218
aF-1.0287999999999999
aa(lp391
F-4.3361000000000001
aF-0.40988000000000002
aF-1.032
aa(lp392
F-4.3372000000000002
aF-0.39777000000000001
aF-1.032
aa(lp393
F-4.3304999999999998
aF-0.38496999999999998
aF-1.0301
aa(lp394
F-4.351
aF-0.37453999999999998
aF-1.0347
aa(lp395
F-4.3600000000000003
aF-0.36075000000000002
aF-1.0366
aaa(lp396
(lp397
F-4.9698000000000002
aF-0.22481000000000001
aF-1.0573999999999999
aa(lp398
F-4.9508999999999999
aF-0.20923
aF-1.0532999999999999
aa(lp399
F-4.9611999999999998
aF-0.19492999999999999
aF-1.0553999999999999
aa(lp400
F-4.9794
aF-0.18171000000000001
aF-1.0590999999999999
aa(lp401
F-4.9935999999999998
aF-0.16653000000000001
aF-1.0620000000000001
aa(lp402
F-5.0115999999999996
aF-0.15312000000000001
aF-1.0658000000000001
aa(lp403
F-5.0101000000000004
aF-0.13819999999999999
aF-1.0652999999999999
aa(lp404
F-5.0144000000000002
aF-0.12343
aF-1.0662
aa(lp405
F-5.0011000000000001
aF-0.10911999999999999
aF-1.0632999999999999
aa(lp406
F-4.9973999999999998
aF-0.095083000000000001
aF-1.0624
aa(lp407
F-5.0054999999999996
aF-0.081254000000000007
aF-1.0641
aa(lp408
F-4.9978999999999996
aF-0.066297999999999996
aF-1.0624
aa(lp409
F-5.0038999999999998
aF-0.051529999999999999
aF-1.0637000000000001
aa(lp410
F-5.0002000000000004
aF-0.035781
aF-1.0628
aa(lp411
F-5.0041000000000002
aF-0.023581999999999999
aF-1.0637000000000001
aa(lp412
F-5.0003000000000002
aF-0.0078543999999999992
aF-1.0628
aa(lp413
F-5.0042
aF0.0061138
aF-1.0637000000000001
aa(lp414
F-5.0003000000000002
aF0.020072
aF-1.0628
aa(lp415
F-4.9884000000000004
aF0.034826000000000003
aF-1.0603
aa(lp416
F-4.9745999999999997
aF0.049491
aF-1.0573999999999999
aa(lp417
F-4.9978999999999996
aF0.064554
aF-1.0624
aa(lp418
F-5.0054999999999996
aF0.078632999999999995
aF-1.0641
aa(lp419
F-5.0343
aF0.10809000000000001
aF-1.0703
aa(lp420
F-5.0339999999999998
aF0.12391000000000001
aF-1.0703
aa(lp421
F-5.0239000000000003
aF0.13682
aF-1.0683
aa(lp422
F-5.0214999999999996
aF0.15167
aF-1.0678000000000001
aa(lp423
F-5.0229999999999997
aF0.16663
aF-1.0683
aa(lp424
F-5.0166000000000004
aF0.18043999999999999
aF-1.0669999999999999
aa(lp425
F-4.9866999999999999
aF0.19506000000000001
aF-1.0608
aaa(lp426
(lp427
F-4.4964000000000004
aF-0.78393000000000002
aF-1.1948000000000001
aa(lp428
F-4.4740000000000002
aF-0.76556000000000002
aF-1.1882999999999999
aa(lp429
F-4.4837999999999996
aF-0.75434999999999997
aF-1.1902999999999999
aa(lp430
F-4.4763999999999999
aF-0.73946999999999996
aF-1.1877
aa(lp431
F-4.4865000000000004
aF-0.70096999999999998
aF-1.1888000000000001
aa(lp432
F-4.5018000000000002
aF-0.69128000000000001
aF-1.1922999999999999
aa(lp433
F-4.4997999999999996
aF-0.67813000000000001
aF-1.1913
aa(lp434
F-4.5038999999999998
aF-0.66427000000000003
aF-1.1918
aa(lp435
F-4.4808000000000003
aF-0.64809000000000005
aF-1.1852
aa(lp436
F-4.452
aF-0.63122999999999996
aF-1.1771
aa(lp437
F-4.4345999999999997
aF-0.61536000000000002
aF-1.1719999999999999
aa(lp438
F-4.4287999999999998
aF-0.60116000000000003
aF-1.1699999999999999
aa(lp439
F-4.4210000000000003
aF-0.58674000000000004
aF-1.1675
aa(lp440
F-4.4149000000000003
aF-0.57340000000000002
aF-1.1655
aa(lp441
F-4.4051999999999998
aF-0.55806
aF-1.1624000000000001
aa(lp442
F-4.4123999999999999
aF-0.54723999999999995
aF-1.1638999999999999
aa(lp443
F-4.4100999999999999
aF-0.53368000000000004
aF-1.1629
aa(lp444
F-4.4116
aF-0.52137
aF-1.1629
aa(lp445
F-4.4131
aF-0.50827999999999995
aF-1.1629
aa(lp446
F-4.4108000000000001
aF-0.49475000000000002
aF-1.1618999999999999
aa(lp447
F-4.4024999999999999
aF-0.48137999999999997
aF-1.1594
aa(lp448
F-4.3654999999999999
aF-0.46345999999999998
aF-1.1493
aa(lp449
F-4.3379000000000003
aF-0.44828000000000001
aF-1.1416999999999999
aa(lp450
F-4.3198999999999996
aF-0.43423
aF-1.1366000000000001
aa(lp451
F-4.3288000000000002
aF-0.42292000000000002
aF-1.1386000000000001
aa(lp452
F-4.3243999999999998
aF-0.40877000000000002
aF-1.1371
aa(lp453
F-4.3235000000000001
aF-0.39651999999999998
aF-1.1366000000000001
aa(lp454
F-4.3246000000000002
aF-0.38444
aF-1.1366000000000001
aa(lp455
F-4.3296000000000001
aF-0.37269999999999998
aF-1.1375999999999999
aa(lp456
F-4.3578000000000001
aF-0.36057
aF-1.1447000000000001
aa(lp457
F-4.3780000000000001
aF-0.35071000000000002
aF-1.1497999999999999
aaa(lp458
(lp459
F-4.5316999999999998
aF-0.72341999999999995
aF-1.3159000000000001
aa(lp460
F-4.4866000000000001
aF-0.70096999999999998
aF-1.3021
aa(lp461
F-4.4713000000000003
aF-0.68659999999999999
aF-1.2970999999999999
aa(lp462
F-4.4618000000000002
aF-0.67239000000000004
aF-1.2938000000000001
aa(lp463
F-4.4448999999999996
aF-0.65556999999999999
aF-1.2883
aa(lp464
F-4.4276
aF-0.64039999999999997
aF-1.2827999999999999
aa(lp465
F-4.4351000000000003
aF-0.62883999999999995
aF-1.2845
aa(lp466
F-4.4370000000000003
aF-0.61568000000000001
aF-1.2845
aa(lp467
F-4.4291999999999998
aF-0.60121999999999998
aF-1.2817000000000001
aa(lp468
F-4.4234
aF-0.58706000000000003
aF-1.2795000000000001
aa(lp469
F-4.4154999999999998
aF-0.57347000000000004
aF-1.2767999999999999
aa(lp470
F-4.3906000000000001
aF-0.55620999999999998
aF-1.2689999999999999
aa(lp471
F-4.3728999999999996
aF-0.54235
aF-1.2635000000000001
aa(lp472
F-4.3726000000000003
aF-0.52914000000000005
aF-1.2629999999999999
aa(lp473
F-4.3682999999999996
aF-0.51624999999999999
aF-1.2613000000000001
aa(lp474
F-4.3737000000000004
aF-0.50373000000000001
aF-1.2624
aa(lp475
F-4.3540999999999999
aF-0.48838999999999999
aF-1.2564
aa(lp476
F-4.3689
aF-0.47770000000000001
aF-1.2602
aa(lp477
F-4.3608000000000002
aF-0.46294999999999997
aF-1.2575000000000001
aa(lp478
F-4.3734999999999999
aF-0.45195999999999997
aF-1.2607999999999999
aa(lp479
F-4.3747999999999996
aF-0.43974000000000002
aF-1.2607999999999999
aa(lp480
F-4.3817000000000004
aF-0.42809000000000003
aF-1.2624
aa(lp481
F-4.4078999999999997
aF-0.41666999999999998
aF-1.2696000000000001
aaa(lp482
(lp483
F-4.2347999999999999
aF-0.77571000000000001
aF-1.3433999999999999
aa(lp484
F-4.2424999999999997
aF-0.76563000000000003
aF-1.3452
aa(lp485
F-4.2447999999999997
aF-0.75229999999999997
aF-1.3452
aa(lp486
F-4.2393999999999998
aF-0.73912999999999995
aF-1.3428
aa(lp487
F-4.2323000000000004
aF-0.72419999999999995
aF-1.3398000000000001
aa(lp488
F-4.2381000000000002
aF-0.71301000000000003
aF-1.341
aa(lp489
F-4.2363999999999997
aF-0.69981000000000004
aF-1.3398000000000001
aa(lp490
F-4.2478999999999996
aF-0.68876999999999999
aF-1.3428
aa(lp491
F-4.242
aF-0.67718
aF-1.3404
aa(lp492
F-4.2499000000000002
aF-0.66400000000000003
aF-1.3422000000000001
aa(lp493
F-4.2515999999999998
aF-0.65286999999999995
aF-1.3422000000000001
aa(lp494
F-4.2534000000000001
aF-0.64098999999999995
aF-1.3422000000000001
aa(lp495
F-4.2534999999999998
aF-0.62734999999999996
aF-1.3415999999999999
aa(lp496
F-4.2609000000000004
aF-0.61629
aF-1.3433999999999999
aa(lp497
F-4.2645
aF-0.60465000000000002
aF-1.3440000000000001
aa(lp498
F-4.2587000000000002
aF-0.59094999999999998
aF-1.3415999999999999
aa(lp499
F-4.2660999999999998
aF-0.57908000000000004
aF-1.3433999999999999
aa(lp500
F-4.2641
aF-0.56591999999999998
aF-1.3422000000000001
aa(lp501
F-4.2713000000000001
aF-0.55474999999999997
aF-1.3440000000000001
aa(lp502
F-4.2710999999999997
aF-0.54108000000000001
aF-1.3433999999999999
aa(lp503
F-4.2744
aF-0.53013999999999994
aF-1.3440000000000001
aa(lp504
F-4.2645999999999997
aF-0.51607000000000003
aF-1.3404
aa(lp505
F-4.2774000000000001
aF-0.50551000000000001
aF-1.3440000000000001
aa(lp506
F-4.2751000000000001
aF-0.49237999999999998
aF-1.3428
aa(lp507
F-4.2784000000000004
aF-0.47989999999999999
aF-1.3433999999999999
aa(lp508
F-4.2778999999999998
aF-0.46775
aF-1.3428
aa(lp509
F-4.2831000000000001
aF-0.45471
aF-1.3440000000000001
aa(lp510
F-4.2862999999999998
aF-0.44294
aF-1.3446
aa(lp511
F-4.2836999999999996
aF-0.43058999999999997
aF-1.3433999999999999
aa(lp512
F-4.2849000000000004
aF-0.41861999999999999
aF-1.3433999999999999
aa(lp513
F-4.2881
aF-0.40533999999999998
aF-1.3440000000000001
aa(lp514
F-4.2892000000000001
aF-0.39337
aF-1.3440000000000001
aa(lp515
F-4.2865000000000002
aF-0.38105
aF-1.3428
aa(lp516
F-4.2931999999999997
aF-0.36957000000000001
aF-1.3446
aa(lp517
F-4.2868000000000004
aF-0.35470000000000002
aF-1.3422000000000001
aa(lp518
F-4.2858000000000001
aF-0.34332000000000001
aF-1.3415999999999999
aa(lp519
F-4.2868000000000004
aF-0.33134999999999998
aF-1.3415999999999999
aa(lp520
F-4.2991999999999999
aF-0.31873000000000001
aF-1.3452
aa(lp521
F-4.2866999999999997
aF-0.30576999999999999
aF-1.341
aa(lp522
F-4.2857000000000003
aF-0.29292000000000001
aF-1.3404
aa(lp523
F-4.2846000000000002
aF-0.28083000000000002
aF-1.3398000000000001
aa(lp524
F-4.2911999999999999
aF-0.26772000000000001
aF-1.3415999999999999
aa(lp525
F-4.2957000000000001
aF-0.25596999999999998
aF-1.3428
aa(lp526
F-4.3022
aF-0.24354000000000001
aF-1.3446
aa(lp527
F-4.2952000000000004
aF-0.23111999999999999
aF-1.3422000000000001
aa(lp528
F-4.3053999999999997
aF-0.21961
aF-1.3452
aa(lp529
F-4.2946
aF-0.20627999999999999
aF-1.3415999999999999
aa(lp530
F-4.2950999999999997
aF-0.19428999999999999
aF-1.3415999999999999
aa(lp531
F-4.3014000000000001
aF-0.18179000000000001
aF-1.3433999999999999
aa(lp532
F-4.2904999999999998
aF-0.16857
aF-1.3398000000000001
aa(lp533
F-4.3042999999999996
aF-0.15708
aF-1.3440000000000001
aa(lp534
F-4.3029000000000002
aF-0.14349000000000001
aF-1.3433999999999999
aa(lp535
F-4.3014000000000001
aF-0.13142000000000001
aF-1.3428
aa(lp536
F-4.2941000000000003
aF-0.11844
aF-1.3404
aa(lp537
F-4.2981999999999996
aF-0.10580000000000001
aF-1.3415999999999999
aa(lp538
F-4.2984999999999998
aF-0.093794000000000002
aF-1.3415999999999999
aa(lp539
F-4.3083
aF-0.081972000000000003
aF-1.3446
aa(lp540
F-4.2971000000000004
aF-0.069753999999999997
aF-1.341
aa(lp541
F-4.2953000000000001
aF-0.056979000000000002
aF-1.3404
aa(lp542
F-4.2935999999999996
aF-0.044214999999999997
aF-1.3398000000000001
aa(lp543
F-4.2956000000000003
aF-0.030738999999999999
aF-1.3404
aa(lp544
F-4.3071000000000002
aF-0.020296999999999999
aF-1.3440000000000001
aa(lp545
F-4.3033999999999999
aF-0.0067597000000000004
aF-1.3428
aa(lp546
F-4.3014000000000001
aF0.0052551999999999998
aF-1.3422000000000001
aa(lp547
F-4.3052000000000001
aF0.017281999999999999
aF-1.3433999999999999
aa(lp548
F-4.3013000000000003
aF0.030030000000000001
aF-1.3422000000000001
aa(lp549
F-4.3030999999999997
aF0.042811000000000002
aF-1.3428
aa(lp550
F-4.3048999999999999
aF0.055603
aF-1.3433999999999999
aa(lp551
F-4.3143000000000002
aF0.067774000000000001
aF-1.3464
aa(lp552
F-4.3083
aF0.080467999999999998
aF-1.3446
aa(lp553
F-4.3156999999999996
aF0.092661999999999994
aF-1.347
aa(lp554
F-4.3154000000000003
aF0.10621999999999999
aF-1.347
aa(lp555
F-4.3132000000000001
aF0.11747
aF-1.3464
aa(lp556
F-4.3148
aF0.13031999999999999
aF-1.347
aa(lp557
F-4.3029000000000002
aF0.14274000000000001
aF-1.3433999999999999
aa(lp558
F-4.3063000000000002
aF0.15489
aF-1.3446
aa(lp559
F-4.3114999999999997
aF0.16864999999999999
aF-1.3464
aa(lp560
F-4.3109999999999999
aF0.18068999999999999
aF-1.3464
aa(lp561
F-4.3143000000000002
aF0.19289000000000001
aF-1.3475999999999999
aa(lp562
F-4.3137999999999996
aF0.20494000000000001
aF-1.3475999999999999
aa(lp563
F-4.3055000000000003
aF0.21734999999999999
aF-1.3452
aa(lp564
F-4.3182
aF0.23008999999999999
aF-1.3493999999999999
aa(lp565
F-4.3117999999999999
aF0.24332999999999999
aF-1.3475999999999999
aa(lp566
F-4.3110999999999997
aF0.25536999999999999
aF-1.3475999999999999
aa(lp567
F-4.3141999999999996
aF0.26763999999999999
aF-1.3488
aa(lp568
F-4.3113999999999999
aF0.28106999999999999
aF-1.3482000000000001
aa(lp569
F-4.3182999999999998
aF0.29287999999999997
aF-1.3506
aa(lp570
F-4.3116000000000003
aF0.30603000000000002
aF-1.3488
aa(lp571
F-4.3106999999999998
aF0.31807000000000002
aF-1.3488
aa(lp572
F-4.3079000000000001
aF0.32995999999999998
aF-1.3482000000000001
aa(lp573
F-4.3049999999999997
aF0.34333999999999998
aF-1.3475999999999999
aa(lp574
F-4.306
aF0.35476999999999997
aF-1.3482000000000001
aa(lp575
F-4.3068
aF0.36770999999999998
aF-1.3488
aa(lp576
F-4.3018999999999998
aF0.38014999999999999
aF-1.3475999999999999
aa(lp577
F-4.3045999999999998
aF0.39251000000000003
aF-1.3488
aa(lp578
F-4.2958999999999996
aF0.40381
aF-1.3464
aa(lp579
F-4.2984999999999998
aF0.41616999999999998
aF-1.3475999999999999
aa(lp580
F-4.2934000000000001
aF0.42930000000000001
aF-1.3464
aa(lp581
F-4.3015999999999996
aF0.44301000000000001
aF-1.3493999999999999
aa(lp582
F-4.2946999999999997
aF0.45441999999999999
aF-1.3475999999999999
aa(lp583
F-4.2969999999999997
aF0.46832000000000001
aF-1.3488
aa(lp584
F-4.2919
aF0.47989999999999999
aF-1.3475999999999999
aa(lp585
F-4.2925000000000004
aF0.49135000000000001
aF-1.3482000000000001
aa(lp586
F-4.2984999999999998
aF0.50571999999999995
aF-1.3506
aa(lp587
F-4.2854999999999999
aF0.51785000000000003
aF-1.347
aa(lp588
F-4.2899000000000003
aF0.52976999999999996
aF-1.3488
aa(lp589
F-4.2884000000000002
aF0.54174999999999995
aF-1.3488
aa(lp590
F-4.2831000000000001
aF0.55323
aF-1.3475999999999999
aa(lp591
F-4.2908999999999997
aF0.56718999999999997
aF-1.3506
aa(lp592
F-4.2854000000000001
aF0.57940000000000003
aF-1.3493999999999999
aa(lp593
F-4.2816000000000001
aF0.59260000000000002
aF-1.3488
aa(lp594
F-4.2836999999999996
aF0.60509000000000002
aF-1.3500000000000001
aa(lp595
F-4.2763999999999998
aF0.61623000000000006
aF-1.3482000000000001
aa(lp596
F-4.2801999999999998
aF0.62975000000000003
aF-1.3500000000000001
aa(lp597
F-4.2427000000000001
aF0.63558000000000003
aF-1.3386
aaa(lp598
(lp599
F-4.6706000000000003
aF-0.41520000000000001
aF-1.3446
aa(lp600
F-4.6718000000000002
aF-0.40215000000000001
aF-1.3446
aa(lp601
F-4.6711
aF-0.38650000000000001
aF-1.3440000000000001
aa(lp602
F-4.6741000000000001
aF-0.37441999999999998
aF-1.3446
aa(lp603
F-4.6788999999999996
aF-0.36166999999999999
aF-1.3456999999999999
aa(lp604
F-4.6780999999999997
aF-0.34682000000000002
aF-1.3451
aa(lp605
F-4.6752000000000002
aF-0.33348
aF-1.3440000000000001
aa(lp606
F-4.6820000000000004
aF-0.32000000000000001
aF-1.3456999999999999
aa(lp607
F-4.6790000000000003
aF-0.30668000000000001
aF-1.3446
aa(lp608
F-4.6798999999999999
aF-0.29198000000000002
aF-1.3446
aa(lp609
F-4.6787999999999998
aF-0.27878999999999998
aF-1.3440000000000001
aa(lp610
F-4.6757999999999997
aF-0.26468999999999998
aF-1.3429
aa(lp611
F-4.6860999999999997
aF-0.25214999999999999
aF-1.3456999999999999
aa(lp612
F-4.6905999999999999
aF-0.23926
aF-1.3468
aa(lp613
F-4.6836000000000002
aF-0.22497
aF-1.3446
aa(lp614
F-4.6841999999999997
aF-0.21189
aF-1.3446
aa(lp615
F-4.6848999999999998
aF-0.19799
aF-1.3446
aa(lp616
F-4.6853999999999996
aF-0.18409
aF-1.3446
aa(lp617
F-4.6802000000000001
aF-0.17080000000000001
aF-1.3429
aa(lp618
F-4.6863999999999999
aF-0.15628
aF-1.3446
aa(lp619
F-4.6867999999999999
aF-0.14319999999999999
aF-1.3446
aa(lp620
F-4.6852999999999998
aF-0.12923999999999999
aF-1.3440000000000001
aa(lp621
F-4.6894999999999998
aF-0.11543
aF-1.3451
aa(lp622
F-4.6879
aF-0.10229000000000001
aF-1.3446
aa(lp623
F-4.6882000000000001
aF-0.089199000000000001
aF-1.3446
aa(lp624
F-4.6902999999999997
aF-0.076137999999999997
aF-1.3451
aa(lp625
F-4.6943999999999999
aF-0.062272000000000001
aF-1.3462000000000001
aa(lp626
F-4.6906999999999996
aF-0.048304
aF-1.3451
aa(lp627
F-4.6928000000000001
aF-0.033581
aF-1.3456999999999999
aa(lp628
F-4.6928000000000001
aF-0.022114999999999999
aF-1.3456999999999999
aa(lp629
F-4.6890000000000001
aF-0.0073654999999999997
aF-1.3446
aa(lp630
F-4.6890000000000001
aF0.0057286999999999998
aF-1.3446
aa(lp631
F-4.6966999999999999
aF0.018853999999999999
aF-1.3468
aa(lp632
F-4.6870000000000003
aF0.032722000000000001
aF-1.3440000000000001
aa(lp633
F-4.6925999999999997
aF0.046685999999999998
aF-1.3456999999999999
aa(lp634
F-4.6924999999999999
aF0.060609000000000003
aF-1.3456999999999999
aa(lp635
F-4.6942000000000004
aF0.073743000000000003
aF-1.3462000000000001
aa(lp636
F-4.6920999999999999
aF0.087635000000000005
aF-1.3456999999999999
aa(lp637
F-4.6936999999999998
aF0.10077999999999999
aF-1.3462000000000001
aa(lp638
F-4.6971999999999996
aF0.11562
aF-1.3472999999999999
aa(lp639
F-4.6891999999999996
aF0.12770999999999999
aF-1.3451
aa(lp640
F-4.6868999999999996
aF0.14155999999999999
aF-1.3446
aa(lp641
F-4.6921999999999997
aF0.15565999999999999
aF-1.3462000000000001
aa(lp642
F-4.6955999999999998
aF0.16889999999999999
aF-1.3472999999999999
aa(lp643
F-4.6912000000000003
aF0.1835
aF-1.3462000000000001
aa(lp644
F-4.6925999999999997
aF0.19667999999999999
aF-1.3468
aa(lp645
F-4.6901000000000002
aF0.2097
aF-1.3462000000000001
aa(lp646
F-4.6856999999999998
aF0.22261
aF-1.3451
aa(lp647
F-4.6772999999999998
aF0.23612
aF-1.3429
aa(lp648
F-4.6555
aF0.24806
aF-1.3368
aaa(lp649
(lp650
F-3.9083000000000001
aF-0.71589000000000003
aF-1.3426
aa(lp651
F-3.9157000000000002
aF-0.70667000000000002
aF-1.3445
aa(lp652
F-3.9161000000000001
aF-0.69403000000000004
aF-1.3439000000000001
aa(lp653
F-3.9180000000000001
aF-0.68308999999999997
aF-1.3439000000000001
aa(lp654
F-3.9144999999999999
aF-0.66981999999999997
aF-1.3419000000000001
aa(lp655
F-3.9163999999999999
aF-0.65888999999999998
aF-1.3419000000000001
aa(lp656
F-3.9201999999999999
aF-0.64758000000000004
aF-1.3426
aa(lp657
F-3.9165000000000001
aF-0.63502999999999998
aF-1.3406
aa(lp658
F-3.9255
aF-0.62665000000000004
aF-1.3431999999999999
aa(lp659
F-3.9276
aF-0.61363000000000001
aF-1.3431999999999999
aa(lp660
F-3.931
aF-0.60363999999999995
aF-1.3439000000000001
aa(lp661
F-3.9251999999999998
aF-0.59153
aF-1.3412999999999999
aa(lp662
F-3.927
aF-0.57918999999999998
aF-1.3412999999999999
aa(lp663
F-3.9399000000000002
aF-0.56984999999999997
aF-1.3451
aa(lp664
F-3.9415
aF-0.55884999999999996
aF-1.3451
aa(lp665
F-3.9392999999999998
aF-0.54662999999999995
aF-1.3439000000000001
aa(lp666
F-3.9466000000000001
aF-0.53569999999999995
aF-1.3458000000000001
aa(lp667
F-3.9331
aF-0.52200000000000002
aF-1.3406
aa(lp668
F-3.9514999999999998
aF-0.51321000000000006
aF-1.3464
aa(lp669
F-3.9493
aF-0.50031999999999999
aF-1.3451
aa(lp670
F-3.9525000000000001
aF-0.49020999999999998
aF-1.3458000000000001
aa(lp671
F-3.9502000000000002
aF-0.47802
aF-1.3445
aa(lp672
F-3.9552999999999998
aF-0.46743000000000001
aF-1.3458000000000001
aa(lp673
F-3.9491000000000001
aF-0.45483000000000001
aF-1.3431999999999999
aa(lp674
F-3.9542000000000002
aF-0.44352999999999998
aF-1.3445
aa(lp675
F-3.9460000000000002
aF-0.43146000000000001
aF-1.3412999999999999
aa(lp676
F-3.9586000000000001
aF-0.42026000000000002
aF-1.3451
aa(lp677
F-3.9579
aF-0.40900999999999998
aF-1.3445
aa(lp678
F-3.9609000000000001
aF-0.39815
aF-1.3451
aa(lp679
F-3.9639000000000002
aF-0.38727
aF-1.3458000000000001
aa(lp680
F-3.9651000000000001
aF-0.37480999999999998
aF-1.3458000000000001
aa(lp681
F-3.9624000000000001
aF-0.36338999999999999
aF-1.3445
aa(lp682
F-3.9615
aF-0.35215999999999997
aF-1.3439000000000001
aa(lp683
F-3.9700000000000002
aF-0.34173999999999999
aF-1.3464
aa(lp684
F-3.9710999999999999
aF-0.32857999999999998
aF-1.3464
aa(lp685
F-3.9662999999999999
aF-0.31773000000000001
aF-1.3445
aa(lp686
F-3.9708999999999999
aF-0.30693999999999999
aF-1.3458000000000001
aa(lp687
F-3.9700000000000002
aF-0.29432000000000003
aF-1.3451
aa(lp688
F-3.9689000000000001
aF-0.28310000000000002
aF-1.3445
aa(lp689
F-3.9735
aF-0.27157999999999999
aF-1.3458000000000001
aa(lp690
F-3.9742000000000002
aF-0.26049
aF-1.3458000000000001
aa(lp691
F-3.9731999999999998
aF-0.24787999999999999
aF-1.3451
aa(lp692
F-3.9681999999999999
aF-0.23644999999999999
aF-1.3431999999999999
aa(lp693
F-3.9821
aF-0.22542000000000001
aF-1.3476999999999999
aa(lp694
F-3.9712999999999998
aF-0.21368999999999999
aF-1.3439000000000001
aa(lp695
F-3.9738000000000002
aF-0.20269999999999999
aF-1.3445
aa(lp696
F-3.9782000000000002
aF-0.19109000000000001
aF-1.3458000000000001
aa(lp697
F-3.9786999999999999
aF-0.17998
aF-1.3458000000000001
aa(lp698
F-3.9716999999999998
aF-0.16785
aF-1.3431999999999999
aa(lp699
F-3.9834999999999998
aF-0.15651000000000001
aF-1.3471
aa(lp700
F-3.9801000000000002
aF-0.14524999999999999
aF-1.3458000000000001
aa(lp701
F-3.9843999999999999
aF-0.13286999999999999
aF-1.3471
aa(lp702
F-3.9885000000000002
aF-0.12186
aF-1.3483000000000001
aa(lp703
F-3.9887999999999999
aF-0.11002000000000001
aF-1.3483000000000001
aa(lp704
F-3.9815999999999998
aF-0.098003000000000007
aF-1.3458000000000001
aa(lp705
F-3.9855999999999998
aF-0.086966000000000002
aF-1.3471
aa(lp706
F-3.9802
aF-0.075728000000000004
aF-1.3451
aa(lp707
F-3.9878999999999998
aF-0.064736000000000002
aF-1.3476999999999999
aa(lp708
F-3.9918999999999998
aF-0.052954000000000001
aF-1.349
aa(lp709
F-3.9788000000000001
aF-0.040973000000000002
aF-1.3445
aa(lp710
F-3.9807999999999999
aF-0.028486000000000001
aF-1.3451
aa(lp711
F-3.9903
aF-0.018804000000000001
aF-1.3483000000000001
aa(lp712
F-3.9866000000000001
aF-0.0062620999999999996
aF-1.3471
aa(lp713
F-3.9885000000000002
aF0.0048728
aF-1.3476999999999999
aa(lp714
F-3.996
aF0.016041
aF-1.3503000000000001
aa(lp715
F-3.9903
aF0.027858000000000001
aF-1.3483000000000001
aa(lp716
F-3.9939
aF0.039734999999999999
aF-1.3495999999999999
aa(lp717
F-3.9900000000000002
aF0.051535999999999998
aF-1.3483000000000001
aa(lp718
F-3.9954999999999998
aF0.062767000000000003
aF-1.3503000000000001
aa(lp719
F-3.9916
aF0.074551000000000006
aF-1.349
aa(lp720
F-3.9950999999999999
aF0.085778999999999994
aF-1.3503000000000001
aa(lp721
F-3.9948000000000001
aF0.098329
aF-1.3503000000000001
aa(lp722
F-4.0021000000000004
aF0.10899
aF-1.3528
aa(lp723
F-3.9923000000000002
aF0.12058000000000001
aF-1.3495999999999999
aa(lp724
F-3.9918999999999998
aF0.13242999999999999
aF-1.3495999999999999
aa(lp725
F-3.9954000000000001
aF0.14371
aF-1.3509
aa(lp726
F-3.9967999999999999
aF0.15634000000000001
aF-1.3514999999999999
aa(lp727
F-3.9982000000000002
aF0.16757
aF-1.3522000000000001
aa(lp728
F-4.0053000000000001
aF0.17907999999999999
aF-1.3547
aa(lp729
F-3.9971999999999999
aF0.18990000000000001
aF-1.3522000000000001
aa(lp730
F-3.9946999999999999
aF0.20166999999999999
aF-1.3514999999999999
aa(lp731
F-3.9961000000000002
aF0.21292
aF-1.3522000000000001
aa(lp732
F-3.9973000000000001
aF0.22558
aF-1.3528
aa(lp733
F-4.0004
aF0.23696999999999999
aF-1.3541000000000001
aa(lp734
F-3.9922
aF0.24767
aF-1.3514999999999999
aa(lp735
F-3.9914000000000001
aF0.26021
aF-1.3514999999999999
aa(lp736
F-4.0000999999999998
aF0.27129999999999999
aF-1.3547
aa(lp737
F-3.9878999999999998
aF0.28305999999999998
aF-1.3509
aa(lp738
F-3.9927999999999999
aF0.29460999999999998
aF-1.3528
aa(lp739
F-3.9937999999999998
aF0.30591000000000002
aF-1.3534999999999999
aa(lp740
F-3.9891000000000001
aF0.31814999999999999
aF-1.3522000000000001
aa(lp741
F-3.9994999999999998
aF0.32951999999999998
aF-1.3560000000000001
aa(lp742
F-3.9967000000000001
aF0.34122999999999998
aF-1.3553999999999999
aa(lp743
F-3.9918999999999998
aF0.35275000000000001
aF-1.3541000000000001
aa(lp744
F-3.9965000000000002
aF0.36441000000000001
aF-1.3560000000000001
aa(lp745
F-3.9935999999999998
aF0.37540000000000001
aF-1.3553999999999999
aa(lp746
F-3.9868999999999999
aF0.38600000000000001
aF-1.3534999999999999
aa(lp747
F-3.9874999999999998
aF0.39871000000000001
aF-1.3541000000000001
aa(lp748
F-3.9843999999999999
aF0.41034999999999999
aF-1.3534999999999999
aa(lp749
F-3.9794999999999998
aF0.42107
aF-1.3522000000000001
aa(lp750
F-3.9801000000000002
aF0.43378
aF-1.3528
aa(lp751
F-3.9864000000000002
aF0.44573000000000002
aF-1.3553999999999999
aa(lp752
F-3.9813999999999998
aF0.45573999999999998
aF-1.3541000000000001
aa(lp753
F-3.9723999999999999
aF0.46736
aF-1.3514999999999999
aa(lp754
F-3.9860000000000002
aF0.48165000000000002
aF-1.3567
aa(lp755
F-3.9771999999999998
aF0.49115999999999999
aF-1.3541000000000001
aa(lp756
F-3.9758
aF0.50226000000000004
aF-1.3541000000000001
aa(lp757
F-3.9744000000000002
aF0.51336000000000004
aF-1.3541000000000001
aa(lp758
F-3.9729000000000001
aF0.52515000000000001
aF-1.3541000000000001
aa(lp759
F-3.9693999999999998
aF0.53668000000000005
aF-1.3534999999999999
aa(lp760
F-3.9752000000000001
aF0.55018999999999996
aF-1.3560000000000001
aa(lp761
F-3.9661
aF0.56023000000000001
aF-1.3534999999999999
aa(lp762
F-3.9683000000000002
aF0.57184000000000001
aF-1.3547
aa(lp763
F-3.9628999999999999
aF0.58306000000000002
aF-1.3534999999999999
aa(lp764
F-3.9668999999999999
aF0.59428000000000003
aF-1.3553999999999999
aa(lp765
F-3.9632000000000001
aF0.60645000000000004
aF-1.3547
aa(lp766
F-3.9632999999999998
aF0.61780999999999997
aF-1.3553999999999999
aa(lp767
F-3.9653
aF0.62946999999999997
aF-1.3567
aa(lp768
F-3.9598
aF0.63993
aF-1.3553999999999999
aa(lp769
F-3.9521999999999999
aF0.65144999999999997
aF-1.3534999999999999
aa(lp770
F-3.9521999999999999
aF0.66278999999999999
aF-1.3541000000000001
aa(lp771
F-3.9352999999999998
aF0.67196999999999996
aF-1.349
aaa.