(lp1
(lp2
(lp3
F-5.468
aF6.3235999999999999
aF1.1749000000000001
aa(lp4
F-5.4593999999999996
aF6.3493000000000004
aF1.1768000000000001
aa(lp5
F-5.4458000000000002
aF6.3739999999999997
aF1.1781999999999999
aa(lp6
F-5.4344000000000001
aF6.3967000000000001
aF1.1796
aa(lp7
F-5.4192999999999998
aF6.4173999999999998
aF1.1805000000000001
aa(lp8
F-5.4090999999999996
aF6.444
aF1.1823999999999999
aa(lp9
F-5.4010999999999996
aF6.4687999999999999
aF1.1843999999999999
aa(lp10
F-5.3930999999999996
aF6.4961000000000002
aF1.1866000000000001
aa(lp11
F-5.3815
aF6.5236999999999998
aF1.1884999999999999
aa(lp12
F-5.4160000000000004
aF6.6029999999999998
aF1.2001999999999999
aa(lp13
F-5.4615999999999998
aF6.7012999999999998
aF1.2150000000000001
aa(lp14
F-5.4516
aF6.7272999999999996
aF1.2169000000000001
aa(lp15
F-5.4439000000000002
aF6.7538999999999998
aF1.2192000000000001
aaa(lp16
(lp17
F-5.4687999999999999
aF6.3244999999999996
aF0.97775999999999996
aa(lp18
F-5.4588999999999999
aF6.3487999999999998
aF0.97914999999999996
aa(lp19
F-5.4504999999999999
aF6.3795000000000002
aF0.98124
aa(lp20
F-5.4404000000000003
aF6.4038000000000004
aF0.98263
aa(lp21
F-5.4316000000000004
aF6.4320000000000004
aF0.98448999999999998
aa(lp22
F-5.4188999999999998
aF6.4557000000000002
aF0.98565000000000003
aa(lp23
F-5.4108999999999998
aF6.4805000000000001
aF0.98728000000000005
aa(lp24
F-5.4016999999999999
aF6.5063000000000004
aF0.98890999999999996
aa(lp25
F-5.3861999999999997
aF6.5293999999999999
aF0.98984000000000005
aaa(lp26
(lp27
F-5.4653
aF6.3205
aF0.77954999999999997
aa(lp28
F-5.4501999999999997
aF6.3387000000000002
aF0.77991999999999995
aa(lp29
F-5.4381000000000004
aF6.3648999999999996
aF0.78103999999999996
aa(lp30
F-5.4292999999999996
aF6.3906999999999998
aF0.78234000000000004
aa(lp31
F-5.4206000000000003
aF6.4188999999999998
aF0.78381999999999996
aa(lp32
F-5.4078999999999997
aF6.4425999999999997
aF0.78474999999999995
aa(lp33
F-5.3986999999999998
aF6.4659000000000004
aF0.78586999999999996
aa(lp34
F-5.3907999999999996
aF6.4931999999999999
aF0.78734999999999999
aa(lp35
F-5.3780000000000001
aF6.5194000000000001
aF0.78847
aa(lp36
F-5.4241000000000001
aF6.6128999999999998
aF0.79793999999999998
aa(lp37
F-5.4561999999999999
aF6.6947000000000001
aF0.80574000000000001
aa(lp38
F-5.4474999999999998
aF6.7222999999999997
aF0.80723
aa(lp39
F-5.4360999999999997
aF6.7443
aF0.80815999999999999
aaa(lp40
(lp41
F-5.4522000000000004
aF6.3052999999999999
aF0.58289000000000002
aa(lp42
F-5.4462999999999999
aF6.3341000000000003
aF0.58413999999999999
aa(lp43
F-5.4353999999999996
aF6.3617999999999997
aF0.58511999999999997
aa(lp44
F-5.4241000000000001
aF6.3845999999999998
aF0.58581000000000005
aa(lp45
F-5.4127999999999998
aF6.4097999999999997
aF0.58665
aa(lp46
F-5.4001999999999999
aF6.4333999999999998
aF0.58735000000000004
aa(lp47
F-5.391
aF6.4566999999999997
aF0.58818999999999999
aa(lp48
F-5.3844000000000003
aF6.4855999999999998
aF0.58943999999999996
aa(lp49
F-5.3677999999999999
aF6.5071000000000003
aF0.58986000000000005
aa(lp50
F-5.423
aF6.6115000000000004
aF0.59794999999999998
aa(lp51
F-5.4489000000000001
aF6.6858000000000004
aF0.60311000000000003
aa(lp52
F-5.4428000000000001
aF6.7164000000000001
aF0.60450999999999999
aa(lp53
F-5.4302000000000001
aF6.7369000000000003
aF0.60507
aaa(lp54
(lp55
F-5.468
aF6.2880000000000003
aF0.3886
aa(lp56
F-5.4648000000000003
aF6.3198999999999996
aF0.38962000000000002
aa(lp57
F-5.4509999999999996
aF6.3395999999999999
aF0.38990000000000002
aa(lp58
F-5.4389000000000003
aF6.3658999999999999
aF0.39045999999999997
aa(lp59
F-5.4287999999999998
aF6.3902000000000001
aF0.39101999999999998
aa(lp60
F-5.4202000000000004
aF6.4184000000000001
aF0.39177000000000001
aa(lp61
F-5.4050000000000002
aF6.4390999999999998
aF0.39205000000000001
aa(lp62
F-5.3958000000000004
aF6.4623999999999997
aF0.39261000000000001
aa(lp63
F-5.3891999999999998
aF6.4912999999999998
aF0.39344000000000001
aa(lp64
F-5.3712999999999997
aF6.5113000000000003
aF0.39362999999999998
aaa(lp65
(lp66
F-5.4874000000000001
aF6.2747999999999999
aF0.19353000000000001
aa(lp67
F-5.4763999999999999
aF6.2976999999999999
aF0.19375999999999999
aa(lp68
F-5.4706000000000001
aF6.3265000000000002
aF0.19417999999999999
aa(lp69
F-5.4581
aF6.3479000000000001
aF0.19436999999999999
aa(lp70
F-5.4485000000000001
aF6.3771000000000004
aF0.19474
aa(lp71
F-5.4385000000000003
aF6.4015000000000004
aF0.19502
aa(lp72
F-5.4245999999999999
aF6.4237000000000002
aF0.19520000000000001
aa(lp73
F-5.4196999999999997
aF6.4565999999999999
aF0.19571
aaa(lp74
(lp75
F-5.4797000000000002
aF6.266
aF0
aa(lp76
F-5.4752999999999998
aF6.2962999999999996
aF0
aa(lp77
F-5.4603000000000002
aF6.3146000000000004
aF0
aa(lp78
F-5.4504000000000001
aF6.3390000000000004
aF0
aa(lp79
F-5.4409000000000001
aF6.3681999999999999
aF0
aa(lp80
F-5.4283000000000001
aF6.3895
aF0
aa(lp81
F-5.4234999999999998
aF6.4223999999999997
aF0
aa(lp82
F-5.4057000000000004
aF6.4400000000000004
aF0
aa(lp83
F-5.3990999999999998
aF6.4664000000000001
aF0
aa(lp84
F-5.3860999999999999
aF6.4875999999999996
aF0
aaa(lp85
(lp86
F-5.4886999999999997
aF6.2763
aF-0.19358
aa(lp87
F-5.4640000000000004
aF6.319
aF-0.19395000000000001
aa(lp88
F-5.4394
aF6.3665000000000003
aF-0.19441
aa(lp89
F-5.4306999999999999
aF6.3922999999999996
aF-0.19474
aa(lp90
F-5.4194000000000004
aF6.4176000000000002
aF-0.19502
aa(lp91
F-5.4119000000000002
aF6.4474
aF-0.19542999999999999
aa(lp92
F-5.3975999999999997
aF6.4645999999999999
aF-0.19553000000000001
aa(lp93
F-5.391
aF6.4935
aF-0.19595000000000001
aaa(lp94
(lp95
F-5.4184999999999999
aF6.3780000000000001
aF-0.39028000000000002
aa(lp96
F-5.4123999999999999
aF6.4093
aF-0.39121
aa(lp97
F-5.4024000000000001
aF6.4359999999999999
aF-0.39185999999999999
aa(lp98
F-5.3918999999999997
aF6.4577999999999998
aF-0.39233000000000001
aa(lp99
F-5.3853
aF6.4866999999999999
aF-0.39316000000000001
aa(lp100
F-5.3688000000000002
aF6.5082000000000004
aF-0.39344000000000001
aaa(lp101
(lp102
F-5.4672000000000001
aF6.2869999999999999
aF-0.58260999999999996
aa(lp103
F-5.4678000000000004
aF6.3234000000000004
aF-0.58455999999999997
aa(lp104
F-5.4405999999999999
aF6.3678999999999997
aF-0.58567999999999998
aa(lp105
F-5.4291999999999998
aF6.3906000000000001
aF-0.58636999999999995
aa(lp106
F-5.4192999999999998
aF6.4173999999999998
aF-0.58735000000000004
aa(lp107
F-5.4092000000000002
aF6.4440999999999997
aF-0.58833000000000002
aa(lp108
F-5.4000000000000004
aF6.4675000000000002
aF-0.58916000000000002
aa(lp109
F-5.3907999999999996
aF6.4932999999999996
aF-0.59014
aa(lp110
F-5.3766999999999996
aF6.5179
aF-0.59084000000000003
aaa(lp111
(lp112
F-5.4751000000000003
aF6.2961999999999998
aF-0.77842999999999996
aa(lp113
F-5.4665999999999997
aF6.3220000000000001
aF-0.77973000000000003
aa(lp114
F-5.4470999999999998
aF6.3754999999999997
aF-0.78234000000000004
aa(lp115
F-5.4356999999999998
aF6.3982999999999999
aF-0.78325999999999996
aa(lp116
F-5.4244000000000003
aF6.4234999999999998
aF-0.78437999999999997
aa(lp117
F-5.4142999999999999
aF6.4501999999999997
aF-0.78568000000000005
aa(lp118
F-5.4051
aF6.4736000000000002
aF-0.78678999999999999
aa(lp119
F-5.3945999999999996
aF6.4977999999999998
aF-0.78791
aa(lp120
F-5.3804999999999996
aF6.5224000000000002
aF-0.78883999999999999
aaa(lp121
(lp122
F-5.4733999999999998
aF6.2942
aF-0.97543000000000002
aa(lp123
F-5.4714
aF6.3274999999999997
aF-0.97821999999999998
aa(lp124
F-5.4378000000000002
aF6.4006999999999996
aF-0.98216999999999999
aa(lp125
F-5.4252000000000002
aF6.4244000000000003
aF-0.98333000000000004
aa(lp126
F-5.4150999999999998
aF6.4511000000000003
aF-0.98495999999999995
aa(lp127
F-5.4096000000000002
aF6.4790000000000001
aF-0.98704999999999998
aa(lp128
F-5.4004000000000003
aF6.5048000000000004
aF-0.98867000000000005
aa(lp129
F-5.3861999999999997
aF6.5293999999999999
aF-0.98984000000000005
aaa(lp130
(lp131
F-5.4661999999999997
aF6.2858999999999998
aF-1.1707000000000001
aa(lp132
F-5.4771000000000001
aF6.3341000000000003
aF-1.1768000000000001
aa(lp133
F-5.4367999999999999
aF6.3635000000000002
aF-1.1762999999999999
aa(lp134
F-5.4292999999999996
aF6.3906999999999998
aF-1.1785000000000001
aa(lp135
F-5.4180000000000001
aF6.4157999999999999
aF-1.1801999999999999
aa(lp136
F-5.4077999999999999
aF6.4424999999999999
aF-1.1820999999999999
aa(lp137
F-5.3973000000000004
aF6.4642999999999997
aF-1.1835
aa(lp138
F-5.3918999999999997
aF6.4945000000000004
aF-1.1862999999999999
aa(lp139
F-5.3739999999999997
aF6.5145
aF-1.1869000000000001
aaa.