(lp1
(lp2
(lp3
F4.1536
aF-1.8858999999999999
aF0.85948000000000002
aa(lp4
F4.1497999999999999
aF-1.8991
aF0.85985
aa(lp5
F4.1459000000000001
aF-1.9121999999999999
aF0.86021999999999998
aa(lp6
F4.1337999999999999
aF-1.9197
aF0.85873999999999995
aa(lp7
F4.1330999999999998
aF-1.9352
aF0.85985
aa(lp8
F4.1258999999999997
aF-1.9459
aF0.85948000000000002
aa(lp9
F4.1325000000000003
aF-1.964
aF0.86207
aa(lp10
F4.0884
aF-1.9561999999999999
aF0.85392000000000001
aa(lp11
F4.0945999999999998
aF-1.9750000000000001
aF0.85650999999999999
aa(lp12
F4.0872999999999999
aF-1.9856
aF0.85614000000000001
aa(lp13
F4.0884
aF-2.0011000000000001
aF0.85762000000000005
aaa(lp14
(lp15
F4.1581999999999999
aF-1.8879999999999999
aF0.75029000000000001
aa(lp16
F4.1436000000000002
aF-1.8962000000000001
aF0.74866999999999995
aa(lp17
F4.1416000000000004
aF-1.9101999999999999
aF0.74931999999999999
aa(lp18
F4.1365999999999996
aF-1.921
aF0.74931999999999999
aa(lp19
F4.1250999999999998
aF-1.9315
aF0.74834999999999996
aa(lp20
F4.1303999999999998
aF-1.948
aF0.75029000000000001
aa(lp21
F4.1157000000000004
aF-1.9560999999999999
aF0.74866999999999995
aa(lp22
F4.0945999999999998
aF-1.9592000000000001
aF0.74575000000000002
aa(lp23
F4.0777000000000001
aF-1.9669000000000001
aF0.74380999999999997
aa(lp24
F4.0633999999999997
aF-1.9739
aF0.74219000000000002
aa(lp25
F4.0698999999999996
aF-1.9921
aF0.74446000000000001
aa(lp26
F4.1135000000000002
aF-2.0286
aF0.75353999999999999
aaa(lp27
(lp28
F4.1694000000000004
aF-1.8931
aF0.64354
aa(lp29
F4.1691000000000003
aF-1.9078999999999999
aF0.64437
aa(lp30
F4.1509
aF-1.9145000000000001
aF0.64241999999999999
aa(lp31
F4.1475999999999997
aF-1.9260999999999999
aF0.64270000000000005
aa(lp32
F4.1451000000000002
aF-1.9408000000000001
aF0.64326000000000005
aa(lp33
F4.1505000000000001
aF-1.9575
aF0.64493
aa(lp34
F4.1500000000000004
aF-1.9722999999999999
aF0.64576
aa(lp35
F4.1359000000000004
aF-1.9789000000000001
aF0.64437
aa(lp36
F4.1154000000000002
aF-1.9850000000000001
aF0.64214000000000004
aa(lp37
F4.0937999999999999
aF-1.9886999999999999
aF0.63963999999999999
aa(lp38
F4.0949999999999998
aF-2.0043000000000002
aF0.64075000000000004
aa(lp39
F4.0890000000000004
aF-2.0165000000000002
aF0.64075000000000004
aaa(lp40
(lp41
F4.1836000000000002
aF-1.8995
aF0.53730999999999995
aa(lp42
F4.1544999999999996
aF-1.9012
aF0.53429000000000004
aa(lp43
F4.1433999999999997
aF-1.911
aF0.53359999999999996
aa(lp44
F4.1509999999999998
aF-1.9277
aF0.53522000000000003
aa(lp45
F4.1323999999999996
aF-1.9349000000000001
aF0.53359999999999996
aa(lp46
F4.1341000000000001
aF-1.9498
aF0.53452999999999995
aa(lp47
F4.1391
aF-1.9672000000000001
aF0.53591999999999995
aa(lp48
F4.1410999999999998
aF-1.9814000000000001
aF0.53685000000000005
aa(lp49
F4.0848000000000004
aF-1.9702999999999999
aF0.53034000000000003
aa(lp50
F4.0899999999999999
aF-1.9869000000000001
aF0.53173999999999999
aa(lp51
F4.0876000000000001
aF-2.0007000000000001
aF0.53220000000000001
aa(lp52
F4.0799000000000003
aF-2.012
aF0.53197000000000005
aaa(lp53
(lp54
F4.1611000000000002
aF-1.9041999999999999
aF0.42692999999999998
aa(lp55
F4.1573000000000002
aF-1.9174
aF0.42712
aa(lp56
F4.1449999999999996
aF-1.9249000000000001
aF0.42637000000000003
aa(lp57
F4.1478999999999999
aF-1.9421999999999999
aF0.42730000000000001
aa(lp58
F4.1371000000000002
aF-1.9512
aF0.42675000000000002
aa(lp59
F4.1330999999999998
aF-1.9642999999999999
aF0.42692999999999998
aa(lp60
F4.1405000000000003
aF-1.9811000000000001
aF0.42823
aa(lp61
F4.1002000000000001
aF-1.9777
aF0.42470000000000002
aa(lp62
F4.0964
aF-1.99
aF0.42488999999999999
aa(lp63
F4.0959000000000003
aF-2.0047999999999999
aF0.42544999999999999
aa(lp64
F4.0952999999999999
aF-2.0196000000000001
aF0.42599999999999999
aaa(lp65
(lp66
F4.1471999999999998
aF-1.8978999999999999
aF0.31892999999999999
aa(lp67
F4.1452
aF-1.9117999999999999
aF0.31920999999999999
aa(lp68
F4.1420000000000003
aF-1.9235
aF0.31935000000000002
aa(lp69
F4.1359000000000004
aF-1.9365000000000001
aF0.31935000000000002
aa(lp70
F4.1376999999999997
aF-1.9515
aF0.31990000000000002
aa(lp71
F4.1300999999999997
aF-1.9629000000000001
aF0.31975999999999999
aa(lp72
F4.1177999999999999
aF-1.9702999999999999
aF0.31920999999999999
aa(lp73
F4.1025999999999998
aF-1.9787999999999999
aF0.31851000000000002
aa(lp74
F4.0808999999999997
aF-1.9823999999999999
aF0.31724999999999998
aa(lp75
F4.0911
aF-2.0024000000000002
aF0.31851000000000002
aa(lp76
F4.0815999999999999
aF-2.0127999999999999
aF0.31823000000000001
aaa(lp77
(lp78
F4.1694000000000004
aF-1.8931
aF0.21354000000000001
aa(lp79
F4.1492000000000004
aF-1.8988
aF0.21279000000000001
aa(lp80
F4.1345000000000001
aF-1.9069
aF0.21232999999999999
aa(lp81
F4.1349
aF-1.9201999999999999
aF0.21260999999999999
aa(lp82
F4.1325000000000003
aF-1.9349000000000001
aF0.21279000000000001
aa(lp83
F4.1288999999999998
aF-1.9473
aF0.21289
aa(lp84
F4.1231
aF-1.9595
aF0.21289
aa(lp85
F4.1124999999999998
aF-1.9677
aF0.21260999999999999
aa(lp86
F4.0900999999999996
aF-1.9728000000000001
aF0.21177000000000001
aa(lp87
F4.0881999999999996
aF-1.986
aF0.21195
aa(lp88
F4.0750999999999999
aF-1.9945999999999999
aF0.21157999999999999
aa(lp89
F4.0799000000000003
aF-2.012
aF0.21214
aaa(lp90
(lp91
F4.1782000000000004
aF-1.8971
aF0.10654
aa(lp92
F4.1635
aF-1.9053
aF0.10631
aa(lp93
F4.1597
aF-1.9185000000000001
aF0.10635
aa(lp94
F4.1581999999999999
aF-1.9311
aF0.10644000000000001
aa(lp95
F4.1521999999999997
aF-1.9440999999999999
aF0.10644000000000001
aa(lp96
F4.1502999999999997
aF-1.9574
aF0.10654
aa(lp97
F4.1444999999999999
aF-1.9697
aF0.10654
aa(lp98
F4.1249000000000002
aF-1.9737
aF0.10617
aa(lp99
F4.1132999999999997
aF-1.984
aF0.10603
aa(lp100
F4.1094999999999997
aF-1.9964
aF0.10607
aa(lp101
F4.1036000000000001
aF-2.0085000000000002
aF0.10607
aa(lp102
F4.0994000000000002
aF-2.0215999999999998
aF0.10612000000000001
aaa(lp103
(lp104
F4.1684000000000001
aF-1.8926000000000001
aF0
aa(lp105
F4.1608000000000001
aF-1.919
aF0
aa(lp106
F4.1502999999999997
aF-1.9274
aF0
aa(lp107
F4.1459999999999999
aF-1.9413
aF0
aa(lp108
F4.1424000000000003
aF-1.9537
aF0
aa(lp109
F4.1348000000000003
aF-1.9651000000000001
aF0
aa(lp110
F4.1223999999999998
aF-1.9724999999999999
aF0
aa(lp111
F4.1071999999999997
aF-1.9811000000000001
aF0
aa(lp112
F4.1052
aF-1.9943
aF0
aa(lp113
F4.0993000000000004
aF-2.0065
aF0
aa(lp114
F4.0896999999999997
aF-2.0167999999999999
aF0
aaa(lp115
(lp116
F4.1727999999999996
aF-1.8946000000000001
aF-0.10639999999999999
aa(lp117
F4.1433
aF-1.911
aF-0.10593
aa(lp118
F4.1383000000000001
aF-1.9218
aF-0.10593
aa(lp119
F4.1322000000000001
aF-1.9348000000000001
aF-0.10593
aa(lp120
F4.125
aF-1.9455
aF-0.10589
aa(lp121
F4.1337000000000002
aF-1.9645999999999999
aF-0.10625999999999999
aa(lp122
F4.1069000000000004
aF-1.9650000000000001
aF-0.1057
aa(lp123
F4.0989000000000004
aF-1.9771000000000001
aF-0.10566
aa(lp124
F4.0968999999999998
aF-1.9902
aF-0.10575
aa(lp125
F4.0910000000000002
aF-2.0024000000000002
aF-0.10575
aa(lp126
F4.0850999999999997
aF-2.0145
aF-0.10575
aaa(lp127
(lp128
F4.1638999999999999
aF-1.8906000000000001
aF-0.21326000000000001
aa(lp129
F4.1418999999999997
aF-1.8955
aF-0.21242
aa(lp130
F4.1436000000000002
aF-1.9111
aF-0.21279000000000001
aa(lp131
F4.1384999999999996
aF-1.9218999999999999
aF-0.21279000000000001
aa(lp132
F4.1288999999999998
aF-1.9332
aF-0.21260999999999999
aa(lp133
F4.1271000000000004
aF-1.9464999999999999
aF-0.21279000000000001
aa(lp134
F4.1303000000000001
aF-1.9630000000000001
aF-0.21326000000000001
aa(lp135
F4.1106999999999996
aF-1.9669000000000001
aF-0.21251
aa(lp136
F4.0955000000000004
aF-1.9754
aF-0.21204999999999999
aa(lp137
F4.0899999999999999
aF-1.9869000000000001
aF-0.21204999999999999
aa(lp138
F4.0841000000000003
aF-1.9990000000000001
aF-0.21204999999999999
aa(lp139
F4.0816999999999997
aF-2.0129000000000001
aF-0.21223
aaa(lp140
(lp141
F4.1745999999999999
aF-1.8955
aF-0.3206
aa(lp142
F4.1544999999999996
aF-1.9012
aF-0.31947999999999999
aa(lp143
F4.1487999999999996
aF-1.9135
aF-0.31947999999999999
aa(lp144
F4.1420000000000003
aF-1.9235
aF-0.31935000000000002
aa(lp145
F4.1359000000000004
aF-1.9365000000000001
aF-0.31935000000000002
aa(lp146
F4.1359000000000004
aF-1.9505999999999999
aF-0.31975999999999999
aa(lp147
F4.1300999999999997
aF-1.9629000000000001
aF-0.31975999999999999
aa(lp148
F4.1231999999999998
aF-1.9728000000000001
aF-0.31962000000000002
aa(lp149
F4.0953999999999997
aF-1.9754
aF-0.31795000000000001
aa(lp150
F4.0915999999999997
aF-1.9877
aF-0.31808999999999998
aa(lp151
F4.0892999999999997
aF-2.0015999999999998
aF-0.31836999999999999
aa(lp152
F4.0850999999999997
aF-2.0146000000000002
aF-0.31851000000000002
aaa(lp153
(lp154
F4.1830999999999996
aF-1.8993
aF-0.42859999999999998
aa(lp155
F4.1574999999999998
aF-1.9026000000000001
aF-0.42655999999999999
aa(lp156
F4.1536
aF-1.9157
aF-0.42675000000000002
aa(lp157
F4.1631
aF-1.9333
aF-0.42823
aa(lp158
F4.1534000000000004
aF-1.9447000000000001
aF-0.42786000000000002
aa(lp159
F4.1443000000000003
aF-1.9545999999999999
aF-0.42748999999999998
aa(lp160
F4.1330999999999998
aF-1.9642999999999999
aF-0.42692999999999998
aa(lp161
F4.1279000000000003
aF-1.9751000000000001
aF-0.42692999999999998
aa(lp162
F4.1109
aF-1.9829000000000001
aF-0.42581999999999998
aa(lp163
F4.1108000000000002
aF-1.9970000000000001
aF-0.42637000000000003
aa(lp164
F4.0959000000000003
aF-2.0047999999999999
aF-0.42544999999999999
aa(lp165
F4.1006
aF-2.0222000000000002
aF-0.42655999999999999
aaa(lp166
(lp167
F4.1635
aF-1.9053
aF-0.53544999999999998
aa(lp168
F4.1578999999999997
aF-1.9177
aF-0.53544999999999998
aa(lp169
F4.1528
aF-1.9286000000000001
aF-0.53544999999999998
aa(lp170
F4.1504000000000003
aF-1.9433
aF-0.53591999999999995
aa(lp171
F4.1413000000000002
aF-1.9532
aF-0.53544999999999998
aa(lp172
F4.1300999999999997
aF-1.9629000000000001
aF-0.53476000000000001
aa(lp173
F4.1393000000000004
aF-1.9805999999999999
aF-0.53661999999999999
aa(lp174
F4.1097999999999999
aF-1.9823
aF-0.53359999999999996
aa(lp175
F4.1059999999999999
aF-1.9946999999999999
aF-0.53383000000000003
aa(lp176
F4.1055000000000001
aF-2.0095000000000001
aF-0.53452999999999995
aa(lp177
F4.1083999999999996
aF-2.0259999999999998
aF-0.53569
aaa(lp178
(lp179
F4.1802000000000001
aF-1.8979999999999999
aF-0.64520999999999995
aa(lp180
F4.1493000000000002
aF-1.8988
aF-0.64131000000000005
aa(lp181
F4.1473000000000004
aF-1.9128000000000001
aF-0.64187000000000005
aa(lp182
F4.1351000000000004
aF-1.9202999999999999
aF-0.64075000000000004
aa(lp183
F4.1326000000000001
aF-1.9350000000000001
aF-0.64131000000000005
aa(lp184
F4.1379000000000001
aF-1.9516
aF-0.64298
aa(lp185
F4.1303000000000001
aF-1.9630000000000001
aF-0.64270000000000005
aa(lp186
F4.1341000000000001
aF-1.9781
aF-0.64409000000000005
aa(lp187
F4.0957999999999997
aF-1.9756
aF-0.63907999999999998
aa(lp188
F4.0867000000000004
aF-1.9853000000000001
aF-0.63853000000000004
aa(lp189
F4.0824999999999996
aF-1.9982
aF-0.63880000000000003
aa(lp190
F4.0872000000000002
aF-2.0156000000000001
aF-0.64046999999999998
aaa(lp191
(lp192
F4.1508000000000003
aF-1.8995
aF-0.74997000000000003
aa(lp193
F4.1433999999999997
aF-1.911
aF-0.74965000000000004
aa(lp194
F4.1455000000000002
aF-1.9252
aF-0.75094000000000005
aa(lp195
F4.1429999999999998
aF-1.9398
aF-0.75158999999999998
aa(lp196
F4.1357999999999997
aF-1.9505999999999999
aF-0.75126999999999999
aa(lp197
F4.1246
aF-1.9602999999999999
aF-0.75029000000000001
aa(lp198
F4.1177000000000001
aF-1.9702
aF-0.74997000000000003
aa(lp199
F4.0937000000000001
aF-1.9745999999999999
aF-0.74673
aa(lp200
F4.0934999999999997
aF-1.9885999999999999
aF-0.74770000000000003
aa(lp201
F4.0876000000000001
aF-2.0007000000000001
aF-0.74770000000000003
aa(lp202
F4.0693000000000001
aF-2.0066999999999999
aF-0.74543000000000004
aaa(lp203
(lp204
F4.1571999999999996
aF-1.8875
aF-0.86021999999999998
aa(lp205
F4.1588000000000003
aF-1.9031
aF-0.86170000000000002
aa(lp206
F4.1531000000000002
aF-1.9155
aF-0.86170000000000002
aa(lp207
F4.1426999999999996
aF-1.9238999999999999
aF-0.86058999999999997
aa(lp208
F4.1437999999999997
aF-1.9401999999999999
aF-0.86207
aa(lp209
F4.1383000000000001
aF-1.9518
aF-0.86207
aa(lp210
F4.1307
aF-1.9632000000000001
aF-0.86170000000000002
aa(lp211
F4.1096000000000004
aF-1.9663999999999999
aF-0.85836999999999997
aa(lp212
F4.0787000000000004
aF-1.9673
aF-0.85318000000000005
aa(lp213
F4.0766999999999998
aF-1.9803999999999999
aF-0.85392000000000001
aa(lp214
F4.0777999999999999
aF-1.996
aF-0.85540000000000005
aa(lp215
F4.1230000000000002
aF-2.0333000000000001
aF-0.86614000000000002
aaa(lp216
(lp217
F4.1681999999999997
aF-1.8925000000000001
aF-0.97302999999999995
aa(lp218
F4.1555
aF-1.9016
aF-0.97136
aa(lp219
F4.1586999999999996
aF-1.9180999999999999
aF-0.97343999999999997
aa(lp220
F4.1519000000000004
aF-1.9280999999999999
aF-0.97302999999999995
aa(lp221
F4.1421999999999999
aF-1.9395
aF-0.97219999999999995
aa(lp222
F4.1386000000000003
aF-1.9519
aF-0.97260999999999997
aa(lp223
F4.1310000000000002
aF-1.9633
aF-0.97219999999999995
aa(lp224
F4.1063999999999998
aF-1.9648000000000001
aF-0.96762000000000004
aa(lp225
F4.1020000000000003
aF-1.9785999999999999
aF-0.96804000000000001
aa(lp226
F4.0929000000000002
aF-1.9883
aF-0.96721000000000001
aa(lp227
F4.0747
aF-1.9944
aF-0.96428999999999998
aaa(lp228
(lp229
F4.1356000000000002
aF-1.8926000000000001
aF-1.0775999999999999
aa(lp230
F4.1369999999999996
aF-1.9080999999999999
aF-1.0794999999999999
aa(lp231
F4.1231999999999998
aF-1.9148000000000001
aF-1.0771999999999999
aa(lp232
F4.1154000000000002
aF-1.9269000000000001
aF-1.0767
aa(lp233
F4.1294000000000004
aF-1.9475
aF-1.0818000000000001
aa(lp234
F4.1271000000000004
aF-1.9615
aF-1.0827
aa(lp235
F4.1009000000000002
aF-1.9621999999999999
aF-1.0771999999999999
aa(lp236
F4.0701000000000001
aF-1.9632000000000001
aF-1.0707
aa(lp237
F4.0682
aF-1.9762999999999999
aF-1.0716000000000001
aa(lp238
F4.0658000000000003
aF-1.99
aF-1.0726
aa(lp239
F4.0964999999999998
aF-2.0202
aF-1.0822000000000001
aaa(lp240
(lp241
F4.1432000000000002
aF-1.8959999999999999
aF-1.1928000000000001
aa(lp242
F4.1463999999999999
aF-1.9124000000000001
aF-1.1953
aa(lp243
F4.1360999999999999
aF-1.9208000000000001
aF-1.1938
aa(lp244
F4.1369999999999996
aF-1.9370000000000001
aF-1.1959
aa(lp245
F4.1280999999999999
aF-1.9469000000000001
aF-1.1948000000000001
aa(lp246
F4.1257999999999999
aF-1.9608000000000001
aF-1.1959
aa(lp247
F4.1119000000000003
aF-1.9675
aF-1.1933
aa(lp248
F4.0865999999999998
aF-1.9711000000000001
aF-1.1877
aa(lp249
F4.0776000000000003
aF-1.9807999999999999
aF-1.1867000000000001
aa(lp250
F4.0664999999999996
aF-1.9903999999999999
aF-1.1852
aaa.