(lp1
(lp2
(lp3
F-5.3407
aF2.0074000000000001
aF0.93737999999999999
aa(lp4
F-5.3258000000000001
aF2.0188000000000001
aF0.93576000000000004
aa(lp5
F-5.3346
aF2.0402999999999998
aF0.93835000000000002
aa(lp6
F-5.3693999999999997
aF2.0708000000000002
aF0.94549000000000005
aa(lp7
F-5.343
aF2.0788000000000002
aF0.94191999999999998
aa(lp8
F-5.3308999999999997
aF2.0935000000000001
aF0.94094999999999995
aa(lp9
F-5.3291000000000004
aF2.1089000000000002
aF0.94159999999999999
aa(lp10
F-5.3155000000000001
aF2.1217000000000001
aF0.94030000000000002
aa(lp11
F-5.3216000000000001
aF2.1436000000000002
aF0.94257000000000002
aaa(lp12
(lp13
F-5.3503999999999996
aF2.0110999999999999
aF0.80330999999999997
aa(lp14
F-5.3446999999999996
aF2.0259999999999998
aF0.80330999999999997
aa(lp15
F-5.3423999999999996
aF2.0432999999999999
aF0.80386000000000002
aa(lp16
F-5.3754999999999997
aF2.0731000000000002
aF0.80971000000000004
aa(lp17
F-5.3471000000000002
aF2.0804999999999998
aF0.80637000000000003
aa(lp18
F-5.3423999999999996
aF2.0979999999999999
aF0.80664999999999998
aa(lp19
F-5.3350999999999997
aF2.1112000000000002
aF0.80637000000000003
aa(lp20
F-5.3213999999999997
aF2.1240999999999999
aF0.80525999999999998
aa(lp21
F-5.3331
aF2.1482000000000001
aF0.80803999999999998
aaa(lp22
(lp23
F-5.3403
aF2.0072999999999999
aF0.66717000000000004
aa(lp24
F-5.3346999999999998
aF2.0222000000000002
aF0.66717000000000004
aa(lp25
F-5.3342999999999998
aF2.0402
aF0.66786999999999996
aa(lp26
F-5.3544999999999998
aF2.0649999999999999
aF0.67112000000000005
aa(lp27
F-5.3428000000000004
aF2.0788000000000002
aF0.67042000000000002
aa(lp28
F-5.3288000000000002
aF2.0926
aF0.66949000000000003
aa(lp29
F-5.3307000000000002
aF2.1095000000000002
aF0.67042000000000002
aa(lp30
F-5.3281000000000001
aF2.1267999999999998
aF0.67088999999999999
aa(lp31
F-5.3305999999999996
aF2.1472000000000002
aF0.67205000000000004
aaa(lp32
(lp33
F-5.3535000000000004
aF2.0122
aF0.53356999999999999
aa(lp34
F-5.3311000000000002
aF2.0207999999999999
aF0.53190000000000004
aa(lp35
F-5.3324999999999996
aF2.0394999999999999
aF0.53264
aa(lp36
F-5.3601999999999999
aF2.0672999999999999
aF0.53598999999999997
aa(lp37
F-5.3391999999999999
aF2.0773999999999999
aF0.53449999999999998
aa(lp38
F-5.3364000000000003
aF2.0956000000000001
aF0.53486999999999996
aa(lp39
F-5.3253000000000004
aF2.1074000000000002
aF0.53430999999999995
aa(lp40
F-5.3171999999999997
aF2.1223999999999998
aF0.53412999999999999
aa(lp41
F-5.3308
aF2.1473
aF0.53617000000000004
aaa(lp42
(lp43
F-5.3319000000000001
aF2.0041000000000002
aF0.39831
aa(lp44
F-5.3300000000000001
aF2.0204
aF0.39859
aa(lp45
F-5.3239999999999998
aF2.0362
aF0.39859
aa(lp46
F-5.3480999999999996
aF2.0626000000000002
aF0.40082000000000001
aa(lp47
F-5.3381999999999996
aF2.077
aF0.40054000000000001
aa(lp48
F-5.3297999999999996
aF2.093
aF0.40039999999999998
aa(lp49
F-5.3261000000000003
aF2.1076999999999999
aF0.40054000000000001
aa(lp50
F-5.3198999999999996
aF2.1234999999999999
aF0.40054000000000001
aa(lp51
F-5.3094999999999999
aF2.1387
aF0.40026
aaa(lp52
(lp53
F-5.3391000000000002
aF2.0068000000000001
aF0.26599
aa(lp54
F-5.3315999999999999
aF2.0209999999999999
aF0.26590000000000003
aa(lp55
F-5.3219000000000003
aF2.0354000000000001
aF0.26571
aa(lp56
F-5.3441000000000001
aF2.0609999999999999
aF0.26711000000000001
aa(lp57
F-5.3361000000000001
aF2.0762
aF0.26701999999999998
aa(lp58
F-5.3258000000000001
aF2.0914999999999999
aF0.26683000000000001
aa(lp59
F-5.3185000000000002
aF2.1046999999999998
aF0.26673999999999998
aa(lp60
F-5.3178000000000001
aF2.1227
aF0.26701999999999998
aa(lp61
F-5.3167
aF2.1415999999999999
aF0.26729999999999998
aaa(lp62
(lp63
F-5.3639999999999999
aF1.9991000000000001
aF0.13291
aa(lp64
F-5.3528000000000002
aF2.012
aF0.13277
aa(lp65
F-5.3452999999999999
aF2.0261999999999998
aF0.13272
aa(lp66
F-5.3373999999999997
aF2.0413999999999999
aF0.13267000000000001
aa(lp67
F-5.3615000000000004
aF2.0678000000000001
aF0.13342000000000001
aa(lp68
F-5.3516000000000004
aF2.0821999999999998
aF0.13331999999999999
aa(lp69
F-5.3414000000000001
aF2.0975999999999999
aF0.13322999999999999
aa(lp70
F-5.3357999999999999
aF2.1114999999999999
aF0.13322999999999999
aa(lp71
F-5.3333000000000004
aF2.1288
aF0.13331999999999999
aa(lp72
F-5.3247
aF2.1448
aF0.13328000000000001
aaa(lp73
(lp74
F-5.3392999999999997
aF2.0238999999999998
aF0
aa(lp75
F-5.3314000000000004
aF2.0390999999999999
aF0
aa(lp76
F-5.3611000000000004
aF2.0676000000000001
aF0
aa(lp77
F-5.3456000000000001
aF2.0798999999999999
aF0
aa(lp78
F-5.3372000000000002
aF2.0958999999999999
aF0
aa(lp79
F-5.3353999999999999
aF2.1114000000000002
aF0
aa(lp80
F-5.3291000000000004
aF2.1272000000000002
aF0
aa(lp81
F-5.3150000000000004
aF2.1408999999999998
aF0
aaa(lp82
(lp83
F-5.3415999999999997
aF2.0078
aF-0.13249
aa(lp84
F-5.3396999999999997
aF2.0240999999999998
aF-0.13258
aa(lp85
F-5.3337000000000003
aF2.0398999999999998
aF-0.13258
aa(lp86
F-5.3502999999999998
aF2.0634999999999999
aF-0.13314000000000001
aa(lp87
F-5.3385999999999996
aF2.0771000000000002
aF-0.13300000000000001
aa(lp88
F-5.3301999999999996
aF2.0931999999999999
aF-0.13295000000000001
aa(lp89
F-5.3284000000000002
aF2.1086
aF-0.13303999999999999
aa(lp90
F-5.3166000000000002
aF2.1221999999999999
aF-0.13291
aa(lp91
F-5.3154000000000003
aF2.1410999999999998
aF-0.13303999999999999
aaa(lp92
(lp93
F-5.3315999999999999
aF2.004
aF-0.26562000000000002
aa(lp94
F-5.3259999999999996
aF2.0188999999999999
aF-0.26562000000000002
aa(lp95
F-5.3255999999999997
aF2.0367999999999999
aF-0.26590000000000003
aa(lp96
F-5.3403999999999998
aF2.0596000000000001
aF-0.26691999999999999
aa(lp97
F-5.3193999999999999
aF2.0697000000000001
aF-0.26618000000000003
aa(lp98
F-5.3183999999999996
aF2.0884999999999998
aF-0.26645999999999997
aa(lp99
F-5.3148
aF2.1032000000000002
aF-0.26655000000000001
aa(lp100
F-5.3067000000000002
aF2.1181999999999999
aF-0.26645999999999997
aa(lp101
F-5.2888999999999999
aF2.1303999999999998
aF-0.26590000000000003
aaa(lp102
(lp103
F-5.3394000000000004
aF2.0068999999999999
aF-0.39887
aa(lp104
F-5.3375000000000004
aF2.0232000000000001
aF-0.39915
aa(lp105
F-5.3426
aF2.0434000000000001
aF-0.39998
aa(lp106
F-5.3498999999999999
aF2.0632999999999999
aF-0.40095999999999998
aa(lp107
F-5.3399999999999999
aF2.0777000000000001
aF-0.40067999999999998
aa(lp108
F-5.3353999999999999
aF2.0952000000000002
aF-0.40082000000000001
aa(lp109
F-5.3280000000000003
aF2.1084000000000001
aF-0.40067999999999998
aa(lp110
F-5.3254000000000001
aF2.1257000000000001
aF-0.40095999999999998
aa(lp111
F-5.3243
aF2.1446999999999998
aF-0.40138000000000001
aaa(lp112
(lp113
F-5.3535000000000004
aF2.0122
aF-0.53356999999999999
aa(lp114
F-5.3497000000000003
aF2.0278999999999998
aF-0.53376000000000001
aa(lp115
F-5.3510999999999997
aF2.0466000000000002
aF-0.53449999999999998
aa(lp116
F-5.3620999999999999
aF2.0680000000000001
aF-0.53617000000000004
aa(lp117
F-5.3448000000000002
aF2.0794999999999999
aF-0.53505999999999998
aa(lp118
F-5.3418999999999999
aF2.0977999999999999
aF-0.53542999999999996
aa(lp119
F-5.3364000000000003
aF2.1118000000000001
aF-0.53542999999999996
aa(lp120
F-5.3263999999999996
aF2.1261000000000001
aF-0.53505999999999998
aa(lp121
F-5.3345000000000002
aF2.1488
aF-0.53654000000000002
aaa(lp122
(lp123
F-5.3459000000000003
aF2.0093999999999999
aF-0.66786999999999996
aa(lp124
F-5.3440000000000003
aF2.0257000000000001
aF-0.66832999999999998
aa(lp125
F-5.3564999999999996
aF2.0487000000000002
aF-0.67064999999999997
aa(lp126
F-5.3409000000000004
aF2.0779999999999998
aF-0.67018999999999995
aa(lp127
F-5.3436000000000003
aF2.0983999999999998
aF-0.67135
aa(lp128
F-5.3362999999999996
aF2.1116999999999999
aF-0.67112000000000005
aa(lp129
F-5.3337000000000003
aF2.129
aF-0.67157999999999995
aa(lp130
F-5.3305999999999996
aF2.1472000000000002
aF-0.67205000000000004
aaa(lp131
(lp132
F-5.3337000000000003
aF2.0047999999999999
aF-0.80079999999999996
aa(lp133
F-5.3372999999999999
aF2.0232000000000001
aF-0.80218999999999996
aa(lp134
F-5.3441999999999998
aF2.044
aF-0.80413999999999997
aa(lp135
F-5.3379000000000003
aF2.0769000000000002
aF-0.80498000000000003
aa(lp136
F-5.3314000000000004
aF2.0935999999999999
aF-0.80498000000000003
aa(lp137
F-5.3277000000000001
aF2.1082999999999998
aF-0.80525999999999998
aa(lp138
F-5.3213999999999997
aF2.1240999999999999
aF-0.80525999999999998
aa(lp139
F-5.3166000000000002
aF2.1415999999999999
aF-0.80552999999999997
aaa(lp140
(lp141
F-5.3277999999999999
aF2.0026000000000002
aF-0.93511
aa(lp142
F-5.3185000000000002
aF2.016
aF-0.93445999999999996
aa(lp143
F-5.3400999999999996
aF2.0424000000000002
aF-0.93933
aa(lp144
F-5.3338000000000001
aF2.0752999999999999
aF-0.94030000000000002
aa(lp145
F-5.3254000000000001
aF2.0912999999999999
aF-0.93996999999999997
aa(lp146
F-5.3198999999999996
aF2.1052
aF-0.93996999999999997
aa(lp147
F-5.3190999999999997
aF2.1232000000000002
aF-0.94094999999999995
aa(lp148
F-5.3178999999999998
aF2.1421000000000001
aF-0.94191999999999998
aaa(lp149
(lp150
F-5.3563000000000001
aF1.9771000000000001
aF-1.0757000000000001
aa(lp151
F-5.3297999999999996
aF1.9863999999999999
aF-1.0717000000000001
aa(lp152
F-5.3315999999999999
aF2.004
aF-1.0730999999999999
aa(lp153
F-5.3425000000000002
aF2.0251999999999999
aF-1.0765
aa(lp154
F-5.3472999999999997
aF2.0623
aF-1.0798000000000001
aa(lp155
F-5.343
aF2.0788000000000002
aF-1.0802
aa(lp156
F-5.3418999999999999
aF2.0977999999999999
aF-1.0812999999999999
aa(lp157
F-5.3254000000000001
aF2.1074000000000002
aF-1.0790999999999999
aa(lp158
F-5.3356000000000003
aF2.1297999999999999
aF-1.0824
aaa(lp159
(lp160
F-5.3509000000000002
aF1.9942
aF-1.2138
aa(lp161
F-5.3415999999999997
aF2.0078
aF-1.2130000000000001
aa(lp162
F-5.3560999999999996
aF2.0303
aF-1.2175
aa(lp163
F-5.3498000000000001
aF2.0632999999999999
aF-1.2188000000000001
aa(lp164
F-5.3491
aF2.0811999999999999
aF-1.22
aa(lp165
F-5.3388999999999998
aF2.0966
aF-1.2192000000000001
aa(lp166
F-5.3353000000000002
aF2.1113
aF-1.2196
aa(lp167
F-5.3434999999999997
aF2.1328999999999998
aF-1.2229000000000001
aaa(lp168
(lp169
F-5.8738999999999999
aF2.3660999999999999
aF-1.3460000000000001
aa(lp170
F-5.8662999999999998
aF2.3797000000000001
aF-1.3455999999999999
aa(lp171
F-5.8659999999999997
aF2.4009999999999998
aF-1.3472999999999999
aa(lp172
F-5.8521000000000001
aF2.4144000000000001
aF-1.3455999999999999
aa(lp173
F-5.8484999999999996
aF2.4333
aF-1.3464
aa(lp174
F-5.8452999999999999
aF2.4510999999999998
aF-1.3472999999999999
aa(lp175
F-5.8392999999999997
aF2.4702000000000002
aF-1.3476999999999999
aa(lp176
F-5.8346999999999998
aF2.4863
aF-1.3481000000000001
aa(lp177
F-5.8268000000000004
aF2.5045999999999999
aF-1.3481000000000001
aa(lp178
F-5.8238000000000003
aF2.5213999999999999
aF-1.3489
aa(lp179
F-5.8163
aF2.5387
aF-1.3489
aa(lp180
F-5.8124000000000002
aF2.5575000000000001
aF-1.3498000000000001
aa(lp181
F-5.8007
aF2.5741999999999998
aF-1.3489
aa(lp182
F-5.7957000000000001
aF2.5901000000000001
aF-1.3492999999999999
aa(lp183
F-5.7897999999999996
aF2.6080999999999999
aF-1.3498000000000001
aa(lp184
F-5.782
aF2.6253000000000002
aF-1.3498000000000001
aa(lp185
F-5.7671000000000001
aF2.6392000000000002
aF-1.3481000000000001
aa(lp186
F-5.7680999999999996
aF2.6604000000000001
aF-1.3502000000000001
aa(lp187
F-5.7557999999999998
aF2.673
aF-1.3489
aa(lp188
F-5.7319000000000004
aF2.6825999999999999
aF-1.3452
aa(lp189
F-5.7416
aF2.7079
aF-1.3492999999999999
aa(lp190
F-5.7384000000000004
aF2.7284999999999999
aF-1.3506
aa(lp191
F-5.7271999999999998
aF2.7427999999999999
aF-1.3498000000000001
aa(lp192
F-5.7266000000000004
aF2.7622
aF-1.3513999999999999
aa(lp193
F-5.7188999999999997
aF2.7782
aF-1.3513999999999999
aa(lp194
F-5.6978
aF2.7900999999999998
aF-1.3485
aa(lp195
F-5.6929999999999996
aF2.8087
aF-1.3492999999999999
aa(lp196
F-5.6921999999999997
aF2.8281000000000001
aF-1.351
aa(lp197
F-5.6855000000000002
aF2.8458000000000001
aF-1.3513999999999999
aa(lp198
F-5.6828000000000003
aF2.8643000000000001
aF-1.3527
aa(lp199
F-5.6695000000000002
aF2.8776000000000002
aF-1.3513999999999999
aa(lp200
F-5.6586999999999996
aF2.8944999999999999
aF-1.351
aaa.