(lp1
(lp2
(lp3
F-23.940999999999999
aF1.9430000000000001
aF1.6796
aa(lp4
F-23.984999999999999
aF2.0141
aF1.6831
aa(lp5
F-23.978999999999999
aF2.081
aF1.6831
aa(lp6
F-23.965
aF2.1515
aF1.6825000000000001
aa(lp7
F-23.992999999999999
aF2.2214999999999998
aF1.6849000000000001
aa(lp8
F-23.936
aF2.2879
aF1.6814
aa(lp9
F-23.923999999999999
aF2.3542000000000001
aF1.681
aa(lp10
F-23.887
aF2.4220999999999999
aF1.6789000000000001
aa(lp11
F-23.852
aF2.4901
aF1.6769000000000001
aa(lp12
F-23.831
aF2.5552000000000001
aF1.6759999999999999
aa(lp13
F-23.815000000000001
aF2.625
aF1.6754
aaa(lp14
(lp15
F-24.152000000000001
aF1.8838999999999999
aF1.1296999999999999
aa(lp16
F-24.123999999999999
aF1.958
aF1.1287
aa(lp17
F-24.097000000000001
aF2.0234999999999999
aF1.1276999999999999
aa(lp18
F-24.074999999999999
aF2.0893999999999999
aF1.1269
aa(lp19
F-24.039000000000001
aF2.1581000000000001
aF1.1254999999999999
aa(lp20
F-24.003
aF2.2225000000000001
aF1.1242000000000001
aa(lp21
F-23.960999999999999
aF2.2902999999999998
aF1.1225000000000001
aa(lp22
F-23.954000000000001
aF2.3572000000000002
aF1.1225000000000001
aa(lp23
F-23.920999999999999
aF2.4256000000000002
aF1.1213
aa(lp24
F-23.876000000000001
aF2.4925999999999999
aF1.1194999999999999
aa(lp25
F-23.859000000000002
aF2.5581999999999998
aF1.119
aa(lp26
F-23.827999999999999
aF2.6263999999999998
aF1.1178999999999999
aaa(lp27
(lp28
F-24.148
aF1.8835
aF0.56235000000000002
aa(lp29
F-24.128
aF1.9582999999999999
aF0.56203000000000003
aa(lp30
F-24.082999999999998
aF2.0223
aF0.56110000000000004
aa(lp31
F-24.059000000000001
aF2.0880000000000001
aF0.56067999999999996
aa(lp32
F-24.033000000000001
aF2.1576
aF0.56022000000000005
aa(lp33
F-24.009
aF2.2229999999999999
aF0.55979999999999996
aa(lp34
F-23.981999999999999
aF2.2923
aF0.55932999999999999
aa(lp35
F-23.946000000000002
aF2.3563999999999998
aF0.55864000000000003
aa(lp36
F-23.914999999999999
aF2.4249999999999998
aF0.55808000000000002
aa(lp37
F-23.898
aF2.4948999999999999
aF0.55784999999999996
aa(lp38
F-23.856999999999999
aF2.5579999999999998
aF0.55706
aaa(lp39
(lp40
F-24.271999999999998
aF3.5365000000000002
aF0
aa(lp41
F-24.247
aF3.6065
aF0
aa(lp42
F-24.221
aF3.6760000000000002
aF0
aa(lp43
F-24.189
aF3.7360000000000002
aF0
aa(lp44
F-24.169
aF3.8108
aF0
aa(lp45
F-24.123999999999999
aF3.8683000000000001
aF0
aaa(lp46
(lp47
F-24.138000000000002
aF1.9591000000000001
aF-0.56225999999999998
aa(lp48
F-24.099
aF2.0236000000000001
aF-0.56147000000000002
aa(lp49
F-24.067
aF2.0886999999999998
aF-0.56086999999999998
aa(lp50
F-24.059000000000001
aF2.1598999999999999
aF-0.56081999999999999
aa(lp51
F-24.013000000000002
aF2.2233999999999998
aF-0.55989
aa(lp52
F-23.984000000000002
aF2.2925
aF-0.55937999999999999
aa(lp53
F-23.954000000000001
aF2.3571
aF-0.55881999999999998
aa(lp54
F-23.922999999999998
aF2.4258000000000002
aF-0.55827000000000004
aa(lp55
F-23.898
aF2.4948999999999999
aF-0.55784999999999996
aa(lp56
F-23.870999999999999
aF2.5594999999999999
aF-0.55737999999999999
aa(lp57
F-23.831
aF2.6267999999999998
aF-0.55664000000000002
aaa(lp58
(lp59
F-24.280999999999999
aF3.5379
aF-0.56969000000000003
aa(lp60
F-24.251000000000001
aF3.6070000000000002
aF-0.56921999999999995
aa(lp61
F-24.216000000000001
aF3.6753
aF-0.56866000000000005
aa(lp62
F-24.206
aF3.7387000000000001
aF-0.56866000000000005
aa(lp63
F-24.184999999999999
aF3.8132000000000001
aF-0.56842999999999999
aa(lp64
F-24.149000000000001
aF3.8723999999999998
aF-0.56782999999999995
aaa.