(lp1
(lp2
(lp3
F-23.414999999999999
aF5.5953999999999997
aF1.1227
aa(lp4
F-23.375
aF5.6638000000000002
aF1.1215999999999999
aa(lp5
F-23.359000000000002
aF5.7331000000000003
aF1.1215999999999999
aa(lp6
F-23.329000000000001
aF5.7949000000000002
aF1.121
aa(lp7
F-23.289000000000001
aF5.8541999999999996
aF1.1198999999999999
aa(lp8
F-23.280000000000001
aF5.9253
aF1.1202000000000001
aa(lp9
F-23.244
aF5.9852999999999996
aF1.1193
aaa(lp10
(lp11
F-22.423999999999999
aF6.2651000000000003
aF1.0858000000000001
aa(lp12
F-22.393999999999998
aF6.3282999999999996
aF1.0851999999999999
aa(lp13
F-22.375
aF6.3864000000000001
aF1.0851
aa(lp14
F-22.341000000000001
aF6.4482999999999997
aF1.0844
aa(lp15
F-22.305
aF6.5140000000000002
aF1.0835999999999999
aa(lp16
F-22.283000000000001
aF6.5750999999999999
aF1.0833999999999999
aa(lp17
F-22.263000000000002
aF6.6412000000000004
aF1.0833999999999999
aa(lp18
F-22.222000000000001
aF6.6963999999999997
aF1.0823
aa(lp19
F-22.199000000000002
aF6.7572999999999999
aF1.0821000000000001
aa(lp20
F-22.164000000000001
aF6.8183999999999996
aF1.0813999999999999
aa(lp21
F-22.138000000000002
aF6.8868999999999998
aF1.0811999999999999
aa(lp22
F-22.103999999999999
aF6.9439000000000002
aF1.0805
aa(lp23
F-22.084
aF7.0056000000000003
aF1.0805
aaa(lp24
(lp25
F-22.440000000000001
aF6.2697000000000003
aF0.54095000000000004
aa(lp26
F-22.417999999999999
aF6.3350999999999997
aF0.54086000000000001
aa(lp27
F-22.385999999999999
aF6.3894000000000002
aF0.54049000000000003
aa(lp28
F-22.363
aF6.4546999999999999
aF0.54039000000000004
aa(lp29
F-22.335000000000001
aF6.5227000000000004
aF0.54020999999999997
aa(lp30
F-22.309000000000001
aF6.5827999999999998
aF0.54001999999999994
aa(lp31
F-22.268000000000001
aF6.6425999999999998
aF0.53951000000000005
aa(lp32
F-22.239999999999998
aF6.7019000000000002
aF0.53927999999999998
aa(lp33
F-22.221
aF6.7640000000000002
aF0.53927999999999998
aa(lp34
F-22.190999999999999
aF6.827
aF0.53905000000000003
aa(lp35
F-22.155999999999999
aF6.8925000000000001
aF0.53871999999999998
aa(lp36
F-22.129000000000001
aF6.9519000000000002
aF0.53854000000000002
aa(lp37
F-22.099
aF7.0101000000000004
aF0.53825999999999996
aaa(lp38
(lp39
F-22.408000000000001
aF6.3324999999999996
aF0
aa(lp40
F-22.391999999999999
aF6.3910999999999998
aF0
aa(lp41
F-22.338000000000001
aF6.4476000000000004
aF0
aa(lp42
F-22.335000000000001
aF6.5228000000000002
aF0
aa(lp43
F-22.298999999999999
aF6.5800000000000001
aF0
aa(lp44
F-22.277999999999999
aF6.6456
aF0
aa(lp45
F-22.245999999999999
aF6.7037000000000004
aF0
aa(lp46
F-22.231000000000002
aF6.7670000000000003
aF0
aa(lp47
F-22.184000000000001
aF6.8247
aF0
aa(lp48
F-22.155000000000001
aF6.8920000000000003
aF0
aa(lp49
F-22.129999999999999
aF6.952
aF0
aa(lp50
F-22.109999999999999
aF7.0137999999999998
aF0
aaa.